

Microchip MPLAB XC8 Assembler V2.30 build 20200825195618 
                                                                                               Mon Oct 19 13:20:22 2020

Microchip MPLAB XC8 C Compiler v2.30 (Free license) build 20200825195618 Og1 
     1                           	processor	18F47K42
     2                           	fnconf	rparam,??,?,0
     3                           	pagewidth 120
     4                           	opt	flic
     5                           	psect	idataBANK1,global,class=CODE,delta=1,noexec
     6                           	psect	smallconst,global,reloc=2,class=SMALLCONST,delta=1,noexec
     7                           	psect	cinit,global,reloc=2,class=CODE,delta=1
     8                           	psect	bssCOMRAM,global,class=COMRAM,space=1,delta=1,lowdata,noexec
     9                           	psect	bssBANK0,global,class=BANK0,space=1,delta=1,lowdata,noexec
    10                           	psect	bssBANK1,global,class=BANK1,space=1,delta=1,lowdata,noexec
    11                           	psect	dataBANK1,global,class=BANK1,space=1,delta=1,lowdata,noexec
    12                           	psect	bssBANK2,global,class=BANK2,space=1,delta=1,lowdata,noexec
    13                           	psect	bssBANK3,global,class=BANK3,space=1,delta=1,lowdata,noexec
    14                           	psect	cstackBANK2,global,class=BANK2,space=1,delta=1,lowdata,noexec
    15                           	psect	cstackBANK0,global,class=BANK0,space=1,delta=1,lowdata,noexec
    16                           	psect	cstackCOMRAM,global,class=COMRAM,space=1,delta=1,lowdata,noexec
    17                           	psect	text0,global,reloc=2,class=CODE,delta=1
    18                           	psect	text1,global,reloc=2,class=CODE,delta=1,group=2
    19                           	psect	text2,global,reloc=2,class=CODE,delta=1,group=1
    20                           	psect	text3,global,reloc=2,class=CODE,delta=1,group=1
    21                           	psect	text4,global,reloc=2,class=CODE,delta=1,group=6
    22                           	psect	text5,global,reloc=2,class=CODE,delta=1,group=6
    23                           	psect	text6,global,reloc=2,class=CODE,delta=1,group=6
    24                           	psect	text7,global,reloc=2,class=CODE,delta=1,group=4
    25                           	psect	text8,global,reloc=2,class=CODE,delta=1,group=4
    26                           	psect	text9,global,reloc=2,class=CODE,delta=1,group=4
    27                           	psect	text10,global,reloc=2,class=CODE,delta=1,group=6
    28                           	psect	text11,global,reloc=2,class=CODE,delta=1,group=6
    29                           	psect	text12,global,reloc=2,class=CODE,delta=1,group=6
    30                           	psect	text13,global,reloc=2,class=CODE,delta=1,group=6
    31                           	psect	text14,global,reloc=2,class=CODE,delta=1,group=4
    32                           	psect	text15,global,reloc=2,class=CODE,delta=1,group=4
    33                           	psect	text16,global,reloc=2,class=CODE,delta=1,group=6
    34                           	psect	text17,global,reloc=2,class=CODE,delta=1,group=6
    35                           	psect	text18,global,reloc=2,class=CODE,delta=1,group=6
    36                           	psect	text19,global,reloc=2,class=CODE,delta=1,group=6
    37                           	psect	text20,global,reloc=2,class=CODE,delta=1,group=5
    38                           	psect	text21,global,reloc=2,class=CODE,delta=1,group=5
    39                           	psect	text22,global,reloc=2,class=CODE,delta=1,group=6
    40                           	psect	text23,global,reloc=2,class=CODE,delta=1,group=6
    41                           	psect	text24,global,reloc=2,class=CODE,delta=1,group=6
    42                           	psect	text25,global,reloc=2,class=CODE,delta=1,group=6
    43                           	psect	text26,global,reloc=2,class=CODE,delta=1,group=5
    44                           	psect	text27,global,reloc=2,class=CODE,delta=1
    45                           	psect	text28,global,reloc=2,class=CODE,delta=1,group=2
    46                           	psect	text29,global,reloc=2,class=CODE,delta=1,group=2
    47                           	psect	text30,global,reloc=2,class=CODE,delta=1,group=5
    48                           	psect	text31,global,reloc=2,class=CODE,delta=1,group=5
    49                           	psect	text32,global,reloc=2,class=CODE,delta=1
    50                           	psect	text33,global,reloc=2,class=CODE,delta=1,group=1
    51                           	psect	text34,global,reloc=2,class=CODE,delta=1,group=1
    52                           	psect	text35,global,reloc=2,class=CODE,delta=1,group=1
    53                           	psect	text36,global,reloc=2,class=CODE,delta=1,group=1
    54                           	psect	text37,global,reloc=2,class=CODE,delta=1,group=3
    55                           	psect	text38,global,reloc=2,class=CODE,delta=1,group=3
    56                           	psect	text39,global,reloc=2,class=CODE,delta=1,group=3
    57                           	psect	text40,global,reloc=2,class=CODE,delta=1,group=3
    58                           	psect	text41,global,reloc=2,class=CODE,delta=1,group=1
    59                           	psect	text42,global,reloc=2,class=CODE,delta=1,group=1
    60                           	psect	text43,global,reloc=2,class=CODE,delta=1,group=5
    61                           	psect	text44,global,reloc=2,class=CODE,delta=1,group=1
    62                           	psect	text45,global,reloc=2,class=CODE,delta=1,group=1
    63                           	psect	text46,global,reloc=2,class=CODE,delta=1,group=1
    64                           	psect	text47,global,reloc=2,class=CODE,delta=1,group=1
    65                           	psect	text48,global,reloc=2,class=CODE,delta=1
    66                           	psect	text49,global,reloc=2,class=CODE,delta=1,group=3
    67                           	psect	text50,global,reloc=2,class=CODE,delta=1,group=3
    68                           	psect	text51,global,reloc=2,class=CODE,delta=1,group=1
    69                           	psect	text52,global,reloc=2,class=CODE,delta=1,group=3
    70                           	psect	text53,global,reloc=2,class=CODE,delta=1,group=3
    71                           	psect	text54,global,reloc=2,class=CODE,delta=1,group=1
    72                           	psect	text55,global,reloc=4,class=CODE,delta=1
    73                           	psect	text56,global,reloc=4,class=CODE,delta=1
    74                           	psect	text57,global,reloc=4,class=CODE,delta=1
    75                           	psect	text58,global,reloc=4,class=CODE,delta=1
    76                           	psect	text59,global,reloc=2,class=CODE,delta=1,group=2
    77                           	psect	text60,global,reloc=2,class=CODE,delta=1,group=5
    78                           	psect	text61,global,reloc=4,class=CODE,delta=1
    79                           	psect	text62,global,reloc=4,class=CODE,delta=1
    80                           	psect	text63,global,reloc=4,class=CODE,delta=1
    81                           	psect	ivt0x8,global,reloc=2,class=CODE,delta=1,noexec,keep,optim=
    82                           	psect	intsave_regs,global,class=BIGRAM,space=1,delta=1,noexec
    83                           	psect	rparam,global,class=COMRAM,space=1,delta=1,noexec
    84                           	psect	idloc,global,abs,ovrld,class=IDLOC,space=5,delta=1,noexec
    85                           	psect	config,global,abs,ovrld,class=CONFIG,space=4,delta=1,noexec
    86  0000                     
    87                           ; Version 2.20
    88                           ; Generated 05/05/2020 GMT
    89                           ; 
    90                           ; Copyright © 2020, Microchip Technology Inc. and its subsidiaries ("Microchip")
    91                           ; All rights reserved.
    92                           ; 
    93                           ; This software is developed by Microchip Technology Inc. and its subsidiaries ("Microch
      +                          ip").
    94                           ; 
    95                           ; Redistribution and use in source and binary forms, with or without modification, are
    96                           ; permitted provided that the following conditions are met:
    97                           ; 
    98                           ;     1. Redistributions of source code must retain the above copyright notice, this lis
      +                          t of
    99                           ;        conditions and the following disclaimer.
   100                           ; 
   101                           ;     2. Redistributions in binary form must reproduce the above copyright notice, this 
      +                          list
   102                           ;        of conditions and the following disclaimer in the documentation and/or other
   103                           ;        materials provided with the distribution.
   104                           ; 
   105                           ;     3. Microchip's name may not be used to endorse or promote products derived from th
      +                          is
   106                           ;        software without specific prior written permission.
   107                           ; 
   108                           ; THIS SOFTWARE IS PROVIDED BY MICROCHIP "AS IS" AND ANY EXPRESS OR IMPLIED WARRANTIES,
   109                           ; INCLUDING, BUT NOT LIMITED TO, THE IMPLIED WARRANTIES OF MERCHANTABILITY AND FITNESS F
      +                          OR
   110                           ; PURPOSE ARE DISCLAIMED.  IN NO EVENT SHALL MICROCHIP BE LIABLE FOR ANY DIRECT, INDIREC
      +                          T,
   111                           ; INCIDENTAL, SPECIAL, EXEMPLARY, OR CONSEQUENTIAL DAMAGES (INCLUDING BUT NOT LIMITED TO
   112                           ; PROCUREMENT OF SUBSTITUTE GOODS OR SERVICES; LOSS OF USE, DATA OR PROFITS; OR BUSINESS
   113                           ; INTERRUPTION) HOWSOEVER CAUSED AND ON ANY THEORY OF LIABILITY, WHETHER IN CONTRACT, ST
      +                          RICT
   114                           ; LIABILITY, OR TORT (INCLUDING NEGLIGENCE OR OTHERWISE) ARISING IN ANY WAY OUT OF THE U
      +                          SE OF
   115                           ; THIS SOFTWARE, EVEN IF ADVISED OF THE POSSIBILITY OF SUCH DAMAGE.
   116                           ; 
   117                           ; 
   118                           ; Code-generator required, PIC18F47K42 Definitions
   119                           ; 
   120                           ; SFR Addresses
   121  0000                     
   122                           	psect	idataBANK1
   123  004F54                     __pidataBANK1:
   124                           	callstack 0
   125                           
   126                           ;initializer for _dispChars
   127  004F54  C0                 	db	192
   128  004F55  F9                 	db	249
   129  004F56  A4                 	db	164
   130  004F57  B0                 	db	176
   131  004F58  99                 	db	153
   132  004F59  92                 	db	146
   133  004F5A  82                 	db	130
   134  004F5B  F8                 	db	248
   135  004F5C  80                 	db	128
   136  004F5D  90                 	db	144
   137  004F5E  88                 	db	136
   138  004F5F  83                 	db	131
   139  004F60  C6                 	db	198
   140  004F61  A1                 	db	161
   141  004F62  86                 	db	134
   142  004F63  8E                 	db	142
   143  004F64  DF                 	db	223
   144  0000                     _OSCSTATbits	set	14812
   145  0000                     _OSCFRQ	set	14815
   146  0000                     _OSCCON1	set	14809
   147  0000                     _U1RXIE	set	117915
   148  0000                     _TMR6IE	set	117960
   149  0000                     _TMR6IF	set	118088
   150  0000                     _TMR4IE	set	117944
   151  0000                     _TMR5IF	set	118086
   152  0000                     _TMR3IF	set	118070
   153  0000                     _TMR1IF	set	118048
   154  0000                     _U1RXIF	set	118043
   155  0000                     _U1TXIE	set	117916
   156  0000                     _U1TXIF	set	118044
   157  0000                     _TMR4IF	set	118072
   158  0000                     _TMR4IP	set	117816
   159  0000                     _ODCONBbits	set	14930
   160  0000                     _I2C1SDAPPS	set	15074
   161  0000                     _I2C1SCLPPS	set	15073
   162  0000                     _RB5PPS	set	14861
   163  0000                     _RB4PPS	set	14860
   164  0000                     _RC6PPS	set	14870
   165  0000                     _U1RXPPS	set	15077
   166  0000                     _ANSELE	set	14976
   167  0000                     _ANSELD	set	14960
   168  0000                     _ANSELC	set	14944
   169  0000                     _ANSELB	set	14928
   170  0000                     _ANSELA	set	14912
   171  0000                     _I2C1RXB	set	15722
   172  0000                     _I2C1STAT1bits	set	15736
   173  0000                     _I2C1TXB	set	15723
   174  0000                     _I2C1CNT	set	15724
   175  0000                     _I2C1ADB1	set	15726
   176  0000                     _I2C1STAT0bits	set	15735
   177  0000                     _I2C1CON0bits	set	15731
   178  0000                     _I2C1CLK	set	15739
   179  0000                     _I2C1CON2	set	15733
   180  0000                     _I2C1CON1	set	15732
   181  0000                     _I2C1CON0	set	15731
   182  0000                     _U1BRGL	set	15861
   183  0000                     _U1BRGH	set	15862
   184  0000                     _U1CON2	set	15860
   185  0000                     _U1CON1bits	set	15859
   186  0000                     _U1RXB	set	15848
   187  0000                     _U1CON0bits	set	15858
   188  0000                     _U1ERRIRbits	set	15865
   189  0000                     _U1TXB	set	15850
   190  0000                     _U1TXEN	set	126869
   191  0000                     _LATBbits	set	16315
   192  0000                     _LATC	set	16316
   193  0000                     _TRISD	set	16325
   194  0000                     _LATD	set	16317
   195  0000                     _LATCbits	set	16316
   196  0000                     _TRISCbits	set	16324
   197  0000                     _T6CONbits	set	16276
   198  0000                     _T6CON	set	16276
   199  0000                     _T6PR	set	16275
   200  0000                     _T6HLT	set	16277
   201  0000                     _T6CLKCON	set	16278
   202  0000                     _T4CONbits	set	16288
   203  0000                     _T4CON	set	16288
   204  0000                     _T4PR	set	16287
   205  0000                     _T4HLT	set	16289
   206  0000                     _T4CLKCON	set	16290
   207  0000                     _INTCON0bits	set	16338
   208  0000                     _TRISBbits	set	16323
   209  0000                     _GIE	set	130711
   210                           
   211                           	psect	smallconst
   212  002000                     __psmallconst:
   213                           	callstack 0
   214  002000  00                 	db	0
   215  002001                     STR_1:
   216                           
   217                           ; BSR set to: 1
   218  002001  53                 	db	83	;'S'
   219  002002  79                 	db	121	;'y'
   220  002003  73                 	db	115	;'s'
   221  002004  74                 	db	116	;'t'
   222  002005  65                 	db	101	;'e'
   223  002006  6D                 	db	109	;'m'
   224  002007  20                 	db	32
   225  002008  49                 	db	73	;'I'
   226  002009  6E                 	db	110	;'n'
   227  00200A  69                 	db	105	;'i'
   228  00200B  74                 	db	116	;'t'
   229  00200C  20                 	db	32
   230  00200D  43                 	db	67	;'C'
   231  00200E  6F                 	db	111	;'o'
   232  00200F  6D                 	db	109	;'m'
   233  002010  70                 	db	112	;'p'
   234  002011  6C                 	db	108	;'l'
   235  002012  65                 	db	101	;'e'
   236  002013  74                 	db	116	;'t'
   237  002014  65                 	db	101	;'e'
   238  002015  2C                 	db	44
   239  002016  20                 	db	32
   240  002017  53                 	db	83	;'S'
   241  002018  79                 	db	121	;'y'
   242  002019  73                 	db	115	;'s'
   243  00201A  74                 	db	116	;'t'
   244  00201B  65                 	db	101	;'e'
   245  00201C  6D                 	db	109	;'m'
   246  00201D  20                 	db	32
   247  00201E  53                 	db	83	;'S'
   248  00201F  74                 	db	116	;'t'
   249  002020  61                 	db	97	;'a'
   250  002021  74                 	db	116	;'t'
   251  002022  75                 	db	117	;'u'
   252  002023  73                 	db	115	;'s'
   253  002024  3A                 	db	58	;':'
   254  002025  20                 	db	32
   255  002026  30                 	db	48	;'0'
   256  002027  78                 	db	120	;'x'
   257  002028  25                 	db	37
   258  002029  30                 	db	48	;'0'
   259  00202A  32                 	db	50	;'2'
   260  00202B  58                 	db	88	;'X'
   261  00202C  2C                 	db	44
   262  00202D  20                 	db	32
   263  00202E  42                 	db	66	;'B'
   264  00202F  65                 	db	101	;'e'
   265  002030  67                 	db	103	;'g'
   266  002031  69                 	db	105	;'i'
   267  002032  6E                 	db	110	;'n'
   268  002033  6E                 	db	110	;'n'
   269  002034  69                 	db	105	;'i'
   270  002035  6E                 	db	110	;'n'
   271  002036  67                 	db	103	;'g'
   272  002037  20                 	db	32
   273  002038  4C                 	db	76	;'L'
   274  002039  6F                 	db	111	;'o'
   275  00203A  6F                 	db	111	;'o'
   276  00203B  70                 	db	112	;'p'
   277  00203C  00                 	db	0
   278  00203D                     STR_2:
   279                           
   280                           ; BSR set to: 1
   281  00203D  49                 	db	73	;'I'
   282  00203E  4F                 	db	79	;'O'
   283  00203F  45                 	db	69	;'E'
   284  002040  78                 	db	120	;'x'
   285  002041  70                 	db	112	;'p'
   286  002042  20                 	db	32
   287  002043  50                 	db	80	;'P'
   288  002044  30                 	db	48	;'0'
   289  002045  49                 	db	73	;'I'
   290  002046  6E                 	db	110	;'n'
   291  002047  3A                 	db	58	;':'
   292  002048  20                 	db	32
   293  002049  30                 	db	48	;'0'
   294  00204A  78                 	db	120	;'x'
   295  00204B  25                 	db	37
   296  00204C  30                 	db	48	;'0'
   297  00204D  32                 	db	50	;'2'
   298  00204E  58                 	db	88	;'X'
   299  00204F  2C                 	db	44
   300  002050  20                 	db	32
   301  002051  50                 	db	80	;'P'
   302  002052  31                 	db	49	;'1'
   303  002053  49                 	db	73	;'I'
   304  002054  6E                 	db	110	;'n'
   305  002055  3A                 	db	58	;':'
   306  002056  20                 	db	32
   307  002057  30                 	db	48	;'0'
   308  002058  78                 	db	120	;'x'
   309  002059  25                 	db	37
   310  00205A  30                 	db	48	;'0'
   311  00205B  32                 	db	50	;'2'
   312  00205C  58                 	db	88	;'X'
   313  00205D  00                 	db	0
   314  00205E                     STR_3:
   315                           
   316                           ; BSR set to: 1
   317  00205E  53                 	db	83	;'S'
   318  00205F  79                 	db	121	;'y'
   319  002060  73                 	db	115	;'s'
   320  002061  74                 	db	116	;'t'
   321  002062  65                 	db	101	;'e'
   322  002063  6D                 	db	109	;'m'
   323  002064  20                 	db	32
   324  002065  54                 	db	84	;'T'
   325  002066  69                 	db	105	;'i'
   326  002067  6D                 	db	109	;'m'
   327  002068  65                 	db	101	;'e'
   328  002069  3A                 	db	58	;':'
   329  00206A  20                 	db	32
   330  00206B  25                 	db	37
   331  00206C  6C                 	db	108	;'l'
   332  00206D  75                 	db	117	;'u'
   333  00206E  00                 	db	0
   334  00206F                     STR_14:
   335                           
   336                           ; BSR set to: 1
   337  00206F  6C                 	db	108	;'l'
   338  002070  58                 	db	88	;'X'
   339  002071  00                 	db	0
   340  002072                     STR_10:
   341                           
   342                           ; BSR set to: 1
   343  002072  6C                 	db	108	;'l'
   344  002073  78                 	db	120	;'x'
   345  002074  00                 	db	0
   346  002075                     STR_4:
   347                           
   348                           ; BSR set to: 1
   349  002075  0A                 	db	10
   350  002076  0D                 	db	13
   351  002077  00                 	db	0
   352  002078  00                 	db	0	; dummy byte at the end
   353  0000                     
   354                           ; #config settings
   355                           
   356                           	psect	cinit
   357  0047DA                     __pcinit:
   358                           	callstack 0
   359  0047DA                     start_initialization:
   360                           	callstack 0
   361  0047DA                     __initialization:
   362                           	callstack 0
   363                           
   364                           ; Initialize objects allocated to BANK1 (17 bytes)
   365                           ; load TBLPTR registers with __pidataBANK1
   366  0047DA  0E54               	movlw	low __pidataBANK1
   367  0047DC  6EF6               	movwf	tblptrl,c
   368  0047DE  0E4F               	movlw	high __pidataBANK1
   369  0047E0  6EF7               	movwf	tblptrh,c
   370  0047E2  0E00               	movlw	low (__pidataBANK1 shr (0+16))
   371  0047E4  6EF8               	movwf	tblptru,c
   372  0047E6  EE00  F1CA         	lfsr	0,__pdataBANK1
   373  0047EA  EE10 F011          	lfsr	1,17
   374  0047EE                     copy_data0:
   375  0047EE  0009               	tblrd		*+
   376  0047F0  006F FFD7 FFEE     	movff	tablat,postinc0
   377  0047F6  50E5               	movf	postdec1,w,c
   378  0047F8  50E1               	movf	fsr1l,w,c
   379  0047FA  E1F9               	bnz	copy_data0
   380                           
   381                           ; Clear objects allocated to BANK3 (256 bytes)
   382  0047FC  EE00  F300         	lfsr	0,__pbssBANK3
   383  004800  EE10 F100          	lfsr	1,256
   384  004804                     clear_0:
   385  004804  6AEE               	clrf	postinc0,c
   386  004806  50E5               	movf	postdec1,w,c
   387  004808  50E1               	movf	fsr1l,w,c
   388  00480A  E1FC               	bnz	clear_0
   389  00480C  50E2               	movf	fsr1h,w,c
   390  00480E  E1FA               	bnz	clear_0
   391                           
   392                           ; Clear objects allocated to BANK2 (128 bytes)
   393  004810  EE00  F200         	lfsr	0,__pbssBANK2
   394  004814  0E80               	movlw	128
   395  004816                     clear_1:
   396  004816  6AEE               	clrf	postinc0,c
   397  004818  06E8               	decf	wreg,f,c
   398  00481A  E1FD               	bnz	clear_1
   399                           
   400                           ; Clear objects allocated to BANK1 (202 bytes)
   401  00481C  EE00  F100         	lfsr	0,__pbssBANK1
   402  004820  0ECA               	movlw	202
   403  004822                     clear_2:
   404  004822  6AEE               	clrf	postinc0,c
   405  004824  06E8               	decf	wreg,f,c
   406  004826  E1FD               	bnz	clear_2
   407                           
   408                           ; Clear objects allocated to BANK0 (20 bytes)
   409  004828  EE00  F0B3         	lfsr	0,__pbssBANK0
   410  00482C  0E14               	movlw	20
   411  00482E                     clear_3:
   412  00482E  6AEE               	clrf	postinc0,c
   413  004830  06E8               	decf	wreg,f,c
   414  004832  E1FD               	bnz	clear_3
   415                           
   416                           ; Clear objects allocated to COMRAM (18 bytes)
   417  004834  EE00  F03E         	lfsr	0,__pbssCOMRAM
   418  004838  0E12               	movlw	18
   419  00483A                     clear_4:
   420  00483A  6AEE               	clrf	postinc0,c
   421  00483C  06E8               	decf	wreg,f,c
   422  00483E  E1FD               	bnz	clear_4
   423                           
   424                           ;
   425                           ; Setup IVTBASE
   426                           ;
   427  004840  0E08               	movlw	(ivt0x8_base shr 0)& (0+255)
   428  004842  6ED5               	movwf	213,c
   429  004844  0E00               	movlw	(ivt0x8_base shr (0+8))& (0+255)
   430  004846  6ED6               	movwf	214,c
   431  004848  0E00               	movlw	(ivt0x8_base shr (0+16))& (0+255)
   432  00484A  6ED7               	movwf	215,c
   433  00484C                     end_of_initialization:
   434                           	callstack 0
   435  00484C                     __end_of__initialization:
   436                           	callstack 0
   437  00484C  0100               	movlb	0
   438  00484E  EF5F  F01B         	goto	_main	;jump to C main() function
   439                           
   440                           	psect	bssCOMRAM
   441  00003E                     __pbssCOMRAM:
   442                           	callstack 0
   443  00003E                     _dig_disp_val:
   444                           	callstack 0
   445  00003E                     	ds	4
   446  000042                     _width:
   447                           	callstack 0
   448  000042                     	ds	2
   449  000044                     _prec:
   450                           	callstack 0
   451  000044                     	ds	2
   452  000046                     _flags:
   453                           	callstack 0
   454  000046                     	ds	2
   455  000048                     _dig_idx:
   456                           	callstack 0
   457  000048                     	ds	1
   458  000049                     _uart1_rx_sys_active:
   459                           	callstack 0
   460  000049                     	ds	1
   461  00004A                     _uart1_rx_buff_load_cnt:
   462                           	callstack 0
   463  00004A                     	ds	1
   464  00004B                     _uart1_rx_buff_idx:
   465                           	callstack 0
   466  00004B                     	ds	1
   467  00004C                     _uart1_tx_sys_active:
   468                           	callstack 0
   469  00004C                     	ds	1
   470  00004D                     _uart1_tx_buff_full:
   471                           	callstack 0
   472  00004D                     	ds	1
   473  00004E                     _uart1_tx_buff_head:
   474                           	callstack 0
   475  00004E                     	ds	1
   476  00004F                     _uart1_tx_buff_tail:
   477                           	callstack 0
   478  00004F                     	ds	1
   479                           
   480                           	psect	bssBANK0
   481  0000B3                     __pbssBANK0:
   482                           	callstack 0
   483  0000B3                     _sys_time:
   484                           	callstack 0
   485  0000B3                     	ds	4
   486  0000B7                     _allowStep1:
   487                           	callstack 0
   488  0000B7                     	ds	1
   489  0000B8                     _stepDirection1:
   490                           	callstack 0
   491  0000B8                     	ds	1
   492  0000B9                     _stepState1:
   493                           	callstack 0
   494  0000B9                     	ds	1
   495  0000BA                     _stepOutShift1:
   496                           	callstack 0
   497  0000BA                     	ds	1
   498  0000BB                     _stepOutVal1:
   499                           	callstack 0
   500  0000BB                     	ds	1
   501  0000BC                     _allowStep0:
   502                           	callstack 0
   503  0000BC                     	ds	1
   504  0000BD                     _stepDirection0:
   505                           	callstack 0
   506  0000BD                     	ds	1
   507  0000BE                     _stepState0:
   508                           	callstack 0
   509  0000BE                     	ds	1
   510  0000BF                     _stepOutShift0:
   511                           	callstack 0
   512  0000BF                     	ds	1
   513  0000C0                     _stepOutVal0:
   514                           	callstack 0
   515  0000C0                     	ds	1
   516  0000C1                     _twoSecondTrigger:
   517                           	callstack 0
   518  0000C1                     	ds	1
   519  0000C2                     _halfSecondTrigger:
   520                           	callstack 0
   521  0000C2                     	ds	1
   522  0000C3                     _sys_stat:
   523                           	callstack 0
   524  0000C3                     	ds	1
   525  0000C4                     _I2C1_use_highspeed:
   526                           	callstack 0
   527  0000C4                     	ds	1
   528  0000C5                     _update_disp_trigger:
   529                           	callstack 0
   530  0000C5                     	ds	1
   531  0000C6                     _uart1_rx_msg_present:
   532                           	callstack 0
   533  0000C6                     	ds	1
   534                           
   535                           	psect	bssBANK1
   536  000100                     __pbssBANK1:
   537                           	callstack 0
   538  000100                     _I2C1_buff_out:
   539                           	callstack 0
   540  000100                     	ds	64
   541  000140                     _uart1_rx_buff_isr:
   542                           	callstack 0
   543  000140                     	ds	64
   544  000180                     _totalSteps2:
   545                           	callstack 0
   546  000180                     	ds	4
   547  000184                     _totalSteps1:
   548                           	callstack 0
   549  000184                     	ds	4
   550  000188                     _totalSteps0:
   551                           	callstack 0
   552  000188                     	ds	4
   553  00018C                     _nout:
   554                           	callstack 0
   555  00018C                     	ds	2
   556  00018E                     _pendingSteps2:
   557                           	callstack 0
   558  00018E                     	ds	2
   559  000190                     _pendingSteps1:
   560                           	callstack 0
   561  000190                     	ds	2
   562  000192                     _pendingSteps0:
   563                           	callstack 0
   564  000192                     	ds	2
   565  000194                     _I2C1_buff_idx:
   566                           	callstack 0
   567  000194                     	ds	2
   568  000196                     _TMR5Val:
   569                           	callstack 0
   570  000196                     	ds	2
   571  000198                     _TMR3Val:
   572                           	callstack 0
   573  000198                     	ds	2
   574  00019A                     _TMR1Val:
   575                           	callstack 0
   576  00019A                     	ds	2
   577  00019C                     _allowStep2:
   578                           	callstack 0
   579  00019C                     	ds	1
   580  00019D                     _stepDirection2:
   581                           	callstack 0
   582  00019D                     	ds	1
   583  00019E                     _stepState2:
   584                           	callstack 0
   585  00019E                     	ds	1
   586  00019F                     _stepOutShift2:
   587                           	callstack 0
   588  00019F                     	ds	1
   589  0001A0                     _stepOutVal2:
   590                           	callstack 0
   591  0001A0                     	ds	1
   592  0001A1                     _dbuf:
   593                           	callstack 0
   594  0001A1                     	ds	32
   595  0001C1                     _ioexp1:
   596                           	callstack 0
   597  0001C1                     	ds	9
   598                           
   599                           	psect	dataBANK1
   600  0001CA                     __pdataBANK1:
   601                           	callstack 0
   602  0001CA                     _dispChars:
   603                           	callstack 0
   604  0001CA                     	ds	17
   605                           
   606                           	psect	bssBANK2
   607  000200                     __pbssBANK2:
   608                           	callstack 0
   609  000200                     _I2C1_buff_in:
   610                           	callstack 0
   611  000200                     	ds	64
   612  000240                     _uart1_rx_buff_use:
   613                           	callstack 0
   614  000240                     	ds	64
   615                           
   616                           	psect	bssBANK3
   617  000300                     __pbssBANK3:
   618                           	callstack 0
   619  000300                     _uart1_tx_buff:
   620                           	callstack 0
   621  000300                     	ds	256
   622                           
   623                           	psect	cstackBANK2
   624  000280                     __pcstackBANK2:
   625                           	callstack 0
   626  000280                     main@msg_buff:
   627                           	callstack 0
   628                           
   629                           ; 64 bytes @ 0x0
   630  000280                     	ds	65
   631  0002C1                     main@newIOVal:
   632                           	callstack 0
   633                           
   634                           ; 2 bytes @ 0x41
   635  0002C1                     	ds	2
   636                           
   637                           	psect	cstackBANK0
   638  000060                     __pcstackBANK0:
   639                           	callstack 0
   640  000060                     ??_xtoa:
   641  000060                     utoa@p:
   642                           	callstack 0
   643  000060                     uart1_tx_str_crlf@new_buff:
   644                           	callstack 0
   645                           
   646                           ; 64 bytes @ 0x0
   647  000060                     	ds	2
   648  000062                     utoa@w:
   649                           	callstack 0
   650                           
   651                           ; 2 bytes @ 0x2
   652  000062                     	ds	2
   653  000064                     utoa@n:
   654                           	callstack 0
   655                           
   656                           ; 8 bytes @ 0x4
   657  000064                     	ds	4
   658  000068                     _xtoa$3536:
   659                           	callstack 0
   660                           
   661                           ; 2 bytes @ 0x8
   662  000068                     	ds	2
   663  00006A                     _xtoa$3537:
   664                           	callstack 0
   665                           
   666                           ; 2 bytes @ 0xA
   667  00006A                     	ds	2
   668  00006C                     utoa@i:
   669                           	callstack 0
   670  00006C                     xtoa@p:
   671                           	callstack 0
   672                           
   673                           ; 2 bytes @ 0xC
   674  00006C                     	ds	2
   675  00006E                     xtoa@w:
   676                           	callstack 0
   677                           
   678                           ; 2 bytes @ 0xE
   679  00006E                     	ds	2
   680  000070                     xtoa@n:
   681                           	callstack 0
   682                           
   683                           ; 8 bytes @ 0x10
   684  000070                     	ds	8
   685  000078                     xtoa@i:
   686                           	callstack 0
   687                           
   688                           ; 2 bytes @ 0x18
   689  000078                     	ds	2
   690  00007A                     xtoa@c:
   691                           	callstack 0
   692                           
   693                           ; 2 bytes @ 0x1A
   694  00007A                     	ds	2
   695  00007C                     ?_vfpfcnvrt:
   696                           	callstack 0
   697  00007C                     vfpfcnvrt@fp:
   698                           	callstack 0
   699                           
   700                           ; 2 bytes @ 0x1C
   701  00007C                     	ds	2
   702  00007E                     vfpfcnvrt@fmt:
   703                           	callstack 0
   704                           
   705                           ; 2 bytes @ 0x1E
   706  00007E                     	ds	2
   707  000080                     vfpfcnvrt@ap:
   708                           	callstack 0
   709                           
   710                           ; 2 bytes @ 0x20
   711  000080                     	ds	2
   712  000082                     ??_vfpfcnvrt:
   713                           
   714                           ; 1 bytes @ 0x22
   715  000082                     	ds	6
   716  000088                     vfpfcnvrt@done:
   717                           	callstack 0
   718                           
   719                           ; 2 bytes @ 0x28
   720  000088                     	ds	2
   721  00008A                     _vfpfcnvrt$3551:
   722                           	callstack 0
   723                           
   724                           ; 2 bytes @ 0x2A
   725  00008A                     	ds	2
   726  00008C                     vfpfcnvrt@c:
   727                           	callstack 0
   728                           
   729                           ; 1 bytes @ 0x2C
   730  00008C                     	ds	1
   731  00008D                     vfpfcnvrt@llu:
   732                           	callstack 0
   733                           
   734                           ; 8 bytes @ 0x2D
   735  00008D                     	ds	8
   736  000095                     ?_vfprintf:
   737                           	callstack 0
   738  000095                     vfprintf@fp:
   739                           	callstack 0
   740                           
   741                           ; 2 bytes @ 0x35
   742  000095                     	ds	2
   743  000097                     vfprintf@fmt:
   744                           	callstack 0
   745                           
   746                           ; 2 bytes @ 0x37
   747  000097                     	ds	2
   748  000099                     vfprintf@ap:
   749                           	callstack 0
   750                           
   751                           ; 2 bytes @ 0x39
   752  000099                     	ds	2
   753  00009B                     vfprintf@cfmt:
   754                           	callstack 0
   755                           
   756                           ; 2 bytes @ 0x3B
   757  00009B                     	ds	2
   758  00009D                     ?_sprintf:
   759                           	callstack 0
   760  00009D                     sprintf@s:
   761                           	callstack 0
   762                           
   763                           ; 2 bytes @ 0x3D
   764  00009D                     	ds	2
   765  00009F                     sprintf@fmt:
   766                           	callstack 0
   767                           
   768                           ; 2 bytes @ 0x3F
   769  00009F                     	ds	8
   770  0000A7                     sprintf@ap:
   771                           	callstack 0
   772                           
   773                           ; 2 bytes @ 0x47
   774  0000A7                     	ds	2
   775  0000A9                     sprintf@f:
   776                           	callstack 0
   777                           
   778                           ; 6 bytes @ 0x49
   779  0000A9                     	ds	6
   780  0000AF                     ??_main:
   781                           
   782                           ; 1 bytes @ 0x4F
   783  0000AF                     	ds	4
   784                           
   785                           	psect	cstackCOMRAM
   786  000001                     __pcstackCOMRAM:
   787                           	callstack 0
   788  000001                     ??_updateDisp:
   789  000001                     ?___llmod:
   790                           	callstack 0
   791  000001                     ___llmod@dividend:
   792                           	callstack 0
   793                           
   794                           ; 4 bytes @ 0x0
   795  000001                     	ds	4
   796  000005                     ___llmod@divisor:
   797                           	callstack 0
   798                           
   799                           ; 4 bytes @ 0x4
   800  000005                     	ds	4
   801  000009                     ___llmod@counter:
   802                           	callstack 0
   803                           
   804                           ; 1 bytes @ 0x8
   805  000009                     	ds	1
   806  00000A                     ??_TX_ISR:
   807  00000A                     
   808                           ; 1 bytes @ 0x9
   809  00000A                     	ds	1
   810  00000B                     ??_RX_ISR:
   811                           
   812                           ; 1 bytes @ 0xA
   813  00000B                     	ds	1
   814  00000C                     RX_ISR@rx_frm_error:
   815                           	callstack 0
   816                           
   817                           ; 1 bytes @ 0xB
   818  00000C                     	ds	1
   819  00000D                     RX_ISR@rx_or_error:
   820                           	callstack 0
   821                           
   822                           ; 1 bytes @ 0xC
   823  00000D                     	ds	1
   824  00000E                     RX_ISR@rx_val:
   825                           	callstack 0
   826                           
   827                           ; 1 bytes @ 0xD
   828  00000E                     	ds	1
   829  00000F                     RX_ISR@i:
   830                           	callstack 0
   831                           
   832                           ; 1 bytes @ 0xE
   833  00000F                     	ds	1
   834  000010                     RX_ISR@i_639:
   835                           	callstack 0
   836                           
   837                           ; 1 bytes @ 0xF
   838  000010                     	ds	1
   839  000011                     ?_strlen:
   840                           	callstack 0
   841  000011                     ?_isupper:
   842                           	callstack 0
   843  000011                     ?_isalpha:
   844                           	callstack 0
   845  000011                     ?_isdigit:
   846                           	callstack 0
   847  000011                     ?_strncmp:
   848                           	callstack 0
   849  000011                     ?_isspace:
   850                           	callstack 0
   851  000011                     ?_islower:
   852                           	callstack 0
   853  000011                     ?___wmul:
   854                           	callstack 0
   855  000011                     ?___lwdiv:
   856                           	callstack 0
   857  000011                     ?___lwmod:
   858                           	callstack 0
   859  000011                     ?___lldiv:
   860                           	callstack 0
   861  000011                     ?___lodiv:
   862                           	callstack 0
   863  000011                     ?___lomod:
   864                           	callstack 0
   865  000011                     I2C1Write@devAddr:
   866                           	callstack 0
   867  000011                     I2C1WrRd@rdCnt:
   868                           	callstack 0
   869  000011                     updateDispValHex@newVal:
   870                           	callstack 0
   871  000011                     ___wmul@multiplier:
   872                           	callstack 0
   873  000011                     ___lwdiv@dividend:
   874                           	callstack 0
   875  000011                     ___lwmod@dividend:
   876                           	callstack 0
   877  000011                     isalpha@c:
   878                           	callstack 0
   879  000011                     isdigit@c:
   880                           	callstack 0
   881  000011                     isspace@c:
   882                           	callstack 0
   883  000011                     isupper@c:
   884                           	callstack 0
   885  000011                     fputc@c:
   886                           	callstack 0
   887  000011                     strlen@s:
   888                           	callstack 0
   889  000011                     strncmp@_l:
   890                           	callstack 0
   891  000011                     islower@c:
   892                           	callstack 0
   893  000011                     ___lldiv@dividend:
   894                           	callstack 0
   895  000011                     ___lodiv@dividend:
   896                           	callstack 0
   897  000011                     ___lomod@dividend:
   898                           	callstack 0
   899                           
   900                           ; 8 bytes @ 0x10
   901  000011                     	ds	1
   902  000012                     I2C1Write@byteCnt:
   903                           	callstack 0
   904  000012                     I2C1WrRd@devAddr:
   905                           	callstack 0
   906                           
   907                           ; 1 bytes @ 0x11
   908  000012                     	ds	1
   909  000013                     ??_isupper:
   910  000013                     ??_isalpha:
   911  000013                     ??_isdigit:
   912  000013                     ??_isspace:
   913  000013                     ??_islower:
   914  000013                     updateDispValHex@newDP:
   915                           	callstack 0
   916  000013                     I2C1Write@write_count:
   917                           	callstack 0
   918  000013                     I2C1WrRd@wrCnt:
   919                           	callstack 0
   920  000013                     ___wmul@multiplicand:
   921                           	callstack 0
   922  000013                     ___lwdiv@divisor:
   923                           	callstack 0
   924  000013                     ___lwmod@divisor:
   925                           	callstack 0
   926  000013                     fputc@fp:
   927                           	callstack 0
   928  000013                     strlen@a:
   929                           	callstack 0
   930  000013                     strncmp@_r:
   931                           	callstack 0
   932                           
   933                           ; 2 bytes @ 0x12
   934  000013                     	ds	1
   935  000014                     ??_updateDispValHex:
   936  000014                     I2C1WrRd@write_count:
   937                           	callstack 0
   938  000014                     IOExpWriteDir@ioexp_inst:
   939                           	callstack 0
   940  000014                     IOExpWriteInv@ioexp_inst:
   941                           	callstack 0
   942  000014                     IOExpWriteVal@ioexp_inst:
   943                           	callstack 0
   944                           
   945                           ; 2 bytes @ 0x13
   946  000014                     	ds	1
   947  000015                     ??_fputc:
   948  000015                     I2C1WrRd@read_count:
   949                           	callstack 0
   950  000015                     ___lwdiv@counter:
   951                           	callstack 0
   952  000015                     ___lwmod@counter:
   953                           	callstack 0
   954  000015                     uart1_tx_str@in_bytes:
   955                           	callstack 0
   956  000015                     ___wmul@product:
   957                           	callstack 0
   958  000015                     strcpy@dest:
   959                           	callstack 0
   960  000015                     strncmp@n:
   961                           	callstack 0
   962  000015                     ___lldiv@divisor:
   963                           	callstack 0
   964                           
   965                           ; 4 bytes @ 0x14
   966  000015                     	ds	1
   967  000016                     IOExpWriteDir@portSel:
   968                           	callstack 0
   969  000016                     IOExpWriteInv@portSel:
   970                           	callstack 0
   971  000016                     IOExpWriteVal@portSel:
   972                           	callstack 0
   973  000016                     IOExpReadIVal@ioexp_inst:
   974                           	callstack 0
   975  000016                     ___lwdiv@quotient:
   976                           	callstack 0
   977                           
   978                           ; 2 bytes @ 0x15
   979  000016                     	ds	1
   980  000017                     ??_strncmp:
   981  000017                     ??_uart1_tx_str:
   982  000017                     ?_toupper:
   983                           	callstack 0
   984  000017                     updateDispValHex@dig_0_on:
   985                           	callstack 0
   986  000017                     IOExpWriteDir@intAddr:
   987                           	callstack 0
   988  000017                     IOExpWriteInv@intAddr:
   989                           	callstack 0
   990  000017                     IOExpWriteVal@intAddr:
   991                           	callstack 0
   992  000017                     _isspace$3611:
   993                           	callstack 0
   994  000017                     strcpy@src:
   995                           	callstack 0
   996  000017                     toupper@c:
   997                           	callstack 0
   998                           
   999                           ; 2 bytes @ 0x16
  1000  000017                     	ds	1
  1001  000018                     ?_atoi:
  1002                           	callstack 0
  1003  000018                     updateDispValHex@dig_3_on:
  1004                           	callstack 0
  1005  000018                     IOExpReadIVal@portSel:
  1006                           	callstack 0
  1007  000018                     updateDispVal@newVal:
  1008                           	callstack 0
  1009  000018                     IOExpWriteDir@datVals:
  1010                           	callstack 0
  1011  000018                     IOExpWriteInv@datVals:
  1012                           	callstack 0
  1013  000018                     IOExpWriteVal@datVals:
  1014                           	callstack 0
  1015  000018                     atoi@s:
  1016                           	callstack 0
  1017  000018                     strncmp@l:
  1018                           	callstack 0
  1019                           
  1020                           ; 2 bytes @ 0x17
  1021  000018                     	ds	1
  1022  000019                     ??_strcpy:
  1023  000019                     ??_toupper:
  1024  000019                     uart1_tx_str@i:
  1025                           	callstack 0
  1026  000019                     updateDispValHex@dig_1_on:
  1027                           	callstack 0
  1028  000019                     IOExpReadIVal@intAddr:
  1029                           	callstack 0
  1030  000019                     ___lldiv@quotient:
  1031                           	callstack 0
  1032  000019                     ___lodiv@divisor:
  1033                           	callstack 0
  1034  000019                     ___lomod@divisor:
  1035                           	callstack 0
  1036                           
  1037                           ; 8 bytes @ 0x18
  1038  000019                     	ds	1
  1039  00001A                     ??_atoi:
  1040  00001A                     updateDispVal@newDP:
  1041                           	callstack 0
  1042  00001A                     updateDispValHex@dig_2_on:
  1043                           	callstack 0
  1044  00001A                     IOExpWriteDir@wrtCnt:
  1045                           	callstack 0
  1046  00001A                     IOExpWriteInv@wrtCnt:
  1047                           	callstack 0
  1048  00001A                     IOExpWriteVal@wrtCnt:
  1049                           	callstack 0
  1050  00001A                     IOExpReadIVal@rdCnt:
  1051                           	callstack 0
  1052  00001A                     fputs@s:
  1053                           	callstack 0
  1054  00001A                     strncmp@r:
  1055                           	callstack 0
  1056                           
  1057                           ; 2 bytes @ 0x19
  1058  00001A                     	ds	1
  1059  00001B                     updateDispVal@dig_0_on:
  1060                           	callstack 0
  1061  00001B                     updateDispValHex@tmpVal:
  1062                           	callstack 0
  1063  00001B                     IOExpUpdateOut@ioexp_inst:
  1064                           	callstack 0
  1065  00001B                     IOExpReadIVal@outVals:
  1066                           	callstack 0
  1067  00001B                     strcpy@s:
  1068                           	callstack 0
  1069                           
  1070                           ; 2 bytes @ 0x1A
  1071  00001B                     	ds	1
  1072  00001C                     updateDispVal@dig_3_on:
  1073                           	callstack 0
  1074  00001C                     fputs@fp:
  1075                           	callstack 0
  1076                           
  1077                           ; 2 bytes @ 0x1B
  1078  00001C                     	ds	1
  1079  00001D                     updateDispVal@dig_1_on:
  1080                           	callstack 0
  1081  00001D                     ___lldiv@counter:
  1082                           	callstack 0
  1083  00001D                     IOExpUpdateAll@ioexp_inst:
  1084                           	callstack 0
  1085  00001D                     IOExpUpdateOut@set_oval:
  1086                           	callstack 0
  1087  00001D                     IOExpUpdateIn@ioexp_inst:
  1088                           	callstack 0
  1089  00001D                     strcpy@d:
  1090                           	callstack 0
  1091  00001D                     _toupper$3686:
  1092                           	callstack 0
  1093                           
  1094                           ; 2 bytes @ 0x1C
  1095  00001D                     	ds	1
  1096  00001E                     updateDispVal@dig_2_on:
  1097                           	callstack 0
  1098  00001E                     fputs@c:
  1099                           	callstack 0
  1100  00001E                     atoi@neg:
  1101                           	callstack 0
  1102  00001E                     Tmr4Setup@tmr_freq:
  1103                           	callstack 0
  1104  00001E                     Tmr6Setup@tmr_freq:
  1105                           	callstack 0
  1106  00001E                     UART1Setup@set_baud:
  1107                           	callstack 0
  1108                           
  1109                           ; 4 bytes @ 0x1D
  1110  00001E                     	ds	1
  1111  00001F                     updateDispVal@tmpVal:
  1112                           	callstack 0
  1113  00001F                     fputs@i:
  1114                           	callstack 0
  1115  00001F                     strcat@dest:
  1116                           	callstack 0
  1117                           
  1118                           ; 2 bytes @ 0x1E
  1119  00001F                     	ds	1
  1120  000020                     _atoi$3584:
  1121                           	callstack 0
  1122                           
  1123                           ; 2 bytes @ 0x1F
  1124  000020                     	ds	1
  1125  000021                     ?_pad:
  1126                           	callstack 0
  1127  000021                     ___lomod@counter:
  1128                           	callstack 0
  1129  000021                     setupDisp@initVal:
  1130                           	callstack 0
  1131  000021                     pad@fp:
  1132                           	callstack 0
  1133  000021                     strcat@src:
  1134                           	callstack 0
  1135  000021                     ___lodiv@quotient:
  1136                           	callstack 0
  1137                           
  1138                           ; 8 bytes @ 0x20
  1139  000021                     	ds	1
  1140  000022                     Tmr4Setup@use_int:
  1141                           	callstack 0
  1142  000022                     Tmr6Setup@use_int:
  1143                           	callstack 0
  1144  000022                     UART1Setup@use_tx:
  1145                           	callstack 0
  1146  000022                     _atoi$3586:
  1147                           	callstack 0
  1148                           
  1149                           ; 2 bytes @ 0x21
  1150  000022                     	ds	1
  1151  000023                     ??_Tmr4Setup:
  1152  000023                     ??_Tmr6Setup:
  1153  000023                     UART1Setup@use_rx:
  1154                           	callstack 0
  1155  000023                     uart1_tx_str_crlf@in_bytes:
  1156                           	callstack 0
  1157  000023                     pad@buf:
  1158                           	callstack 0
  1159                           
  1160                           ; 2 bytes @ 0x22
  1161  000023                     	ds	1
  1162  000024                     ??_UART1Setup:
  1163  000024                     _atoi$3585:
  1164                           	callstack 0
  1165                           
  1166                           ; 1 bytes @ 0x23
  1167  000024                     	ds	1
  1168  000025                     pad@p:
  1169                           	callstack 0
  1170  000025                     atoi@n:
  1171                           	callstack 0
  1172                           
  1173                           ; 2 bytes @ 0x24
  1174  000025                     	ds	2
  1175  000027                     ??_pad:
  1176  000027                     Tmr4Setup@prescalarVal:
  1177                           	callstack 0
  1178  000027                     Tmr6Setup@prescalarVal:
  1179                           	callstack 0
  1180                           
  1181                           ; 1 bytes @ 0x26
  1182  000027                     	ds	1
  1183  000028                     UART1Setup@i:
  1184                           	callstack 0
  1185  000028                     pad@i:
  1186                           	callstack 0
  1187  000028                     Tmr4Setup@regVal:
  1188                           	callstack 0
  1189  000028                     Tmr6Setup@regVal:
  1190                           	callstack 0
  1191                           
  1192                           ; 4 bytes @ 0x27
  1193  000028                     	ds	1
  1194  000029                     ___lodiv@counter:
  1195                           	callstack 0
  1196                           
  1197                           ; 1 bytes @ 0x28
  1198  000029                     	ds	1
  1199  00002A                     UART1Setup@i_1058:
  1200                           	callstack 0
  1201  00002A                     pad@w:
  1202                           	callstack 0
  1203                           
  1204                           ; 2 bytes @ 0x29
  1205  00002A                     	ds	1
  1206  00002B                     UART1Setup@regVal:
  1207                           	callstack 0
  1208                           
  1209                           ; 4 bytes @ 0x2A
  1210  00002B                     	ds	1
  1211  00002C                     ?_utoa:
  1212                           	callstack 0
  1213  00002C                     ?_xtoa:
  1214                           	callstack 0
  1215  00002C                     I2C1Setup@high_speed:
  1216                           	callstack 0
  1217  00002C                     utoa@fp:
  1218                           	callstack 0
  1219  00002C                     xtoa@fp:
  1220                           	callstack 0
  1221                           
  1222                           ; 2 bytes @ 0x2B
  1223  00002C                     	ds	1
  1224  00002D                     IOExpSetup@ioexp_inst:
  1225                           	callstack 0
  1226                           
  1227                           ; 2 bytes @ 0x2C
  1228  00002D                     	ds	1
  1229  00002E                     utoa@d:
  1230                           	callstack 0
  1231  00002E                     xtoa@d:
  1232                           	callstack 0
  1233                           
  1234                           ; 8 bytes @ 0x2D
  1235  00002E                     	ds	1
  1236  00002F                     IOExpSetup@set_addr:
  1237                           	callstack 0
  1238                           
  1239                           ; 1 bytes @ 0x2E
  1240  00002F                     	ds	1
  1241  000030                     IOExpSetup@set_dir:
  1242                           	callstack 0
  1243                           
  1244                           ; 2 bytes @ 0x2F
  1245  000030                     	ds	2
  1246  000032                     IOExpSetup@set_inv:
  1247                           	callstack 0
  1248                           
  1249                           ; 2 bytes @ 0x31
  1250  000032                     	ds	2
  1251  000034                     IOExpSetup@set_oval:
  1252                           	callstack 0
  1253                           
  1254                           ; 2 bytes @ 0x33
  1255  000034                     	ds	2
  1256  000036                     ??_IOExpSetup:
  1257  000036                     ??_utoa:
  1258  000036                     xtoa@x:
  1259                           	callstack 0
  1260                           
  1261                           ; 1 bytes @ 0x35
  1262  000036                     	ds	1
  1263  000037                     
  1264                           ; 1 bytes @ 0x36
  1265  000037                     	ds	7
  1266  00003E                     
  1267                           ; 1 bytes @ 0x3D
  1268 ;;
  1269 ;;Main: autosize = 0, tempsize = 4, incstack = 0, save=0
  1270 ;;
  1271 ;; *************** function _main *****************
  1272 ;; Defined at:
  1273 ;;		line 11 in file "/home/dev-user/Projects/Personal/PIC/PIC18Test1.X/main.c"
  1274 ;; Parameters:    Size  Location     Type
  1275 ;;		None
  1276 ;; Auto vars:     Size  Location     Type
  1277 ;;  newIOVal        2   65[BANK2 ] unsigned short 
  1278 ;;  msg_buff       64    0[BANK2 ] unsigned char [64]
  1279 ;;  sys_time_act    4    0        unsigned long 
  1280 ;;  switch_stepp    1    0        _Bool 
  1281 ;; Return value:  Size  Location     Type
  1282 ;;                  1    wreg      void 
  1283 ;; Registers used:
  1284 ;;		wreg, fsr1l, fsr1h, fsr2l, fsr2h, status,2, status,0, tblptrl, tblptrh, tblptru, prodl, prodh, cstack
  1285 ;; Tracked objects:
  1286 ;;		On entry : 0/0
  1287 ;;		On exit  : 0/0
  1288 ;;		Unchanged: 0/0
  1289 ;; Data sizes:     COMRAM   BANK0   BANK1   BANK2   BANK3   BANK4   BANK5   BANK6   BANK7   BANK8   BANK9  BANK10  BANK1
      +1  BANK12  BANK13  BANK14  BANK15  BANK16  BANK17  BANK18  BANK19  BANK20  BANK21  BANK22  BANK23  BANK24  BANK25  BANK2
      +6  BANK27  BANK28  BANK29  BANK30  BANK31
  1290 ;;      Params:         0       0       0       0       0       0       0       0       0       0       0       0       
      +0       0       0       0       0       0       0       0       0       0       0       0       0       0       0       
      +0       0       0       0       0       0
  1291 ;;      Locals:         0       0       0      67       0       0       0       0       0       0       0       0       
      +0       0       0       0       0       0       0       0       0       0       0       0       0       0       0       
      +0       0       0       0       0       0
  1292 ;;      Temps:          0       4       0       0       0       0       0       0       0       0       0       0       
      +0       0       0       0       0       0       0       0       0       0       0       0       0       0       0       
      +0       0       0       0       0       0
  1293 ;;      Totals:         0       4       0      67       0       0       0       0       0       0       0       0       
      +0       0       0       0       0       0       0       0       0       0       0       0       0       0       0       
      +0       0       0       0       0       0
  1294 ;;Total ram usage:       71 bytes
  1295 ;; Hardware stack levels required when called:   11
  1296 ;; This function calls:
  1297 ;;		_IOExpUpdateIn
  1298 ;;		_IOExpUpdateOut
  1299 ;;		_SetupClk
  1300 ;;		_SysInit
  1301 ;;		_sprintf
  1302 ;;		_uart1_tx_str_crlf
  1303 ;;		_updateDispValHex
  1304 ;; This function is called by:
  1305 ;;		Startup code after reset
  1306 ;; This function uses a non-reentrant model
  1307 ;;
  1308                           
  1309                           	psect	text0
  1310  0036BE                     __ptext0:
  1311                           	callstack 0
  1312  0036BE                     _main:
  1313                           	callstack 20
  1314  0036BE                     
  1315                           ;/home/dev-user/Projects/Personal/PIC/PIC18Test1.X/main.c: 13:     SetupClk();
  1316  0036BE  EC34  F027         	call	_SetupClk	;wreg free
  1317  0036C2                     
  1318                           ;/home/dev-user/Projects/Personal/PIC/PIC18Test1.X/main.c: 15:     if(STAT_SUCCESS != Sy
      +                          sInit())
  1319  0036C2  EC18  F01E         	call	_SysInit	;wreg free
  1320  0036C6  0900               	iorlw	0
  1321  0036C8  B4D8               	btfsc	status,2,c
  1322  0036CA  EF69  F01B         	goto	u6581
  1323  0036CE  EF6B  F01B         	goto	u6580
  1324  0036D2                     u6581:
  1325  0036D2  EF6D  F01B         	goto	l6599
  1326  0036D6                     u6580:
  1327  0036D6  EF0B  F01C         	goto	l186
  1328  0036DA                     l6599:
  1329  0036DA                     
  1330                           ;/home/dev-user/Projects/Personal/PIC/PIC18Test1.X/main.c: 19:     uint32_t sys_time_act
      +                          ;;/home/dev-user/Projects/Personal/PIC/PIC18Test1.X/main.c: 20:     char msg_buff[64];;/
      +                          home/dev-user/Projects/Personal/PIC/PIC18Test1.X/main.c: 22:     sprintf(msg_buff,"Syste
      +                          m Init Complete, System Status: 0x%02X, Beginning Loop",sys_stat);
  1331  0036DA  0E80               	movlw	low main@msg_buff
  1332  0036DC  0100               	movlb	0	; () banked
  1333  0036DE  6F9D               	movwf	sprintf@s& (0+255),b
  1334  0036E0  0E02               	movlw	high main@msg_buff
  1335  0036E2  6F9E               	movwf	(sprintf@s+1)& (0+255),b
  1336  0036E4  0E01               	movlw	low STR_1
  1337  0036E6  6F9F               	movwf	sprintf@fmt& (0+255),b
  1338  0036E8  0E20               	movlw	high STR_1
  1339  0036EA  6FA0               	movwf	(sprintf@fmt+1)& (0+255),b
  1340  0036EC  C0C3  F0A1         	movff	_sys_stat,?_sprintf+4	;volatile
  1341  0036F0  6BA2               	clrf	(?_sprintf+5)& (0+255),b
  1342  0036F2  ECC4  F025         	call	_sprintf	;wreg free
  1343  0036F6                     
  1344                           ;/home/dev-user/Projects/Personal/PIC/PIC18Test1.X/main.c: 23:     uart1_tx_str_crlf(msg
      +                          _buff);
  1345  0036F6  0E80               	movlw	low main@msg_buff
  1346  0036F8  6E23               	movwf	uart1_tx_str_crlf@in_bytes^0,c
  1347  0036FA  0E02               	movlw	high main@msg_buff
  1348  0036FC  6E24               	movwf	(uart1_tx_str_crlf@in_bytes+1)^0,c
  1349  0036FE  EC9C  F024         	call	_uart1_tx_str_crlf	;wreg free
  1350  003702                     l187:
  1351  003702  0004               	clrwdt		;# 
  1352  003704                     
  1353                           ;/home/dev-user/Projects/Personal/PIC/PIC18Test1.X/main.c: 28:         if(halfSecondTrig
      +                          ger){
  1354  003704  0100               	movlb	0	; () banked
  1355  003706  51C2               	movf	_halfSecondTrigger& (0+255),w,b
  1356  003708  B4D8               	btfsc	status,2,c
  1357  00370A  EF89  F01B         	goto	u6591
  1358  00370E  EF8B  F01B         	goto	u6590
  1359  003712                     u6591:
  1360  003712  EFCB  F01B         	goto	l6619
  1361  003716                     u6590:
  1362  003716                     
  1363                           ; BSR set to: 0
  1364                           ;/home/dev-user/Projects/Personal/PIC/PIC18Test1.X/main.c: 29:             halfSecondTri
      +                          gger = 0;
  1365  003716  0E00               	movlw	0
  1366  003718  6FC2               	movwf	_halfSecondTrigger& (0+255),b
  1367  00371A                     
  1368                           ; BSR set to: 0
  1369                           ;/home/dev-user/Projects/Personal/PIC/PIC18Test1.X/main.c: 31:             uint16_t newI
      +                          OVal = ((ioexp1.P1OVal.val+2) << 8) + (ioexp1.P0OVal.val+1);
  1370  00371A  0101               	movlb	1	; () banked
  1371  00371C  51C7               	movf	(_ioexp1+6)& (0+255),w,b	;volatile
  1372  00371E  0100               	movlb	0	; () banked
  1373  003720  6FB0               	movwf	(??_main+1)& (0+255),b
  1374  003722  6BAF               	clrf	??_main& (0+255),b
  1375  003724  0101               	movlb	1	; () banked
  1376  003726  51C3               	movf	(_ioexp1+2)& (0+255),w,b	;volatile
  1377  003728  0100               	movlb	0	; () banked
  1378  00372A  6FB1               	movwf	(??_main+2)& (0+255),b
  1379  00372C  6BB2               	clrf	(??_main+3)& (0+255),b
  1380  00372E  51AF               	movf	??_main& (0+255),w,b
  1381  003730  27B1               	addwf	(??_main+2)& (0+255),f,b
  1382  003732  51B0               	movf	(??_main+1)& (0+255),w,b
  1383  003734  23B2               	addwfc	(??_main+3)& (0+255),f,b
  1384  003736  0E01               	movlw	1
  1385  003738  25B1               	addwf	(??_main+2)& (0+255),w,b
  1386  00373A  0102               	movlb	2	; () banked
  1387  00373C  6FC1               	movwf	main@newIOVal& (0+255),b
  1388  00373E  0E02               	movlw	2
  1389  003740  0100               	movlb	0	; () banked
  1390  003742  21B2               	addwfc	(??_main+3)& (0+255),w,b
  1391  003744  0102               	movlb	2	; () banked
  1392  003746  6FC2               	movwf	(main@newIOVal+1)& (0+255),b
  1393  003748                     
  1394                           ; BSR set to: 2
  1395                           ;/home/dev-user/Projects/Personal/PIC/PIC18Test1.X/main.c: 33:             IOExpUpdateOu
      +                          t(&ioexp1,newIOVal);
  1396  003748  0EC1               	movlw	low _ioexp1
  1397  00374A  6E1B               	movwf	IOExpUpdateOut@ioexp_inst^0,c
  1398  00374C  0E01               	movlw	high _ioexp1
  1399  00374E  6E1C               	movwf	(IOExpUpdateOut@ioexp_inst+1)^0,c
  1400  003750  C2C1  F01D         	movff	main@newIOVal,IOExpUpdateOut@set_oval
  1401  003754  C2C2  F01E         	movff	main@newIOVal+1,IOExpUpdateOut@set_oval+1
  1402  003758  EC05  F027         	call	_IOExpUpdateOut	;wreg free
  1403  00375C                     
  1404                           ;/home/dev-user/Projects/Personal/PIC/PIC18Test1.X/main.c: 35:             IOExpUpdateIn
      +                          (&ioexp1);
  1405  00375C  0EC1               	movlw	low _ioexp1
  1406  00375E  6E1D               	movwf	IOExpUpdateIn@ioexp_inst^0,c
  1407  003760  0E01               	movlw	high _ioexp1
  1408  003762  6E1E               	movwf	(IOExpUpdateIn@ioexp_inst+1)^0,c
  1409  003764  ECA1  F027         	call	_IOExpUpdateIn	;wreg free
  1410  003768                     
  1411                           ;/home/dev-user/Projects/Personal/PIC/PIC18Test1.X/main.c: 36:             sprintf(msg_b
      +                          uff,"IOExp P0In: 0x%02X, P1In: 0x%02X",ioexp1.P0IVal.val,ioexp1.P1IVal.val);
  1412  003768  0E80               	movlw	low main@msg_buff
  1413  00376A  0100               	movlb	0	; () banked
  1414  00376C  6F9D               	movwf	sprintf@s& (0+255),b
  1415  00376E  0E02               	movlw	high main@msg_buff
  1416  003770  6F9E               	movwf	(sprintf@s+1)& (0+255),b
  1417  003772  0E3D               	movlw	low STR_2
  1418  003774  6F9F               	movwf	sprintf@fmt& (0+255),b
  1419  003776  0E20               	movlw	high STR_2
  1420  003778  6FA0               	movwf	(sprintf@fmt+1)& (0+255),b
  1421  00377A  C1C2  F0A1         	movff	_ioexp1+1,?_sprintf+4	;volatile
  1422  00377E  6BA2               	clrf	(?_sprintf+5)& (0+255),b
  1423  003780  C1C6  F0A3         	movff	_ioexp1+5,?_sprintf+6	;volatile
  1424  003784  6BA4               	clrf	(?_sprintf+7)& (0+255),b
  1425  003786  ECC4  F025         	call	_sprintf	;wreg free
  1426  00378A                     
  1427                           ;/home/dev-user/Projects/Personal/PIC/PIC18Test1.X/main.c: 37:             uart1_tx_str_
      +                          crlf(msg_buff);
  1428  00378A  0E80               	movlw	low main@msg_buff
  1429  00378C  6E23               	movwf	uart1_tx_str_crlf@in_bytes^0,c
  1430  00378E  0E02               	movlw	high main@msg_buff
  1431  003790  6E24               	movwf	(uart1_tx_str_crlf@in_bytes+1)^0,c
  1432  003792  EC9C  F024         	call	_uart1_tx_str_crlf	;wreg free
  1433  003796                     l6619:
  1434                           
  1435                           ;/home/dev-user/Projects/Personal/PIC/PIC18Test1.X/main.c: 41:         if(twoSecondTrigg
      +                          er){
  1436  003796  0100               	movlb	0	; () banked
  1437  003798  51C1               	movf	_twoSecondTrigger& (0+255),w,b
  1438  00379A  B4D8               	btfsc	status,2,c
  1439  00379C  EFD2  F01B         	goto	u6601
  1440  0037A0  EFD4  F01B         	goto	u6600
  1441  0037A4                     u6601:
  1442  0037A4  EFF7  F01B         	goto	l6629
  1443  0037A8                     u6600:
  1444  0037A8                     
  1445                           ; BSR set to: 0
  1446                           ;/home/dev-user/Projects/Personal/PIC/PIC18Test1.X/main.c: 42:             twoSecondTrig
      +                          ger = 0;
  1447  0037A8  0E00               	movlw	0
  1448  0037AA  6FC1               	movwf	_twoSecondTrigger& (0+255),b
  1449  0037AC                     
  1450                           ; BSR set to: 0
  1451                           ;/home/dev-user/Projects/Personal/PIC/PIC18Test1.X/main.c: 44:             updateDispVal
      +                          Hex(sys_time,4);
  1452  0037AC  C0B3  F011         	movff	_sys_time,updateDispValHex@newVal	;volatile
  1453  0037B0  C0B4  F012         	movff	_sys_time+1,updateDispValHex@newVal+1	;volatile
  1454  0037B4  0E04               	movlw	4
  1455  0037B6  6E13               	movwf	updateDispValHex@newDP^0,c
  1456  0037B8  EC7C  F016         	call	_updateDispValHex	;wreg free
  1457  0037BC                     
  1458                           ;/home/dev-user/Projects/Personal/PIC/PIC18Test1.X/main.c: 45:             sprintf(msg_b
      +                          uff,"System Time: %lu",sys_time);
  1459  0037BC  0E80               	movlw	low main@msg_buff
  1460  0037BE  0100               	movlb	0	; () banked
  1461  0037C0  6F9D               	movwf	sprintf@s& (0+255),b
  1462  0037C2  0E02               	movlw	high main@msg_buff
  1463  0037C4  6F9E               	movwf	(sprintf@s+1)& (0+255),b
  1464  0037C6  0E5E               	movlw	low STR_3
  1465  0037C8  6F9F               	movwf	sprintf@fmt& (0+255),b
  1466  0037CA  0E20               	movlw	high STR_3
  1467  0037CC  6FA0               	movwf	(sprintf@fmt+1)& (0+255),b
  1468  0037CE  C0B3  F0A1         	movff	_sys_time,?_sprintf+4	;volatile
  1469  0037D2  C0B4  F0A2         	movff	_sys_time+1,?_sprintf+5	;volatile
  1470  0037D6  C0B5  F0A3         	movff	_sys_time+2,?_sprintf+6	;volatile
  1471  0037DA  C0B6  F0A4         	movff	_sys_time+3,?_sprintf+7	;volatile
  1472  0037DE  ECC4  F025         	call	_sprintf	;wreg free
  1473  0037E2                     
  1474                           ;/home/dev-user/Projects/Personal/PIC/PIC18Test1.X/main.c: 46:             uart1_tx_str_
      +                          crlf(msg_buff);
  1475  0037E2  0E80               	movlw	low main@msg_buff
  1476  0037E4  6E23               	movwf	uart1_tx_str_crlf@in_bytes^0,c
  1477  0037E6  0E02               	movlw	high main@msg_buff
  1478  0037E8  6E24               	movwf	(uart1_tx_str_crlf@in_bytes+1)^0,c
  1479  0037EA  EC9C  F024         	call	_uart1_tx_str_crlf	;wreg free
  1480  0037EE                     l6629:
  1481                           
  1482                           ;/home/dev-user/Projects/Personal/PIC/PIC18Test1.X/main.c: 49:         if(uart1_rx_msg_p
      +                          resent){
  1483  0037EE  0100               	movlb	0	; () banked
  1484  0037F0  51C6               	movf	_uart1_rx_msg_present& (0+255),w,b
  1485  0037F2  B4D8               	btfsc	status,2,c
  1486  0037F4  EFFE  F01B         	goto	u6611
  1487  0037F8  EF00  F01C         	goto	u6610
  1488  0037FC                     u6611:
  1489  0037FC  EF81  F01B         	goto	l187
  1490  003800                     u6610:
  1491  003800                     
  1492                           ; BSR set to: 0
  1493                           ;/home/dev-user/Projects/Personal/PIC/PIC18Test1.X/main.c: 50:             uart1_tx_str_
      +                          crlf(uart1_rx_buff_use);
  1494  003800  0E40               	movlw	low _uart1_rx_buff_use
  1495  003802  6E23               	movwf	uart1_tx_str_crlf@in_bytes^0,c
  1496  003804  0E02               	movlw	high _uart1_rx_buff_use
  1497  003806  6E24               	movwf	(uart1_tx_str_crlf@in_bytes+1)^0,c
  1498  003808  EC9C  F024         	call	_uart1_tx_str_crlf	;wreg free
  1499  00380C                     
  1500                           ;/home/dev-user/Projects/Personal/PIC/PIC18Test1.X/main.c: 51:             uart1_rx_msg_
      +                          present = 0;
  1501  00380C  0E00               	movlw	0
  1502  00380E  0100               	movlb	0	; () banked
  1503  003810  6FC6               	movwf	_uart1_rx_msg_present& (0+255),b
  1504  003812  EF81  F01B         	goto	l187
  1505  003816                     l186:
  1506  003816  EF57  F000         	goto	start
  1507  00381A                     __end_of_main:
  1508                           	callstack 0
  1509                           
  1510 ;; *************** function _updateDispValHex *****************
  1511 ;; Defined at:
  1512 ;;		line 112 in file "/home/dev-user/Projects/Personal/PIC/LibOutputDevices.X/disp_7seg4dig.c"
  1513 ;; Parameters:    Size  Location     Type
  1514 ;;  newVal          2   16[COMRAM] unsigned short 
  1515 ;;  newDP           1   18[COMRAM] unsigned char 
  1516 ;; Auto vars:     Size  Location     Type
  1517 ;;  tmpVal          2   26[COMRAM] unsigned short 
  1518 ;;  dig_2_on        1   25[COMRAM] _Bool 
  1519 ;;  dig_1_on        1   24[COMRAM] _Bool 
  1520 ;;  dig_3_on        1   23[COMRAM] _Bool 
  1521 ;;  dig_0_on        1   22[COMRAM] _Bool 
  1522 ;; Return value:  Size  Location     Type
  1523 ;;                  1    wreg      enum E16361
  1524 ;; Registers used:
  1525 ;;		wreg, fsr2l, fsr2h, status,2, status,0
  1526 ;; Tracked objects:
  1527 ;;		On entry : 0/0
  1528 ;;		On exit  : 0/0
  1529 ;;		Unchanged: 0/0
  1530 ;; Data sizes:     COMRAM   BANK0   BANK1   BANK2   BANK3   BANK4   BANK5   BANK6   BANK7   BANK8   BANK9  BANK10  BANK1
      +1  BANK12  BANK13  BANK14  BANK15  BANK16  BANK17  BANK18  BANK19  BANK20  BANK21  BANK22  BANK23  BANK24  BANK25  BANK2
      +6  BANK27  BANK28  BANK29  BANK30  BANK31
  1531 ;;      Params:         3       0       0       0       0       0       0       0       0       0       0       0       
      +0       0       0       0       0       0       0       0       0       0       0       0       0       0       0       
      +0       0       0       0       0       0
  1532 ;;      Locals:         6       0       0       0       0       0       0       0       0       0       0       0       
      +0       0       0       0       0       0       0       0       0       0       0       0       0       0       0       
      +0       0       0       0       0       0
  1533 ;;      Temps:          3       0       0       0       0       0       0       0       0       0       0       0       
      +0       0       0       0       0       0       0       0       0       0       0       0       0       0       0       
      +0       0       0       0       0       0
  1534 ;;      Totals:        12       0       0       0       0       0       0       0       0       0       0       0       
      +0       0       0       0       0       0       0       0       0       0       0       0       0       0       0       
      +0       0       0       0       0       0
  1535 ;;Total ram usage:       12 bytes
  1536 ;; Hardware stack levels used:    1
  1537 ;; Hardware stack levels required when called:    3
  1538 ;; This function calls:
  1539 ;;		Nothing
  1540 ;; This function is called by:
  1541 ;;		_main
  1542 ;; This function uses a non-reentrant model
  1543 ;;
  1544                           
  1545                           	psect	text1
  1546  002CF8                     __ptext1:
  1547                           	callstack 0
  1548  002CF8                     _updateDispValHex:
  1549                           	callstack 27
  1550  002CF8                     
  1551                           ;/home/dev-user/Projects/Personal/PIC/LibOutputDevices.X/disp_7seg4dig.c: 112: STATUS_T 
      +                          updateDispValHex(uint16_t newVal, uint8_t newDP);/home/dev-user/Projects/Personal/PIC/Li
      +                          bOutputDevices.X/disp_7seg4dig.c: 113: {;/home/dev-user/Projects/Personal/PIC/LibOutputD
      +                          evices.X/disp_7seg4dig.c: 114:     _Bool dig_0_on = 0;
  1552  002CF8  0E00               	movlw	0
  1553  002CFA  6E17               	movwf	updateDispValHex@dig_0_on^0,c
  1554                           
  1555                           ;/home/dev-user/Projects/Personal/PIC/LibOutputDevices.X/disp_7seg4dig.c: 115:     _Bool
      +                           dig_1_on = 0;
  1556  002CFC  0E00               	movlw	0
  1557  002CFE  6E19               	movwf	updateDispValHex@dig_1_on^0,c
  1558                           
  1559                           ;/home/dev-user/Projects/Personal/PIC/LibOutputDevices.X/disp_7seg4dig.c: 116:     _Bool
      +                           dig_2_on = 0;
  1560  002D00  0E00               	movlw	0
  1561  002D02  6E1A               	movwf	updateDispValHex@dig_2_on^0,c
  1562                           
  1563                           ;/home/dev-user/Projects/Personal/PIC/LibOutputDevices.X/disp_7seg4dig.c: 117:     _Bool
      +                           dig_3_on = 0;
  1564  002D04  0E00               	movlw	0
  1565  002D06  6E18               	movwf	updateDispValHex@dig_3_on^0,c
  1566                           
  1567                           ;/home/dev-user/Projects/Personal/PIC/LibOutputDevices.X/disp_7seg4dig.c: 119:     uint1
      +                          6_t tmpVal = newVal >> 12;
  1568  002D08  3812               	swapf	(updateDispValHex@newVal+1)^0,w,c
  1569  002D0A  0B0F               	andlw	15
  1570  002D0C  6E1B               	movwf	updateDispValHex@tmpVal^0,c
  1571  002D0E  6A1C               	clrf	(updateDispValHex@tmpVal+1)^0,c
  1572  002D10                     
  1573                           ;/home/dev-user/Projects/Personal/PIC/LibOutputDevices.X/disp_7seg4dig.c: 120:     if(tm
      +                          pVal > 0){
  1574  002D10  501B               	movf	updateDispValHex@tmpVal^0,w,c
  1575  002D12  101C               	iorwf	(updateDispValHex@tmpVal+1)^0,w,c
  1576  002D14  B4D8               	btfsc	status,2,c
  1577  002D16  EF8F  F016         	goto	u6371
  1578  002D1A  EF91  F016         	goto	u6370
  1579  002D1E                     u6371:
  1580  002D1E  EF9D  F016         	goto	l6495
  1581  002D22                     u6370:
  1582  002D22                     
  1583                           ;/home/dev-user/Projects/Personal/PIC/LibOutputDevices.X/disp_7seg4dig.c: 121:         d
      +                          ig_disp_val[3] = dispChars[tmpVal];
  1584  002D22  0ECA               	movlw	low _dispChars
  1585  002D24  241B               	addwf	updateDispValHex@tmpVal^0,w,c
  1586  002D26  6ED9               	movwf	fsr2l,c
  1587  002D28  0E01               	movlw	high _dispChars
  1588  002D2A  201C               	addwfc	(updateDispValHex@tmpVal+1)^0,w,c
  1589  002D2C  6EDA               	movwf	fsr2h,c
  1590  002D2E  50DF               	movf	indf2,w,c
  1591  002D30  6E41               	movwf	(_dig_disp_val+3)^0,c
  1592  002D32                     l6493:
  1593                           
  1594                           ;/home/dev-user/Projects/Personal/PIC/LibOutputDevices.X/disp_7seg4dig.c: 122:         d
      +                          ig_3_on = 1;
  1595  002D32  0E01               	movlw	1
  1596  002D34  6E18               	movwf	updateDispValHex@dig_3_on^0,c
  1597                           
  1598                           ;/home/dev-user/Projects/Personal/PIC/LibOutputDevices.X/disp_7seg4dig.c: 123:     } els
      +                          e if (newDP == 3) {
  1599  002D36  EFAB  F016         	goto	l6501
  1600  002D3A                     l6495:
  1601  002D3A  0E03               	movlw	3
  1602  002D3C  1813               	xorwf	updateDispValHex@newDP^0,w,c
  1603  002D3E  A4D8               	btfss	status,2,c
  1604  002D40  EFA4  F016         	goto	u6381
  1605  002D44  EFA6  F016         	goto	u6380
  1606  002D48                     u6381:
  1607  002D48  EFAA  F016         	goto	l635
  1608  002D4C                     u6380:
  1609  002D4C                     
  1610                           ;/home/dev-user/Projects/Personal/PIC/LibOutputDevices.X/disp_7seg4dig.c: 124:         d
      +                          ig_disp_val[3] = dispChars[0];
  1611  002D4C  C1CA  F041         	movff	_dispChars,_dig_disp_val+3
  1612  002D50  EF99  F016         	goto	l6493
  1613  002D54                     l635:
  1614                           
  1615                           ;/home/dev-user/Projects/Personal/PIC/LibOutputDevices.X/disp_7seg4dig.c: 127:         d
      +                          ig_disp_val[3] = 0xFF;
  1616  002D54  6841               	setf	(_dig_disp_val+3)^0,c
  1617  002D56                     l6501:
  1618                           
  1619                           ;/home/dev-user/Projects/Personal/PIC/LibOutputDevices.X/disp_7seg4dig.c: 129:     if(di
      +                          g_3_on && newDP == 3)
  1620  002D56  5018               	movf	updateDispValHex@dig_3_on^0,w,c
  1621  002D58  B4D8               	btfsc	status,2,c
  1622  002D5A  EFB1  F016         	goto	u6391
  1623  002D5E  EFB3  F016         	goto	u6390
  1624  002D62                     u6391:
  1625  002D62  EFBD  F016         	goto	l6507
  1626  002D66                     u6390:
  1627  002D66  0E03               	movlw	3
  1628  002D68  1813               	xorwf	updateDispValHex@newDP^0,w,c
  1629  002D6A  A4D8               	btfss	status,2,c
  1630  002D6C  EFBA  F016         	goto	u6401
  1631  002D70  EFBC  F016         	goto	u6400
  1632  002D74                     u6401:
  1633  002D74  EFBD  F016         	goto	l6507
  1634  002D78                     u6400:
  1635  002D78                     
  1636                           ;/home/dev-user/Projects/Personal/PIC/LibOutputDevices.X/disp_7seg4dig.c: 130:         d
      +                          ig_disp_val[3] &= 0x7F;;
  1637  002D78  9E41               	bcf	(_dig_disp_val+3)^0,7,c
  1638  002D7A                     l6507:
  1639                           
  1640                           ;/home/dev-user/Projects/Personal/PIC/LibOutputDevices.X/disp_7seg4dig.c: 131:     newVa
      +                          l = newVal - (tmpVal << 12);
  1641  002D7A  C01B  F014         	movff	updateDispValHex@tmpVal,??_updateDispValHex
  1642  002D7E  C01C  F015         	movff	updateDispValHex@tmpVal+1,??_updateDispValHex+1
  1643  002D82  0E0C               	movlw	12
  1644  002D84                     u6415:
  1645  002D84  90D8               	bcf	status,0,c
  1646  002D86  3614               	rlcf	??_updateDispValHex^0,f,c
  1647  002D88  3615               	rlcf	(??_updateDispValHex+1)^0,f,c
  1648  002D8A  2EE8               	decfsz	wreg,f,c
  1649  002D8C  EFC2  F016         	goto	u6415
  1650  002D90  5014               	movf	??_updateDispValHex^0,w,c
  1651  002D92  5C11               	subwf	updateDispValHex@newVal^0,w,c
  1652  002D94  6E11               	movwf	updateDispValHex@newVal^0,c
  1653  002D96  5015               	movf	(??_updateDispValHex+1)^0,w,c
  1654  002D98  5812               	subwfb	(updateDispValHex@newVal+1)^0,w,c
  1655  002D9A  6E12               	movwf	(updateDispValHex@newVal+1)^0,c
  1656  002D9C                     
  1657                           ;/home/dev-user/Projects/Personal/PIC/LibOutputDevices.X/disp_7seg4dig.c: 133:     tmpVa
      +                          l = newVal >> 8;
  1658  002D9C  5012               	movf	(updateDispValHex@newVal+1)^0,w,c
  1659  002D9E  6E1B               	movwf	updateDispValHex@tmpVal^0,c
  1660  002DA0  6A1C               	clrf	(updateDispValHex@tmpVal+1)^0,c
  1661  002DA2                     
  1662                           ;/home/dev-user/Projects/Personal/PIC/LibOutputDevices.X/disp_7seg4dig.c: 134:     if(tm
      +                          pVal > 0){
  1663  002DA2  501B               	movf	updateDispValHex@tmpVal^0,w,c
  1664  002DA4  101C               	iorwf	(updateDispValHex@tmpVal+1)^0,w,c
  1665  002DA6  B4D8               	btfsc	status,2,c
  1666  002DA8  EFD8  F016         	goto	u6421
  1667  002DAC  EFDA  F016         	goto	u6420
  1668  002DB0                     u6421:
  1669  002DB0  EFE6  F016         	goto	l6517
  1670  002DB4                     u6420:
  1671  002DB4                     
  1672                           ;/home/dev-user/Projects/Personal/PIC/LibOutputDevices.X/disp_7seg4dig.c: 135:         d
      +                          ig_disp_val[2] = dispChars[tmpVal];
  1673  002DB4  0ECA               	movlw	low _dispChars
  1674  002DB6  241B               	addwf	updateDispValHex@tmpVal^0,w,c
  1675  002DB8  6ED9               	movwf	fsr2l,c
  1676  002DBA  0E01               	movlw	high _dispChars
  1677  002DBC  201C               	addwfc	(updateDispValHex@tmpVal+1)^0,w,c
  1678  002DBE  6EDA               	movwf	fsr2h,c
  1679  002DC0  50DF               	movf	indf2,w,c
  1680  002DC2  6E40               	movwf	(_dig_disp_val+2)^0,c
  1681  002DC4                     l6515:
  1682                           
  1683                           ;/home/dev-user/Projects/Personal/PIC/LibOutputDevices.X/disp_7seg4dig.c: 136:         d
      +                          ig_2_on = 1;
  1684  002DC4  0E01               	movlw	1
  1685  002DC6  6E1A               	movwf	updateDispValHex@dig_2_on^0,c
  1686                           
  1687                           ;/home/dev-user/Projects/Personal/PIC/LibOutputDevices.X/disp_7seg4dig.c: 137:     } els
      +                          e {
  1688  002DC8  EFFE  F016         	goto	l6529
  1689  002DCC                     l6517:
  1690                           
  1691                           ;/home/dev-user/Projects/Personal/PIC/LibOutputDevices.X/disp_7seg4dig.c: 138:         i
      +                          f(dig_3_on){
  1692  002DCC  5018               	movf	updateDispValHex@dig_3_on^0,w,c
  1693  002DCE  B4D8               	btfsc	status,2,c
  1694  002DD0  EFEC  F016         	goto	u6431
  1695  002DD4  EFEE  F016         	goto	u6430
  1696  002DD8                     u6431:
  1697  002DD8  EFF2  F016         	goto	l6523
  1698  002DDC                     u6430:
  1699  002DDC                     l6519:
  1700                           
  1701                           ;/home/dev-user/Projects/Personal/PIC/LibOutputDevices.X/disp_7seg4dig.c: 139:          
      +                             dig_disp_val[2] = dispChars[0];
  1702  002DDC  C1CA  F040         	movff	_dispChars,_dig_disp_val+2
  1703  002DE0  EFE2  F016         	goto	l6515
  1704  002DE4                     l6523:
  1705  002DE4  0E02               	movlw	2
  1706  002DE6  1813               	xorwf	updateDispValHex@newDP^0,w,c
  1707  002DE8  A4D8               	btfss	status,2,c
  1708  002DEA  EFF9  F016         	goto	u6441
  1709  002DEE  EFFB  F016         	goto	u6440
  1710  002DF2                     u6441:
  1711  002DF2  EFFD  F016         	goto	l642
  1712  002DF6                     u6440:
  1713  002DF6  EFEE  F016         	goto	l6519
  1714  002DFA                     l642:
  1715                           
  1716                           ;/home/dev-user/Projects/Personal/PIC/LibOutputDevices.X/disp_7seg4dig.c: 145:          
      +                             dig_disp_val[2] = 0xFF;
  1717  002DFA  6840               	setf	(_dig_disp_val+2)^0,c
  1718  002DFC                     l6529:
  1719                           
  1720                           ;/home/dev-user/Projects/Personal/PIC/LibOutputDevices.X/disp_7seg4dig.c: 148:     if(di
      +                          g_2_on && newDP == 2)
  1721  002DFC  501A               	movf	updateDispValHex@dig_2_on^0,w,c
  1722  002DFE  B4D8               	btfsc	status,2,c
  1723  002E00  EF04  F017         	goto	u6451
  1724  002E04  EF06  F017         	goto	u6450
  1725  002E08                     u6451:
  1726  002E08  EF10  F017         	goto	l6535
  1727  002E0C                     u6450:
  1728  002E0C  0E02               	movlw	2
  1729  002E0E  1813               	xorwf	updateDispValHex@newDP^0,w,c
  1730  002E10  A4D8               	btfss	status,2,c
  1731  002E12  EF0D  F017         	goto	u6461
  1732  002E16  EF0F  F017         	goto	u6460
  1733  002E1A                     u6461:
  1734  002E1A  EF10  F017         	goto	l6535
  1735  002E1E                     u6460:
  1736  002E1E                     
  1737                           ;/home/dev-user/Projects/Personal/PIC/LibOutputDevices.X/disp_7seg4dig.c: 149:         d
      +                          ig_disp_val[2] &= 0x7F;;
  1738  002E1E  9E40               	bcf	(_dig_disp_val+2)^0,7,c
  1739  002E20                     l6535:
  1740                           
  1741                           ;/home/dev-user/Projects/Personal/PIC/LibOutputDevices.X/disp_7seg4dig.c: 150:     newVa
      +                          l = newVal - (tmpVal << 8);
  1742  002E20  501B               	movf	updateDispValHex@tmpVal^0,w,c
  1743  002E22  6E15               	movwf	(??_updateDispValHex+1)^0,c
  1744  002E24  6A14               	clrf	??_updateDispValHex^0,c
  1745  002E26  5014               	movf	??_updateDispValHex^0,w,c
  1746  002E28  5C11               	subwf	updateDispValHex@newVal^0,w,c
  1747  002E2A  6E11               	movwf	updateDispValHex@newVal^0,c
  1748  002E2C  5015               	movf	(??_updateDispValHex+1)^0,w,c
  1749  002E2E  5812               	subwfb	(updateDispValHex@newVal+1)^0,w,c
  1750  002E30  6E12               	movwf	(updateDispValHex@newVal+1)^0,c
  1751  002E32                     
  1752                           ;/home/dev-user/Projects/Personal/PIC/LibOutputDevices.X/disp_7seg4dig.c: 152:     tmpVa
      +                          l = newVal >> 4;
  1753  002E32  C011  F014         	movff	updateDispValHex@newVal,??_updateDispValHex
  1754  002E36  C012  F015         	movff	updateDispValHex@newVal+1,??_updateDispValHex+1
  1755  002E3A  0E04               	movlw	4
  1756  002E3C  6E16               	movwf	(??_updateDispValHex+2)^0,c
  1757  002E3E                     u6475:
  1758  002E3E  90D8               	bcf	status,0,c
  1759  002E40  3215               	rrcf	(??_updateDispValHex+1)^0,f,c
  1760  002E42  3214               	rrcf	??_updateDispValHex^0,f,c
  1761  002E44  2E16               	decfsz	(??_updateDispValHex+2)^0,f,c
  1762  002E46  EF1F  F017         	goto	u6475
  1763  002E4A  C014  F01B         	movff	??_updateDispValHex,updateDispValHex@tmpVal
  1764  002E4E  C015  F01C         	movff	??_updateDispValHex+1,updateDispValHex@tmpVal+1
  1765  002E52                     
  1766                           ;/home/dev-user/Projects/Personal/PIC/LibOutputDevices.X/disp_7seg4dig.c: 153:     if(tm
      +                          pVal > 0){
  1767  002E52  501B               	movf	updateDispValHex@tmpVal^0,w,c
  1768  002E54  101C               	iorwf	(updateDispValHex@tmpVal+1)^0,w,c
  1769  002E56  B4D8               	btfsc	status,2,c
  1770  002E58  EF30  F017         	goto	u6481
  1771  002E5C  EF32  F017         	goto	u6480
  1772  002E60                     u6481:
  1773  002E60  EF3E  F017         	goto	l6545
  1774  002E64                     u6480:
  1775  002E64                     
  1776                           ;/home/dev-user/Projects/Personal/PIC/LibOutputDevices.X/disp_7seg4dig.c: 154:         d
      +                          ig_disp_val[1] = dispChars[tmpVal];
  1777  002E64  0ECA               	movlw	low _dispChars
  1778  002E66  241B               	addwf	updateDispValHex@tmpVal^0,w,c
  1779  002E68  6ED9               	movwf	fsr2l,c
  1780  002E6A  0E01               	movlw	high _dispChars
  1781  002E6C  201C               	addwfc	(updateDispValHex@tmpVal+1)^0,w,c
  1782  002E6E  6EDA               	movwf	fsr2h,c
  1783  002E70  50DF               	movf	indf2,w,c
  1784  002E72  6E3F               	movwf	(_dig_disp_val+1)^0,c
  1785  002E74                     l6543:
  1786                           
  1787                           ;/home/dev-user/Projects/Personal/PIC/LibOutputDevices.X/disp_7seg4dig.c: 155:         d
      +                          ig_1_on = 1;
  1788  002E74  0E01               	movlw	1
  1789  002E76  6E19               	movwf	updateDispValHex@dig_1_on^0,c
  1790                           
  1791                           ;/home/dev-user/Projects/Personal/PIC/LibOutputDevices.X/disp_7seg4dig.c: 156:     } els
      +                          e {
  1792  002E78  EF55  F017         	goto	l6557
  1793  002E7C                     l6545:
  1794                           
  1795                           ;/home/dev-user/Projects/Personal/PIC/LibOutputDevices.X/disp_7seg4dig.c: 157:         i
      +                          f(dig_2_on){
  1796  002E7C  501A               	movf	updateDispValHex@dig_2_on^0,w,c
  1797  002E7E  B4D8               	btfsc	status,2,c
  1798  002E80  EF44  F017         	goto	u6491
  1799  002E84  EF46  F017         	goto	u6490
  1800  002E88                     u6491:
  1801  002E88  EF4A  F017         	goto	l6551
  1802  002E8C                     u6490:
  1803  002E8C                     l6547:
  1804                           
  1805                           ;/home/dev-user/Projects/Personal/PIC/LibOutputDevices.X/disp_7seg4dig.c: 158:          
      +                             dig_disp_val[1] = dispChars[0];
  1806  002E8C  C1CA  F03F         	movff	_dispChars,_dig_disp_val+1
  1807  002E90  EF3A  F017         	goto	l6543
  1808  002E94                     l6551:
  1809  002E94  0413               	decf	updateDispValHex@newDP^0,w,c
  1810  002E96  A4D8               	btfss	status,2,c
  1811  002E98  EF50  F017         	goto	u6501
  1812  002E9C  EF52  F017         	goto	u6500
  1813  002EA0                     u6501:
  1814  002EA0  EF54  F017         	goto	l649
  1815  002EA4                     u6500:
  1816  002EA4  EF46  F017         	goto	l6547
  1817  002EA8                     l649:
  1818                           
  1819                           ;/home/dev-user/Projects/Personal/PIC/LibOutputDevices.X/disp_7seg4dig.c: 164:          
      +                             dig_disp_val[1] = 0xFF;
  1820  002EA8  683F               	setf	(_dig_disp_val+1)^0,c
  1821  002EAA                     l6557:
  1822                           
  1823                           ;/home/dev-user/Projects/Personal/PIC/LibOutputDevices.X/disp_7seg4dig.c: 167:     if(di
      +                          g_1_on && newDP == 1)
  1824  002EAA  5019               	movf	updateDispValHex@dig_1_on^0,w,c
  1825  002EAC  B4D8               	btfsc	status,2,c
  1826  002EAE  EF5B  F017         	goto	u6511
  1827  002EB2  EF5D  F017         	goto	u6510
  1828  002EB6                     u6511:
  1829  002EB6  EF66  F017         	goto	l6563
  1830  002EBA                     u6510:
  1831  002EBA  0413               	decf	updateDispValHex@newDP^0,w,c
  1832  002EBC  A4D8               	btfss	status,2,c
  1833  002EBE  EF63  F017         	goto	u6521
  1834  002EC2  EF65  F017         	goto	u6520
  1835  002EC6                     u6521:
  1836  002EC6  EF66  F017         	goto	l6563
  1837  002ECA                     u6520:
  1838  002ECA                     
  1839                           ;/home/dev-user/Projects/Personal/PIC/LibOutputDevices.X/disp_7seg4dig.c: 168:         d
      +                          ig_disp_val[1] &= 0x7F;;
  1840  002ECA  9E3F               	bcf	(_dig_disp_val+1)^0,7,c
  1841  002ECC                     l6563:
  1842                           
  1843                           ;/home/dev-user/Projects/Personal/PIC/LibOutputDevices.X/disp_7seg4dig.c: 169:     newVa
      +                          l = newVal - (tmpVal << 4);
  1844  002ECC  C01B  F014         	movff	updateDispValHex@tmpVal,??_updateDispValHex
  1845  002ED0  C01C  F015         	movff	updateDispValHex@tmpVal+1,??_updateDispValHex+1
  1846  002ED4  3A14               	swapf	??_updateDispValHex^0,f,c
  1847  002ED6  3A15               	swapf	(??_updateDispValHex+1)^0,f,c
  1848  002ED8  0EF0               	movlw	240
  1849  002EDA  1615               	andwf	(??_updateDispValHex+1)^0,f,c
  1850  002EDC  5014               	movf	??_updateDispValHex^0,w,c
  1851  002EDE  0B0F               	andlw	15
  1852  002EE0  1215               	iorwf	(??_updateDispValHex+1)^0,f,c
  1853  002EE2  0EF0               	movlw	240
  1854  002EE4  1614               	andwf	??_updateDispValHex^0,f,c
  1855  002EE6  5014               	movf	??_updateDispValHex^0,w,c
  1856  002EE8  5C11               	subwf	updateDispValHex@newVal^0,w,c
  1857  002EEA  6E11               	movwf	updateDispValHex@newVal^0,c
  1858  002EEC  5015               	movf	(??_updateDispValHex+1)^0,w,c
  1859  002EEE  5812               	subwfb	(updateDispValHex@newVal+1)^0,w,c
  1860  002EF0  6E12               	movwf	(updateDispValHex@newVal+1)^0,c
  1861  002EF2                     
  1862                           ;/home/dev-user/Projects/Personal/PIC/LibOutputDevices.X/disp_7seg4dig.c: 171:     tmpVa
      +                          l = newVal;
  1863  002EF2  C011  F01B         	movff	updateDispValHex@newVal,updateDispValHex@tmpVal
  1864  002EF6  C012  F01C         	movff	updateDispValHex@newVal+1,updateDispValHex@tmpVal+1
  1865  002EFA                     
  1866                           ;/home/dev-user/Projects/Personal/PIC/LibOutputDevices.X/disp_7seg4dig.c: 172:     if(tm
      +                          pVal > 0){
  1867  002EFA  501B               	movf	updateDispValHex@tmpVal^0,w,c
  1868  002EFC  101C               	iorwf	(updateDispValHex@tmpVal+1)^0,w,c
  1869  002EFE  B4D8               	btfsc	status,2,c
  1870  002F00  EF84  F017         	goto	u6531
  1871  002F04  EF86  F017         	goto	u6530
  1872  002F08                     u6531:
  1873  002F08  EF92  F017         	goto	l6573
  1874  002F0C                     u6530:
  1875  002F0C                     
  1876                           ;/home/dev-user/Projects/Personal/PIC/LibOutputDevices.X/disp_7seg4dig.c: 173:         d
      +                          ig_disp_val[0] = dispChars[tmpVal];
  1877  002F0C  0ECA               	movlw	low _dispChars
  1878  002F0E  241B               	addwf	updateDispValHex@tmpVal^0,w,c
  1879  002F10  6ED9               	movwf	fsr2l,c
  1880  002F12  0E01               	movlw	high _dispChars
  1881  002F14  201C               	addwfc	(updateDispValHex@tmpVal+1)^0,w,c
  1882  002F16  6EDA               	movwf	fsr2h,c
  1883  002F18  50DF               	movf	indf2,w,c
  1884  002F1A  6E3E               	movwf	_dig_disp_val^0,c
  1885  002F1C                     l6571:
  1886                           
  1887                           ;/home/dev-user/Projects/Personal/PIC/LibOutputDevices.X/disp_7seg4dig.c: 174:         d
      +                          ig_0_on = 1;
  1888  002F1C  0E01               	movlw	1
  1889  002F1E  6E17               	movwf	updateDispValHex@dig_0_on^0,c
  1890                           
  1891                           ;/home/dev-user/Projects/Personal/PIC/LibOutputDevices.X/disp_7seg4dig.c: 175:     } els
      +                          e {
  1892  002F20  EFA9  F017         	goto	l6585
  1893  002F24                     l6573:
  1894                           
  1895                           ;/home/dev-user/Projects/Personal/PIC/LibOutputDevices.X/disp_7seg4dig.c: 176:         i
      +                          f(dig_1_on){
  1896  002F24  5019               	movf	updateDispValHex@dig_1_on^0,w,c
  1897  002F26  B4D8               	btfsc	status,2,c
  1898  002F28  EF98  F017         	goto	u6541
  1899  002F2C  EF9A  F017         	goto	u6540
  1900  002F30                     u6541:
  1901  002F30  EF9E  F017         	goto	l6579
  1902  002F34                     u6540:
  1903  002F34                     l6575:
  1904                           
  1905                           ;/home/dev-user/Projects/Personal/PIC/LibOutputDevices.X/disp_7seg4dig.c: 177:          
      +                             dig_disp_val[0] = dispChars[0];
  1906  002F34  C1CA  F03E         	movff	_dispChars,_dig_disp_val
  1907  002F38  EF8E  F017         	goto	l6571
  1908  002F3C                     l6579:
  1909  002F3C  5013               	movf	updateDispValHex@newDP^0,w,c
  1910  002F3E  A4D8               	btfss	status,2,c
  1911  002F40  EFA4  F017         	goto	u6551
  1912  002F44  EFA6  F017         	goto	u6550
  1913  002F48                     u6551:
  1914  002F48  EFA8  F017         	goto	l656
  1915  002F4C                     u6550:
  1916  002F4C  EF9A  F017         	goto	l6575
  1917  002F50                     l656:
  1918                           
  1919                           ;/home/dev-user/Projects/Personal/PIC/LibOutputDevices.X/disp_7seg4dig.c: 183:          
      +                             dig_disp_val[0] = 0xFF;
  1920  002F50  683E               	setf	_dig_disp_val^0,c
  1921  002F52                     l6585:
  1922                           
  1923                           ;/home/dev-user/Projects/Personal/PIC/LibOutputDevices.X/disp_7seg4dig.c: 186:     if(di
      +                          g_0_on && newDP == 0)
  1924  002F52  5017               	movf	updateDispValHex@dig_0_on^0,w,c
  1925  002F54  B4D8               	btfsc	status,2,c
  1926  002F56  EFAF  F017         	goto	u6561
  1927  002F5A  EFB1  F017         	goto	u6560
  1928  002F5E                     u6561:
  1929  002F5E  EFBA  F017         	goto	l659
  1930  002F62                     u6560:
  1931  002F62  5013               	movf	updateDispValHex@newDP^0,w,c
  1932  002F64  A4D8               	btfss	status,2,c
  1933  002F66  EFB7  F017         	goto	u6571
  1934  002F6A  EFB9  F017         	goto	u6570
  1935  002F6E                     u6571:
  1936  002F6E  EFBA  F017         	goto	l659
  1937  002F72                     u6570:
  1938  002F72                     
  1939                           ;/home/dev-user/Projects/Personal/PIC/LibOutputDevices.X/disp_7seg4dig.c: 187:         d
      +                          ig_disp_val[0] &= 0x7F;;
  1940  002F72  9E3E               	bcf	_dig_disp_val^0,7,c
  1941  002F74                     l659:
  1942  002F74  0012               	return		;funcret
  1943  002F76                     __end_of_updateDispValHex:
  1944                           	callstack 0
  1945                           
  1946 ;; *************** function _uart1_tx_str_crlf *****************
  1947 ;; Defined at:
  1948 ;;		line 118 in file "/home/dev-user/Projects/Personal/PIC/LibPeripherals.X/uart.c"
  1949 ;; Parameters:    Size  Location     Type
  1950 ;;  in_bytes        2   34[COMRAM] PTR unsigned char 
  1951 ;;		 -> uart1_rx_buff_use(64), main@msg_buff(64), 
  1952 ;; Auto vars:     Size  Location     Type
  1953 ;;  new_buff       64    0[BANK0 ] unsigned char [64]
  1954 ;;  res             1    0        enum E16287
  1955 ;; Return value:  Size  Location     Type
  1956 ;;                  1    wreg      enum E16361
  1957 ;; Registers used:
  1958 ;;		wreg, fsr1l, fsr1h, fsr2l, fsr2h, status,2, status,0, tblptrl, tblptrh, tblptru, cstack
  1959 ;; Tracked objects:
  1960 ;;		On entry : 0/0
  1961 ;;		On exit  : 0/0
  1962 ;;		Unchanged: 0/0
  1963 ;; Data sizes:     COMRAM   BANK0   BANK1   BANK2   BANK3   BANK4   BANK5   BANK6   BANK7   BANK8   BANK9  BANK10  BANK1
      +1  BANK12  BANK13  BANK14  BANK15  BANK16  BANK17  BANK18  BANK19  BANK20  BANK21  BANK22  BANK23  BANK24  BANK25  BANK2
      +6  BANK27  BANK28  BANK29  BANK30  BANK31
  1964 ;;      Params:         2       0       0       0       0       0       0       0       0       0       0       0       
      +0       0       0       0       0       0       0       0       0       0       0       0       0       0       0       
      +0       0       0       0       0       0
  1965 ;;      Locals:         0      65       0       0       0       0       0       0       0       0       0       0       
      +0       0       0       0       0       0       0       0       0       0       0       0       0       0       0       
      +0       0       0       0       0       0
  1966 ;;      Temps:          0       0       0       0       0       0       0       0       0       0       0       0       
      +0       0       0       0       0       0       0       0       0       0       0       0       0       0       0       
      +0       0       0       0       0       0
  1967 ;;      Totals:         2      65       0       0       0       0       0       0       0       0       0       0       
      +0       0       0       0       0       0       0       0       0       0       0       0       0       0       0       
      +0       0       0       0       0       0
  1968 ;;Total ram usage:       67 bytes
  1969 ;; Hardware stack levels used:    1
  1970 ;; Hardware stack levels required when called:    5
  1971 ;; This function calls:
  1972 ;;		_strcat
  1973 ;;		_strcpy
  1974 ;;		_strlen
  1975 ;;		_uart1_tx_str
  1976 ;; This function is called by:
  1977 ;;		_main
  1978 ;; This function uses a non-reentrant model
  1979 ;;
  1980                           
  1981                           	psect	text2
  1982  004938                     __ptext2:
  1983                           	callstack 0
  1984  004938                     _uart1_tx_str_crlf:
  1985                           	callstack 25
  1986  004938                     
  1987                           ;/home/dev-user/Projects/Personal/PIC/LibPeripherals.X/uart.c: 122:     if(64 > (strlen(
      +                          in_bytes)+2)){
  1988  004938  C023  F011         	movff	uart1_tx_str_crlf@in_bytes,strlen@s
  1989  00493C  C024  F012         	movff	uart1_tx_str_crlf@in_bytes+1,strlen@s+1
  1990  004940  EC7A  F026         	call	_strlen	;wreg free
  1991  004944  0E02               	movlw	2
  1992  004946  2611               	addwf	?_strlen^0,f,c
  1993  004948  0E00               	movlw	0
  1994  00494A  2212               	addwfc	(?_strlen+1)^0,f,c
  1995  00494C  5012               	movf	(?_strlen+1)^0,w,c
  1996  00494E  E107               	bnz	u6361
  1997  004950  0E40               	movlw	64
  1998  004952  5C11               	subwf	?_strlen^0,w,c
  1999  004954  B0D8               	btfsc	status,0,c
  2000  004956  EFAF  F024         	goto	u6361
  2001  00495A  EFB1  F024         	goto	u6360
  2002  00495E                     u6361:
  2003  00495E  EFCD  F024         	goto	l6473
  2004  004962                     u6360:
  2005  004962                     
  2006                           ;/home/dev-user/Projects/Personal/PIC/LibPeripherals.X/uart.c: 123:         char new_buf
      +                          f[64];;/home/dev-user/Projects/Personal/PIC/LibPeripherals.X/uart.c: 124:         strcpy
      +                          (new_buff,in_bytes);
  2007  004962  0E60               	movlw	low uart1_tx_str_crlf@new_buff
  2008  004964  6E15               	movwf	strcpy@dest^0,c
  2009  004966  0E00               	movlw	high uart1_tx_str_crlf@new_buff
  2010  004968  6E16               	movwf	(strcpy@dest+1)^0,c
  2011  00496A  C023  F017         	movff	uart1_tx_str_crlf@in_bytes,strcpy@src
  2012  00496E  C024  F018         	movff	uart1_tx_str_crlf@in_bytes+1,strcpy@src+1
  2013  004972  ECD4  F024         	call	_strcpy	;wreg free
  2014                           
  2015                           ;/home/dev-user/Projects/Personal/PIC/LibPeripherals.X/uart.c: 125:         strcat(new_b
      +                          uff,"\n\r");
  2016  004976  0E60               	movlw	low uart1_tx_str_crlf@new_buff
  2017  004978  6E1F               	movwf	strcat@dest^0,c
  2018  00497A  0E00               	movlw	high uart1_tx_str_crlf@new_buff
  2019  00497C  6E20               	movwf	(strcat@dest+1)^0,c
  2020  00497E  0E75               	movlw	low STR_4
  2021  004980  6E21               	movwf	strcat@src^0,c
  2022  004982  0E20               	movlw	high STR_4
  2023  004984  6E22               	movwf	(strcat@src+1)^0,c
  2024  004986  EC48  F027         	call	_strcat	;wreg free
  2025  00498A                     
  2026                           ;/home/dev-user/Projects/Personal/PIC/LibPeripherals.X/uart.c: 127:         return uart1
      +                          _tx_str(new_buff);;	Return value of _uart1_tx_str_crlf is never used
  2027  00498A  0E60               	movlw	low uart1_tx_str_crlf@new_buff
  2028  00498C  6E15               	movwf	uart1_tx_str@in_bytes^0,c
  2029  00498E  0E00               	movlw	high uart1_tx_str_crlf@new_buff
  2030  004990  6E16               	movwf	(uart1_tx_str@in_bytes+1)^0,c
  2031  004992  EC0D  F01C         	call	_uart1_tx_str	;wreg free
  2032  004996  EFD3  F024         	goto	l576
  2033  00499A                     l6473:
  2034                           
  2035                           ;/home/dev-user/Projects/Personal/PIC/LibPeripherals.X/uart.c: 130:     return uart1_tx_
      +                          str(in_bytes);;	Return value of _uart1_tx_str_crlf is never used
  2036  00499A  C023  F015         	movff	uart1_tx_str_crlf@in_bytes,uart1_tx_str@in_bytes
  2037  00499E  C024  F016         	movff	uart1_tx_str_crlf@in_bytes+1,uart1_tx_str@in_bytes+1
  2038  0049A2  EC0D  F01C         	call	_uart1_tx_str	;wreg free
  2039  0049A6                     l576:
  2040  0049A6  0012               	return		;funcret
  2041  0049A8                     __end_of_uart1_tx_str_crlf:
  2042                           	callstack 0
  2043                           
  2044 ;; *************** function _uart1_tx_str *****************
  2045 ;; Defined at:
  2046 ;;		line 91 in file "/home/dev-user/Projects/Personal/PIC/LibPeripherals.X/uart.c"
  2047 ;; Parameters:    Size  Location     Type
  2048 ;;  in_bytes        2   20[COMRAM] PTR unsigned char 
  2049 ;;		 -> uart1_tx_str_crlf@new_buff(64), uart1_rx_buff_use(64), main@msg_buff(64), 
  2050 ;; Auto vars:     Size  Location     Type
  2051 ;;  i               1   24[COMRAM] unsigned char 
  2052 ;; Return value:  Size  Location     Type
  2053 ;;                  1    wreg      enum E16287
  2054 ;; Registers used:
  2055 ;;		wreg, fsr1l, fsr1h, fsr2l, fsr2h, status,2, status,0, cstack
  2056 ;; Tracked objects:
  2057 ;;		On entry : 0/0
  2058 ;;		On exit  : 0/0
  2059 ;;		Unchanged: 0/0
  2060 ;; Data sizes:     COMRAM   BANK0   BANK1   BANK2   BANK3   BANK4   BANK5   BANK6   BANK7   BANK8   BANK9  BANK10  BANK1
      +1  BANK12  BANK13  BANK14  BANK15  BANK16  BANK17  BANK18  BANK19  BANK20  BANK21  BANK22  BANK23  BANK24  BANK25  BANK2
      +6  BANK27  BANK28  BANK29  BANK30  BANK31
  2061 ;;      Params:         2       0       0       0       0       0       0       0       0       0       0       0       
      +0       0       0       0       0       0       0       0       0       0       0       0       0       0       0       
      +0       0       0       0       0       0
  2062 ;;      Locals:         1       0       0       0       0       0       0       0       0       0       0       0       
      +0       0       0       0       0       0       0       0       0       0       0       0       0       0       0       
      +0       0       0       0       0       0
  2063 ;;      Temps:          2       0       0       0       0       0       0       0       0       0       0       0       
      +0       0       0       0       0       0       0       0       0       0       0       0       0       0       0       
      +0       0       0       0       0       0
  2064 ;;      Totals:         5       0       0       0       0       0       0       0       0       0       0       0       
      +0       0       0       0       0       0       0       0       0       0       0       0       0       0       0       
      +0       0       0       0       0       0
  2065 ;;Total ram usage:        5 bytes
  2066 ;; Hardware stack levels used:    1
  2067 ;; Hardware stack levels required when called:    4
  2068 ;; This function calls:
  2069 ;;		_strlen
  2070 ;; This function is called by:
  2071 ;;		_uart1_tx_str_crlf
  2072 ;; This function uses a non-reentrant model
  2073 ;;
  2074                           
  2075                           	psect	text3
  2076  00381A                     __ptext3:
  2077                           	callstack 0
  2078  00381A                     _uart1_tx_str:
  2079                           	callstack 25
  2080  00381A                     
  2081                           ;/home/dev-user/Projects/Personal/PIC/LibPeripherals.X/uart.c: 91: STATUS_T uart1_tx_str
      +                          (char * in_bytes);/home/dev-user/Projects/Personal/PIC/LibPeripherals.X/uart.c: 92: {;/h
      +                          ome/dev-user/Projects/Personal/PIC/LibPeripherals.X/uart.c: 93:     U1TXIE = 0;
  2082  00381A  0139               	movlb	57	; () banked
  2083  00381C  9993               	bcf	147,4,b	;volatile
  2084                           
  2085                           ;/home/dev-user/Projects/Personal/PIC/LibPeripherals.X/uart.c: 94:     U1TXEN = 0;
  2086  00381E  013D               	movlb	61	; () banked
  2087  003820  9BF2               	bcf	242,5,b	;volatile
  2088  003822                     
  2089                           ; BSR set to: 61
  2090                           ;/home/dev-user/Projects/Personal/PIC/LibPeripherals.X/uart.c: 95:     if((uart1_tx_buff
      +                          _tail != uart1_tx_buff_head) || !uart1_tx_buff_full){
  2091  003822  504E               	movf	_uart1_tx_buff_head^0,w,c
  2092  003824  184F               	xorwf	_uart1_tx_buff_tail^0,w,c
  2093  003826  A4D8               	btfss	status,2,c
  2094  003828  EF18  F01C         	goto	u6201
  2095  00382C  EF1A  F01C         	goto	u6200
  2096  003830                     u6201:
  2097  003830  EF22  F01C         	goto	l6355
  2098  003834                     u6200:
  2099  003834                     
  2100                           ; BSR set to: 61
  2101  003834  504D               	movf	_uart1_tx_buff_full^0,w,c
  2102  003836  A4D8               	btfss	status,2,c
  2103  003838  EF20  F01C         	goto	u6211
  2104  00383C  EF22  F01C         	goto	u6210
  2105  003840                     u6211:
  2106  003840  EF84  F01C         	goto	l6379
  2107  003844                     u6210:
  2108  003844                     l6355:
  2109                           
  2110                           ; BSR set to: 61
  2111                           ;/home/dev-user/Projects/Personal/PIC/LibPeripherals.X/uart.c: 96:         if(((uart1_tx
      +                          _buff_tail - uart1_tx_buff_head) >= strlen(in_bytes)) || ((uart1_tx_buff_head == uart1_t
      +                          x_buff_tail) && !uart1_tx_buff_full)){
  2112  003844  C015  F011         	movff	uart1_tx_str@in_bytes,strlen@s
  2113  003848  C016  F012         	movff	uart1_tx_str@in_bytes+1,strlen@s+1
  2114  00384C  EC7A  F026         	call	_strlen	;wreg free
  2115  003850  504E               	movf	_uart1_tx_buff_head^0,w,c
  2116  003852  C04F  F017         	movff	_uart1_tx_buff_tail,??_uart1_tx_str
  2117  003856  6A18               	clrf	(??_uart1_tx_str+1)^0,c
  2118  003858  5E17               	subwf	??_uart1_tx_str^0,f,c
  2119  00385A  0E00               	movlw	0
  2120  00385C  5A18               	subwfb	(??_uart1_tx_str+1)^0,f,c
  2121  00385E  5011               	movf	?_strlen^0,w,c
  2122  003860  5C17               	subwf	??_uart1_tx_str^0,w,c
  2123  003862  5012               	movf	(?_strlen+1)^0,w,c
  2124  003864  5818               	subwfb	(??_uart1_tx_str+1)^0,w,c
  2125  003866  B0D8               	btfsc	status,0,c
  2126  003868  EF38  F01C         	goto	u6221
  2127  00386C  EF3A  F01C         	goto	u6220
  2128  003870                     u6221:
  2129  003870  EF4B  F01C         	goto	l6361
  2130  003874                     u6220:
  2131  003874  504F               	movf	_uart1_tx_buff_tail^0,w,c
  2132  003876  184E               	xorwf	_uart1_tx_buff_head^0,w,c
  2133  003878  A4D8               	btfss	status,2,c
  2134  00387A  EF41  F01C         	goto	u6231
  2135  00387E  EF43  F01C         	goto	u6230
  2136  003882                     u6231:
  2137  003882  EF81  F01C         	goto	l6375
  2138  003886                     u6230:
  2139  003886  504D               	movf	_uart1_tx_buff_full^0,w,c
  2140  003888  A4D8               	btfss	status,2,c
  2141  00388A  EF49  F01C         	goto	u6241
  2142  00388E  EF4B  F01C         	goto	u6240
  2143  003892                     u6241:
  2144  003892  EF81  F01C         	goto	l6375
  2145  003896                     u6240:
  2146  003896                     l6361:
  2147                           
  2148                           ;/home/dev-user/Projects/Personal/PIC/LibPeripherals.X/uart.c: 97:             for(uint8
      +                          _t i = 0; i < strlen(in_bytes); i++){
  2149  003896  0E00               	movlw	0
  2150  003898  6E19               	movwf	uart1_tx_str@i^0,c
  2151  00389A  EF60  F01C         	goto	l6369
  2152  00389E                     l6363:
  2153                           
  2154                           ;/home/dev-user/Projects/Personal/PIC/LibPeripherals.X/uart.c: 98:                 uart1
      +                          _tx_buff[uart1_tx_buff_head++] = in_bytes[i];
  2155  00389E  5019               	movf	uart1_tx_str@i^0,w,c
  2156  0038A0  2415               	addwf	uart1_tx_str@in_bytes^0,w,c
  2157  0038A2  6ED9               	movwf	fsr2l,c
  2158  0038A4  0E00               	movlw	0
  2159  0038A6  2016               	addwfc	(uart1_tx_str@in_bytes+1)^0,w,c
  2160  0038A8  6EDA               	movwf	fsr2h,c
  2161  0038AA  0E00               	movlw	low _uart1_tx_buff
  2162  0038AC  244E               	addwf	_uart1_tx_buff_head^0,w,c
  2163  0038AE  6EE1               	movwf	fsr1l,c
  2164  0038B0  6AE2               	clrf	fsr1h,c
  2165  0038B2  0E03               	movlw	high _uart1_tx_buff
  2166  0038B4  22E2               	addwfc	fsr1h,f,c
  2167  0038B6  006F FF7F FFE7     	movff	indf2,indf1
  2168  0038BC  2A4E               	incf	_uart1_tx_buff_head^0,f,c
  2169  0038BE                     
  2170                           ;/home/dev-user/Projects/Personal/PIC/LibPeripherals.X/uart.c: 99:             }
  2171  0038BE  2A19               	incf	uart1_tx_str@i^0,f,c
  2172  0038C0                     l6369:
  2173  0038C0  C015  F011         	movff	uart1_tx_str@in_bytes,strlen@s
  2174  0038C4  C016  F012         	movff	uart1_tx_str@in_bytes+1,strlen@s+1
  2175  0038C8  EC7A  F026         	call	_strlen	;wreg free
  2176  0038CC  5019               	movf	uart1_tx_str@i^0,w,c
  2177  0038CE  6E17               	movwf	??_uart1_tx_str^0,c
  2178  0038D0  6A18               	clrf	(??_uart1_tx_str+1)^0,c
  2179  0038D2  5011               	movf	?_strlen^0,w,c
  2180  0038D4  5C17               	subwf	??_uart1_tx_str^0,w,c
  2181  0038D6  5012               	movf	(?_strlen+1)^0,w,c
  2182  0038D8  5818               	subwfb	(??_uart1_tx_str+1)^0,w,c
  2183  0038DA  A0D8               	btfss	status,0,c
  2184  0038DC  EF72  F01C         	goto	u6251
  2185  0038E0  EF74  F01C         	goto	u6250
  2186  0038E4                     u6251:
  2187  0038E4  EF4F  F01C         	goto	l6363
  2188  0038E8                     u6250:
  2189  0038E8                     
  2190                           ;/home/dev-user/Projects/Personal/PIC/LibPeripherals.X/uart.c: 100:             if(uart1
      +                          _tx_buff_head == uart1_tx_buff_tail){
  2191  0038E8  504F               	movf	_uart1_tx_buff_tail^0,w,c
  2192  0038EA  184E               	xorwf	_uart1_tx_buff_head^0,w,c
  2193  0038EC  A4D8               	btfss	status,2,c
  2194  0038EE  EF7B  F01C         	goto	u6261
  2195  0038F2  EF7D  F01C         	goto	u6260
  2196  0038F6                     u6261:
  2197  0038F6  EF84  F01C         	goto	l6379
  2198  0038FA                     u6260:
  2199  0038FA                     
  2200                           ;/home/dev-user/Projects/Personal/PIC/LibPeripherals.X/uart.c: 101:                 uart
      +                          1_tx_buff_full = 1;
  2201  0038FA  0E01               	movlw	1
  2202  0038FC  6E4D               	movwf	_uart1_tx_buff_full^0,c
  2203  0038FE  EF84  F01C         	goto	l6379
  2204  003902                     l6375:
  2205                           
  2206                           ;/home/dev-user/Projects/Personal/PIC/LibPeripherals.X/uart.c: 104:             return S
      +                          TAT_FAIL;
  2207  003902  0EFE               	movlw	254
  2208  003904  EF9A  F01C         	goto	l568
  2209  003908                     l6379:
  2210                           
  2211                           ;/home/dev-user/Projects/Personal/PIC/LibPeripherals.X/uart.c: 110:     if((uart1_tx_buf
      +                          f_head != uart1_tx_buff_tail) || (uart1_tx_buff_full)){
  2212  003908  504F               	movf	_uart1_tx_buff_tail^0,w,c
  2213  00390A  184E               	xorwf	_uart1_tx_buff_head^0,w,c
  2214  00390C  A4D8               	btfss	status,2,c
  2215  00390E  EF8B  F01C         	goto	u6271
  2216  003912  EF8D  F01C         	goto	u6270
  2217  003916                     u6271:
  2218  003916  EF95  F01C         	goto	l572
  2219  00391A                     u6270:
  2220  00391A  504D               	movf	_uart1_tx_buff_full^0,w,c
  2221  00391C  B4D8               	btfsc	status,2,c
  2222  00391E  EF93  F01C         	goto	u6281
  2223  003922  EF95  F01C         	goto	u6280
  2224  003926                     u6281:
  2225  003926  EF99  F01C         	goto	l6383
  2226  00392A                     u6280:
  2227  00392A                     l572:
  2228                           
  2229                           ;/home/dev-user/Projects/Personal/PIC/LibPeripherals.X/uart.c: 111:         U1TXIE = 1;
  2230  00392A  0139               	movlb	57	; () banked
  2231  00392C  8993               	bsf	147,4,b	;volatile
  2232                           
  2233                           ;/home/dev-user/Projects/Personal/PIC/LibPeripherals.X/uart.c: 112:         U1TXEN = 1;
  2234  00392E  013D               	movlb	61	; () banked
  2235  003930  8BF2               	bsf	242,5,b	;volatile
  2236  003932                     l6383:
  2237                           
  2238                           ;/home/dev-user/Projects/Personal/PIC/LibPeripherals.X/uart.c: 115:     return STAT_SUCC
      +                          ESS;
  2239  003932  0E00               	movlw	0
  2240  003934                     l568:
  2241  003934  0012               	return		;funcret
  2242  003936                     __end_of_uart1_tx_str:
  2243                           	callstack 0
  2244                           
  2245 ;; *************** function _strcat *****************
  2246 ;; Defined at:
  2247 ;;		line 3 in file "/opt/microchip/xc8/v2.30/pic/sources/c99/common/strcat.c"
  2248 ;; Parameters:    Size  Location     Type
  2249 ;;  dest            2   30[COMRAM] PTR unsigned char 
  2250 ;;		 -> uart1_tx_str_crlf@new_buff(64), 
  2251 ;;  src             2   32[COMRAM] PTR const unsigned char 
  2252 ;;		 -> STR_4(3), 
  2253 ;; Auto vars:     Size  Location     Type
  2254 ;;		None
  2255 ;; Return value:  Size  Location     Type
  2256 ;;                  2   30[COMRAM] PTR unsigned char 
  2257 ;; Registers used:
  2258 ;;		wreg, fsr1l, fsr1h, fsr2l, fsr2h, status,2, status,0, tblptrl, tblptrh, tblptru, cstack
  2259 ;; Tracked objects:
  2260 ;;		On entry : 0/0
  2261 ;;		On exit  : 0/0
  2262 ;;		Unchanged: 0/0
  2263 ;; Data sizes:     COMRAM   BANK0   BANK1   BANK2   BANK3   BANK4   BANK5   BANK6   BANK7   BANK8   BANK9  BANK10  BANK1
      +1  BANK12  BANK13  BANK14  BANK15  BANK16  BANK17  BANK18  BANK19  BANK20  BANK21  BANK22  BANK23  BANK24  BANK25  BANK2
      +6  BANK27  BANK28  BANK29  BANK30  BANK31
  2264 ;;      Params:         4       0       0       0       0       0       0       0       0       0       0       0       
      +0       0       0       0       0       0       0       0       0       0       0       0       0       0       0       
      +0       0       0       0       0       0
  2265 ;;      Locals:         0       0       0       0       0       0       0       0       0       0       0       0       
      +0       0       0       0       0       0       0       0       0       0       0       0       0       0       0       
      +0       0       0       0       0       0
  2266 ;;      Temps:          0       0       0       0       0       0       0       0       0       0       0       0       
      +0       0       0       0       0       0       0       0       0       0       0       0       0       0       0       
      +0       0       0       0       0       0
  2267 ;;      Totals:         4       0       0       0       0       0       0       0       0       0       0       0       
      +0       0       0       0       0       0       0       0       0       0       0       0       0       0       0       
      +0       0       0       0       0       0
  2268 ;;Total ram usage:        4 bytes
  2269 ;; Hardware stack levels used:    1
  2270 ;; Hardware stack levels required when called:    4
  2271 ;; This function calls:
  2272 ;;		_strcpy
  2273 ;;		_strlen
  2274 ;; This function is called by:
  2275 ;;		_uart1_tx_str_crlf
  2276 ;; This function uses a non-reentrant model
  2277 ;;
  2278                           
  2279                           	psect	text4
  2280  004E90                     __ptext4:
  2281                           	callstack 0
  2282  004E90                     _strcat:
  2283                           	callstack 25
  2284  004E90  C01F  F011         	movff	strcat@dest,strlen@s
  2285  004E94  C020  F012         	movff	strcat@dest+1,strlen@s+1
  2286  004E98  EC7A  F026         	call	_strlen	;wreg free
  2287  004E9C  5011               	movf	?_strlen^0,w,c
  2288  004E9E  241F               	addwf	strcat@dest^0,w,c
  2289  004EA0  6E15               	movwf	strcpy@dest^0,c
  2290  004EA2  5012               	movf	(?_strlen+1)^0,w,c
  2291  004EA4  2020               	addwfc	(strcat@dest+1)^0,w,c
  2292  004EA6  6E16               	movwf	(strcpy@dest+1)^0,c
  2293  004EA8  C021  F017         	movff	strcat@src,strcpy@src
  2294  004EAC  C022  F018         	movff	strcat@src+1,strcpy@src+1
  2295  004EB0  ECD4  F024         	call	_strcpy	;wreg free
  2296  004EB4  0012               	return		;funcret
  2297  004EB6                     __end_of_strcat:
  2298                           	callstack 0
  2299                           
  2300 ;; *************** function _strcpy *****************
  2301 ;; Defined at:
  2302 ;;		line 3 in file "/opt/microchip/xc8/v2.30/pic/sources/c99/common/strcpy.c"
  2303 ;; Parameters:    Size  Location     Type
  2304 ;;  dest            2   20[COMRAM] PTR unsigned char 
  2305 ;;		 -> uart1_tx_str_crlf@new_buff(64), 
  2306 ;;  src             2   22[COMRAM] PTR const unsigned char 
  2307 ;;		 -> STR_4(3), uart1_rx_buff_use(64), main@msg_buff(64), 
  2308 ;; Auto vars:     Size  Location     Type
  2309 ;;  d               2   28[COMRAM] PTR unsigned char 
  2310 ;;		 -> uart1_tx_str_crlf@new_buff(64), 
  2311 ;;  s               2   26[COMRAM] PTR const unsigned char 
  2312 ;;		 -> STR_4(3), uart1_rx_buff_use(64), main@msg_buff(64), 
  2313 ;; Return value:  Size  Location     Type
  2314 ;;                  2   20[COMRAM] PTR unsigned char 
  2315 ;; Registers used:
  2316 ;;		wreg, fsr1l, fsr1h, fsr2l, fsr2h, status,2, status,0, tblptrl, tblptrh, tblptru
  2317 ;; Tracked objects:
  2318 ;;		On entry : 0/0
  2319 ;;		On exit  : 0/0
  2320 ;;		Unchanged: 0/0
  2321 ;; Data sizes:     COMRAM   BANK0   BANK1   BANK2   BANK3   BANK4   BANK5   BANK6   BANK7   BANK8   BANK9  BANK10  BANK1
      +1  BANK12  BANK13  BANK14  BANK15  BANK16  BANK17  BANK18  BANK19  BANK20  BANK21  BANK22  BANK23  BANK24  BANK25  BANK2
      +6  BANK27  BANK28  BANK29  BANK30  BANK31
  2322 ;;      Params:         4       0       0       0       0       0       0       0       0       0       0       0       
      +0       0       0       0       0       0       0       0       0       0       0       0       0       0       0       
      +0       0       0       0       0       0
  2323 ;;      Locals:         4       0       0       0       0       0       0       0       0       0       0       0       
      +0       0       0       0       0       0       0       0       0       0       0       0       0       0       0       
      +0       0       0       0       0       0
  2324 ;;      Temps:          2       0       0       0       0       0       0       0       0       0       0       0       
      +0       0       0       0       0       0       0       0       0       0       0       0       0       0       0       
      +0       0       0       0       0       0
  2325 ;;      Totals:        10       0       0       0       0       0       0       0       0       0       0       0       
      +0       0       0       0       0       0       0       0       0       0       0       0       0       0       0       
      +0       0       0       0       0       0
  2326 ;;Total ram usage:       10 bytes
  2327 ;; Hardware stack levels used:    1
  2328 ;; Hardware stack levels required when called:    3
  2329 ;; This function calls:
  2330 ;;		Nothing
  2331 ;; This function is called by:
  2332 ;;		_uart1_tx_str_crlf
  2333 ;;		_strcat
  2334 ;; This function uses a non-reentrant model
  2335 ;;
  2336                           
  2337                           	psect	text5
  2338  0049A8                     __ptext5:
  2339                           	callstack 0
  2340  0049A8                     _strcpy:
  2341                           	callstack 26
  2342  0049A8  C017  F01B         	movff	strcpy@src,strcpy@s
  2343  0049AC  C018  F01C         	movff	strcpy@src+1,strcpy@s+1
  2344  0049B0  C015  F01D         	movff	strcpy@dest,strcpy@d
  2345  0049B4  C016  F01E         	movff	strcpy@dest+1,strcpy@d+1
  2346  0049B8                     l5867:
  2347  0049B8  501B               	movf	strcpy@s^0,w,c
  2348  0049BA  6E19               	movwf	??_strcpy^0,c
  2349  0049BC  501C               	movf	(strcpy@s+1)^0,w,c
  2350  0049BE  6E1A               	movwf	(??_strcpy+1)^0,c
  2351  0049C0  4A1B               	infsnz	strcpy@s^0,f,c
  2352  0049C2  2A1C               	incf	(strcpy@s+1)^0,f,c
  2353  0049C4  0060  F067  FFF6   	movff	??_strcpy,tblptrl
  2354  0049CA  0060  F06B  FFF7   	movff	??_strcpy+1,tblptrh
  2355  0049D0  0E00               	movlw	low (__smallconst shr (0+16))
  2356  0049D2  6EF8               	movwf	tblptru,c
  2357  0049D4  0060  F077  FFD9   	movff	strcpy@d,fsr2l
  2358  0049DA  0060  F07B  FFDA   	movff	strcpy@d+1,fsr2h
  2359  0049E0  4A1D               	infsnz	strcpy@d^0,f,c
  2360  0049E2  2A1E               	incf	(strcpy@d+1)^0,f,c
  2361  0049E4  0E1F               	movlw	(high __ramtop+-1)
  2362  0049E6  64F7               	cpfsgt	tblptrh,c
  2363  0049E8  D003               	bra	u5637
  2364  0049EA  0008               	tblrd		*
  2365  0049EC  50F5               	movf	tablat,w,c
  2366  0049EE  D007               	bra	u5630
  2367  0049F0                     u5637:
  2368  0049F0  006F FFDB FFE1     	movff	tblptrl,fsr1l
  2369  0049F6  006F FFDF FFE2     	movff	tblptrh,fsr1h
  2370  0049FC  50E7               	movf	indf1,w,c
  2371  0049FE                     u5630:
  2372  0049FE  6EDF               	movwf	indf2,c
  2373  004A00  50DF               	movf	indf2,w,c
  2374  004A02  A4D8               	btfss	status,2,c
  2375  004A04  EF06  F025         	goto	u5641
  2376  004A08  EF08  F025         	goto	u5640
  2377  004A0C                     u5641:
  2378  004A0C  EFDC  F024         	goto	l5867
  2379  004A10                     u5640:
  2380  004A10  0012               	return		;funcret
  2381  004A12                     __end_of_strcpy:
  2382                           	callstack 0
  2383                           
  2384 ;; *************** function _sprintf *****************
  2385 ;; Defined at:
  2386 ;;		line 9 in file "/opt/microchip/xc8/v2.30/pic/sources/c99/common/nf_sprintf.c"
  2387 ;; Parameters:    Size  Location     Type
  2388 ;;  s               2   61[BANK0 ] PTR unsigned char 
  2389 ;;		 -> main@msg_buff(64), 
  2390 ;;  fmt             2   63[BANK0 ] PTR const unsigned char 
  2391 ;;		 -> STR_3(17), STR_2(33), STR_1(60), 
  2392 ;; Auto vars:     Size  Location     Type
  2393 ;;  f               6   73[BANK0 ] struct _IO_FILE
  2394 ;;  ap              2   71[BANK0 ] PTR void [1]
  2395 ;;		 -> ?_sprintf(2), 
  2396 ;;  ret             2    0        int 
  2397 ;; Return value:  Size  Location     Type
  2398 ;;                  2   61[BANK0 ] int 
  2399 ;; Registers used:
  2400 ;;		wreg, fsr1l, fsr1h, fsr2l, fsr2h, status,2, status,0, tblptrl, tblptrh, tblptru, prodl, prodh, cstack
  2401 ;; Tracked objects:
  2402 ;;		On entry : 0/0
  2403 ;;		On exit  : 0/0
  2404 ;;		Unchanged: 0/0
  2405 ;; Data sizes:     COMRAM   BANK0   BANK1   BANK2   BANK3   BANK4   BANK5   BANK6   BANK7   BANK8   BANK9  BANK10  BANK1
      +1  BANK12  BANK13  BANK14  BANK15  BANK16  BANK17  BANK18  BANK19  BANK20  BANK21  BANK22  BANK23  BANK24  BANK25  BANK2
      +6  BANK27  BANK28  BANK29  BANK30  BANK31
  2406 ;;      Params:         0       8       0       0       0       0       0       0       0       0       0       0       
      +0       0       0       0       0       0       0       0       0       0       0       0       0       0       0       
      +0       0       0       0       0       0
  2407 ;;      Locals:         0      10       0       0       0       0       0       0       0       0       0       0       
      +0       0       0       0       0       0       0       0       0       0       0       0       0       0       0       
      +0       0       0       0       0       0
  2408 ;;      Temps:          0       0       0       0       0       0       0       0       0       0       0       0       
      +0       0       0       0       0       0       0       0       0       0       0       0       0       0       0       
      +0       0       0       0       0       0
  2409 ;;      Totals:         0      18       0       0       0       0       0       0       0       0       0       0       
      +0       0       0       0       0       0       0       0       0       0       0       0       0       0       0       
      +0       0       0       0       0       0
  2410 ;;Total ram usage:       18 bytes
  2411 ;; Hardware stack levels used:    1
  2412 ;; Hardware stack levels required when called:   10
  2413 ;; This function calls:
  2414 ;;		_vfprintf
  2415 ;; This function is called by:
  2416 ;;		_main
  2417 ;; This function uses a non-reentrant model
  2418 ;;
  2419                           
  2420                           	psect	text6
  2421  004B88                     __ptext6:
  2422                           	callstack 0
  2423  004B88                     _sprintf:
  2424                           	callstack 20
  2425  004B88  0EA1               	movlw	low (?_sprintf+4)
  2426  004B8A  0100               	movlb	0	; () banked
  2427  004B8C  6FA7               	movwf	sprintf@ap& (0+255),b
  2428  004B8E  0E00               	movlw	high (?_sprintf+4)
  2429  004B90  6FA8               	movwf	(sprintf@ap+1)& (0+255),b
  2430  004B92  C09D  F0A9         	movff	sprintf@s,sprintf@f
  2431  004B96  C09E  F0AA         	movff	sprintf@s+1,sprintf@f+1
  2432  004B9A                     
  2433                           ; BSR set to: 0
  2434  004B9A  0E00               	movlw	0
  2435  004B9C  6FAC               	movwf	(sprintf@f+3)& (0+255),b
  2436  004B9E  0E00               	movlw	0
  2437  004BA0  6FAB               	movwf	(sprintf@f+2)& (0+255),b
  2438  004BA2                     
  2439                           ; BSR set to: 0
  2440  004BA2  0E00               	movlw	0
  2441  004BA4  6FAE               	movwf	(sprintf@f+5)& (0+255),b
  2442  004BA6  0E00               	movlw	0
  2443  004BA8  6FAD               	movwf	(sprintf@f+4)& (0+255),b
  2444  004BAA                     
  2445                           ; BSR set to: 0
  2446  004BAA  0EA9               	movlw	low sprintf@f
  2447  004BAC  6F95               	movwf	vfprintf@fp& (0+255),b
  2448  004BAE  0E00               	movlw	high sprintf@f
  2449  004BB0  6F96               	movwf	(vfprintf@fp+1)& (0+255),b
  2450  004BB2  C09F  F097         	movff	sprintf@fmt,vfprintf@fmt
  2451  004BB6  C0A0  F098         	movff	sprintf@fmt+1,vfprintf@fmt+1
  2452  004BBA  0EA7               	movlw	low sprintf@ap
  2453  004BBC  6F99               	movwf	vfprintf@ap& (0+255),b
  2454  004BBE  0E00               	movlw	high sprintf@ap
  2455  004BC0  6F9A               	movwf	(vfprintf@ap+1)& (0+255),b
  2456  004BC2  EC63  F024         	call	_vfprintf	;wreg free
  2457  004BC6  0100               	movlb	0	; () banked
  2458  004BC8  51AB               	movf	(sprintf@f+2)& (0+255),w,b
  2459  004BCA  259D               	addwf	sprintf@s& (0+255),w,b
  2460  004BCC  6ED9               	movwf	fsr2l,c
  2461  004BCE  51AC               	movf	(sprintf@f+3)& (0+255),w,b
  2462  004BD0  219E               	addwfc	(sprintf@s+1)& (0+255),w,b
  2463  004BD2  6EDA               	movwf	fsr2h,c
  2464  004BD4  0E00               	movlw	0
  2465  004BD6  6EDF               	movwf	indf2,c
  2466  004BD8                     
  2467                           ; BSR set to: 0
  2468  004BD8  0012               	return		;funcret
  2469  004BDA                     __end_of_sprintf:
  2470                           	callstack 0
  2471                           
  2472 ;; *************** function _vfprintf *****************
  2473 ;; Defined at:
  2474 ;;		line 1390 in file "/opt/microchip/xc8/v2.30/pic/sources/c99/common/doprnt.c"
  2475 ;; Parameters:    Size  Location     Type
  2476 ;;  fp              2   53[BANK0 ] PTR struct _IO_FILE
  2477 ;;		 -> sprintf@f(6), 
  2478 ;;  fmt             2   55[BANK0 ] PTR const unsigned char 
  2479 ;;		 -> STR_3(17), STR_2(33), STR_1(60), 
  2480 ;;  ap              2   57[BANK0 ] PTR PTR void 
  2481 ;;		 -> sprintf@ap(2), 
  2482 ;; Auto vars:     Size  Location     Type
  2483 ;;  cfmt            2   59[BANK0 ] PTR unsigned char 
  2484 ;;		 -> STR_3(17), STR_2(33), STR_1(60), 
  2485 ;; Return value:  Size  Location     Type
  2486 ;;                  2   53[BANK0 ] int 
  2487 ;; Registers used:
  2488 ;;		wreg, fsr1l, fsr1h, fsr2l, fsr2h, status,2, status,0, tblptrl, tblptrh, tblptru, prodl, prodh, cstack
  2489 ;; Tracked objects:
  2490 ;;		On entry : 0/0
  2491 ;;		On exit  : 0/0
  2492 ;;		Unchanged: 0/0
  2493 ;; Data sizes:     COMRAM   BANK0   BANK1   BANK2   BANK3   BANK4   BANK5   BANK6   BANK7   BANK8   BANK9  BANK10  BANK1
      +1  BANK12  BANK13  BANK14  BANK15  BANK16  BANK17  BANK18  BANK19  BANK20  BANK21  BANK22  BANK23  BANK24  BANK25  BANK2
      +6  BANK27  BANK28  BANK29  BANK30  BANK31
  2494 ;;      Params:         0       6       0       0       0       0       0       0       0       0       0       0       
      +0       0       0       0       0       0       0       0       0       0       0       0       0       0       0       
      +0       0       0       0       0       0
  2495 ;;      Locals:         0       2       0       0       0       0       0       0       0       0       0       0       
      +0       0       0       0       0       0       0       0       0       0       0       0       0       0       0       
      +0       0       0       0       0       0
  2496 ;;      Temps:          0       0       0       0       0       0       0       0       0       0       0       0       
      +0       0       0       0       0       0       0       0       0       0       0       0       0       0       0       
      +0       0       0       0       0       0
  2497 ;;      Totals:         0       8       0       0       0       0       0       0       0       0       0       0       
      +0       0       0       0       0       0       0       0       0       0       0       0       0       0       0       
      +0       0       0       0       0       0
  2498 ;;Total ram usage:        8 bytes
  2499 ;; Hardware stack levels used:    1
  2500 ;; Hardware stack levels required when called:    9
  2501 ;; This function calls:
  2502 ;;		_vfpfcnvrt
  2503 ;; This function is called by:
  2504 ;;		_sprintf
  2505 ;; This function uses a non-reentrant model
  2506 ;;
  2507                           
  2508                           	psect	text7
  2509  0048C6                     __ptext7:
  2510                           	callstack 0
  2511  0048C6                     _vfprintf:
  2512                           	callstack 20
  2513  0048C6                     
  2514                           ;/opt/microchip/xc8/v2.30/pic/sources/c99/common/doprnt.c: 1390: int vfprintf(FILE *fp, 
      +                          const char *fmt, va_list ap);/opt/microchip/xc8/v2.30/pic/sources/c99/common/doprnt.c: 1
      +                          391: {;/opt/microchip/xc8/v2.30/pic/sources/c99/common/doprnt.c: 1393:     char *cfmt;;/
      +                          opt/microchip/xc8/v2.30/pic/sources/c99/common/doprnt.c: 1395:     cfmt = (char *)fmt;
  2515  0048C6  C097  F09B         	movff	vfprintf@fmt,vfprintf@cfmt
  2516  0048CA  C098  F09C         	movff	vfprintf@fmt+1,vfprintf@cfmt+1
  2517  0048CE                     
  2518                           ;/opt/microchip/xc8/v2.30/pic/sources/c99/common/doprnt.c: 1396:     nout = 0;
  2519  0048CE  0E00               	movlw	0
  2520  0048D0  0101               	movlb	1	; () banked
  2521  0048D2  6F8D               	movwf	(_nout+1)& (0+255),b
  2522  0048D4  0E00               	movlw	0
  2523  0048D6  6F8C               	movwf	_nout& (0+255),b
  2524                           
  2525                           ;/opt/microchip/xc8/v2.30/pic/sources/c99/common/doprnt.c: 1397:     while (*cfmt) {
  2526  0048D8  EF85  F024         	goto	l6397
  2527  0048DC                     l6395:
  2528                           
  2529                           ; BSR set to: 1
  2530                           ;/opt/microchip/xc8/v2.30/pic/sources/c99/common/doprnt.c: 1398:         nout += vfpfcnv
      +                          rt(fp, &cfmt, ap);
  2531  0048DC  C095  F07C         	movff	vfprintf@fp,vfpfcnvrt@fp
  2532  0048E0  C096  F07D         	movff	vfprintf@fp+1,vfpfcnvrt@fp+1
  2533  0048E4  0E9B               	movlw	low vfprintf@cfmt
  2534  0048E6  0100               	movlb	0	; () banked
  2535  0048E8  6F7E               	movwf	vfpfcnvrt@fmt& (0+255),b
  2536  0048EA  0E00               	movlw	high vfprintf@cfmt
  2537  0048EC  6F7F               	movwf	(vfpfcnvrt@fmt+1)& (0+255),b
  2538  0048EE  C099  F080         	movff	vfprintf@ap,vfpfcnvrt@ap
  2539  0048F2  C09A  F081         	movff	vfprintf@ap+1,vfpfcnvrt@ap+1
  2540  0048F6  EC3D  F010         	call	_vfpfcnvrt	;wreg free
  2541  0048FA  0100               	movlb	0	; () banked
  2542  0048FC  517C               	movf	?_vfpfcnvrt& (0+255),w,b
  2543  0048FE  0101               	movlb	1	; () banked
  2544  004900  278C               	addwf	_nout& (0+255),f,b
  2545  004902  0100               	movlb	0	; () banked
  2546  004904  517D               	movf	(?_vfpfcnvrt+1)& (0+255),w,b
  2547  004906  0101               	movlb	1	; () banked
  2548  004908  238D               	addwfc	(_nout+1)& (0+255),f,b
  2549  00490A                     l6397:
  2550                           
  2551                           ; BSR set to: 1
  2552                           ;/opt/microchip/xc8/v2.30/pic/sources/c99/common/doprnt.c: 1397:     while (*cfmt) {
  2553  00490A  0060  F26F  FFF6   	movff	vfprintf@cfmt,tblptrl
  2554  004910  0060  F273  FFF7   	movff	vfprintf@cfmt+1,tblptrh
  2555  004916                     	if	0	;tblptru may be non-zero
  2556  004916                     	endif
  2557  004916                     	if	1	;Program memory is > 0xFFFF, there are 3 active tblptr bytes
  2558  004916  0E00               	movlw	low (__mediumconst shr (0+16))
  2559  004918  6EF8               	movwf	tblptru,c
  2560  00491A                     	endif
  2561  00491A  0008               	tblrd		*
  2562  00491C  50F5               	movf	tablat,w,c
  2563  00491E  0900               	iorlw	0
  2564  004920  A4D8               	btfss	status,2,c
  2565  004922  EF95  F024         	goto	u6291
  2566  004926  EF97  F024         	goto	u6290
  2567  00492A                     u6291:
  2568  00492A  EF6E  F024         	goto	l6395
  2569  00492E                     u6290:
  2570  00492E                     
  2571                           ; BSR set to: 1
  2572                           ;/opt/microchip/xc8/v2.30/pic/sources/c99/common/doprnt.c: 1400:     return nout;
  2573  00492E  C18C  F095         	movff	_nout,?_vfprintf
  2574  004932  C18D  F096         	movff	_nout+1,?_vfprintf+1
  2575  004936                     
  2576                           ; BSR set to: 1
  2577  004936  0012               	return		;funcret
  2578  004938                     __end_of_vfprintf:
  2579                           	callstack 0
  2580                           
  2581 ;; *************** function _vfpfcnvrt *****************
  2582 ;; Defined at:
  2583 ;;		line 692 in file "/opt/microchip/xc8/v2.30/pic/sources/c99/common/doprnt.c"
  2584 ;; Parameters:    Size  Location     Type
  2585 ;;  fp              2   28[BANK0 ] PTR struct _IO_FILE
  2586 ;;		 -> sprintf@f(6), 
  2587 ;;  fmt             2   30[BANK0 ] PTR PTR unsigned char 
  2588 ;;		 -> vfprintf@cfmt(2), 
  2589 ;;  ap              2   32[BANK0 ] PTR PTR void 
  2590 ;;		 -> sprintf@ap(2), 
  2591 ;; Auto vars:     Size  Location     Type
  2592 ;;  llu             8   45[BANK0 ] unsigned long long 
  2593 ;;  ll              8    0        long long 
  2594 ;;  f               4    0        long long 
  2595 ;;  vp              3    0        PTR void 
  2596 ;;  ct              3    0        unsigned char [3]
  2597 ;;  cp              3    0        PTR unsigned char 
  2598 ;;  done            2   40[BANK0 ] int 
  2599 ;;  i               2    0        int 
  2600 ;;  c               1   44[BANK0 ] unsigned char 
  2601 ;; Return value:  Size  Location     Type
  2602 ;;                  2   28[BANK0 ] int 
  2603 ;; Registers used:
  2604 ;;		wreg, fsr1l, fsr1h, fsr2l, fsr2h, status,2, status,0, tblptrl, tblptrh, tblptru, prodl, prodh, cstack
  2605 ;; Tracked objects:
  2606 ;;		On entry : 0/0
  2607 ;;		On exit  : 0/0
  2608 ;;		Unchanged: 0/0
  2609 ;; Data sizes:     COMRAM   BANK0   BANK1   BANK2   BANK3   BANK4   BANK5   BANK6   BANK7   BANK8   BANK9  BANK10  BANK1
      +1  BANK12  BANK13  BANK14  BANK15  BANK16  BANK17  BANK18  BANK19  BANK20  BANK21  BANK22  BANK23  BANK24  BANK25  BANK2
      +6  BANK27  BANK28  BANK29  BANK30  BANK31
  2610 ;;      Params:         0       6       0       0       0       0       0       0       0       0       0       0       
      +0       0       0       0       0       0       0       0       0       0       0       0       0       0       0       
      +0       0       0       0       0       0
  2611 ;;      Locals:         0      13       0       0       0       0       0       0       0       0       0       0       
      +0       0       0       0       0       0       0       0       0       0       0       0       0       0       0       
      +0       0       0       0       0       0
  2612 ;;      Temps:          0       6       0       0       0       0       0       0       0       0       0       0       
      +0       0       0       0       0       0       0       0       0       0       0       0       0       0       0       
      +0       0       0       0       0       0
  2613 ;;      Totals:         0      25       0       0       0       0       0       0       0       0       0       0       
      +0       0       0       0       0       0       0       0       0       0       0       0       0       0       0       
      +0       0       0       0       0       0
  2614 ;;Total ram usage:       25 bytes
  2615 ;; Hardware stack levels used:    1
  2616 ;; Hardware stack levels required when called:    8
  2617 ;; This function calls:
  2618 ;;		_atoi
  2619 ;;		_fputc
  2620 ;;		_isdigit
  2621 ;;		_strncmp
  2622 ;;		_utoa
  2623 ;;		_xtoa
  2624 ;; This function is called by:
  2625 ;;		_vfprintf
  2626 ;; This function uses a non-reentrant model
  2627 ;;
  2628                           
  2629                           	psect	text8
  2630  00207A                     __ptext8:
  2631                           	callstack 0
  2632  00207A                     _vfpfcnvrt:
  2633                           	callstack 20
  2634  00207A                     
  2635                           ;/opt/microchip/xc8/v2.30/pic/sources/c99/common/doprnt.c: 692: static int vfpfcnvrt(FIL
      +                          E *fp, char *fmt[], va_list ap);/opt/microchip/xc8/v2.30/pic/sources/c99/common/doprnt.c
      +                          : 693: {;/opt/microchip/xc8/v2.30/pic/sources/c99/common/doprnt.c: 694:     char c, *cp,
      +                           ct[3];;/opt/microchip/xc8/v2.30/pic/sources/c99/common/doprnt.c: 695:     int done, i;;
      +                          /opt/microchip/xc8/v2.30/pic/sources/c99/common/doprnt.c: 696:     long long ll;;/opt/mi
      +                          crochip/xc8/v2.30/pic/sources/c99/common/doprnt.c: 697:     unsigned long long llu;
  2636  00207A  0060  F1FB  FFD9   	movff	vfpfcnvrt@fmt,fsr2l
  2637  002080  0060  F1FF  FFDA   	movff	vfpfcnvrt@fmt+1,fsr2h
  2638  002086  006F FF7B FFF6     	movff	postinc2,tblptrl
  2639  00208C  006F FF77 FFF7     	movff	postdec2,tblptrh
  2640  002092                     	if	0	;tblptru may be non-zero
  2641  002092                     	endif
  2642  002092                     	if	1	;Program memory is > 0xFFFF, there are 3 active tblptr bytes
  2643  002092  0E00               	movlw	low (__mediumconst shr (0+16))
  2644  002094  6EF8               	movwf	tblptru,c
  2645  002096                     	endif
  2646  002096  0008               	tblrd		*
  2647  002098  50F5               	movf	tablat,w,c
  2648  00209A  0A25               	xorlw	37
  2649  00209C  A4D8               	btfss	status,2,c
  2650  00209E  EF53  F010         	goto	u5921
  2651  0020A2  EF55  F010         	goto	u5920
  2652  0020A6                     u5921:
  2653  0020A6  EF8D  F013         	goto	l6181
  2654  0020AA                     u5920:
  2655  0020AA                     
  2656                           ;/opt/microchip/xc8/v2.30/pic/sources/c99/common/doprnt.c: 703:         ++*fmt;
  2657  0020AA  0060  F1FB  FFD9   	movff	vfpfcnvrt@fmt,fsr2l
  2658  0020B0  0060  F1FF  FFDA   	movff	vfpfcnvrt@fmt+1,fsr2h
  2659  0020B6  2ADE               	incf	postinc2,f,c
  2660  0020B8  0E00               	movlw	0
  2661  0020BA  22DD               	addwfc	postdec2,f,c
  2662  0020BC                     
  2663                           ;/opt/microchip/xc8/v2.30/pic/sources/c99/common/doprnt.c: 705:         flags = width = 
      +                          0;
  2664  0020BC  0E00               	movlw	0
  2665  0020BE  6E43               	movwf	(_width+1)^0,c
  2666  0020C0  0E00               	movlw	0
  2667  0020C2  6E42               	movwf	_width^0,c
  2668  0020C4  C042  F046         	movff	_width,_flags
  2669  0020C8  C043  F047         	movff	_width+1,_flags+1
  2670  0020CC                     
  2671                           ;/opt/microchip/xc8/v2.30/pic/sources/c99/common/doprnt.c: 706:         prec = -1;
  2672  0020CC  6844               	setf	_prec^0,c
  2673  0020CE  6845               	setf	(_prec+1)^0,c
  2674  0020D0                     
  2675                           ;/opt/microchip/xc8/v2.30/pic/sources/c99/common/doprnt.c: 710:         done = 0;
  2676  0020D0  0E00               	movlw	0
  2677  0020D2  0100               	movlb	0	; () banked
  2678  0020D4  6F89               	movwf	(vfpfcnvrt@done+1)& (0+255),b
  2679  0020D6  0E00               	movlw	0
  2680  0020D8  6F88               	movwf	vfpfcnvrt@done& (0+255),b
  2681                           
  2682                           ;/opt/microchip/xc8/v2.30/pic/sources/c99/common/doprnt.c: 711:         while (!done) {
  2683  0020DA  EFBD  F010         	goto	l6099
  2684  0020DE                     l6073:
  2685                           
  2686                           ; BSR set to: 0
  2687                           ;/opt/microchip/xc8/v2.30/pic/sources/c99/common/doprnt.c: 714:                     flag
      +                          s |= (1 << 0);
  2688  0020DE  8046               	bsf	_flags^0,0,c
  2689  0020E0                     l6075:
  2690                           
  2691                           ; BSR set to: 0
  2692                           ;/opt/microchip/xc8/v2.30/pic/sources/c99/common/doprnt.c: 715:                     ++*f
      +                          mt;
  2693  0020E0  0060  F1FB  FFD9   	movff	vfpfcnvrt@fmt,fsr2l
  2694  0020E6  0060  F1FF  FFDA   	movff	vfpfcnvrt@fmt+1,fsr2h
  2695  0020EC  2ADE               	incf	postinc2,f,c
  2696  0020EE  0E00               	movlw	0
  2697  0020F0  22DD               	addwfc	postdec2,f,c
  2698                           
  2699                           ;/opt/microchip/xc8/v2.30/pic/sources/c99/common/doprnt.c: 716:                     brea
      +                          k;
  2700  0020F2  EFBD  F010         	goto	l6099
  2701  0020F6                     l6077:
  2702                           
  2703                           ; BSR set to: 0
  2704                           ;/opt/microchip/xc8/v2.30/pic/sources/c99/common/doprnt.c: 718:                     flag
      +                          s |= (1 << 1);
  2705  0020F6  8246               	bsf	_flags^0,1,c
  2706  0020F8  EF70  F010         	goto	l6075
  2707  0020FC                     l6081:
  2708                           
  2709                           ; BSR set to: 0
  2710                           ;/opt/microchip/xc8/v2.30/pic/sources/c99/common/doprnt.c: 722:                     flag
      +                          s |= (1 << 2);
  2711  0020FC  8446               	bsf	_flags^0,2,c
  2712  0020FE  EF70  F010         	goto	l6075
  2713  002102                     l6085:
  2714                           
  2715                           ; BSR set to: 0
  2716                           ;/opt/microchip/xc8/v2.30/pic/sources/c99/common/doprnt.c: 726:                     flag
      +                          s |= (1 << 3);
  2717  002102  8646               	bsf	_flags^0,3,c
  2718  002104  EF70  F010         	goto	l6075
  2719  002108                     l6089:
  2720                           
  2721                           ; BSR set to: 0
  2722                           ;/opt/microchip/xc8/v2.30/pic/sources/c99/common/doprnt.c: 730:                     flag
      +                          s |= (1 << 4);
  2723  002108  8846               	bsf	_flags^0,4,c
  2724  00210A  EF70  F010         	goto	l6075
  2725  00210E                     l6093:
  2726                           
  2727                           ; BSR set to: 0
  2728                           ;/opt/microchip/xc8/v2.30/pic/sources/c99/common/doprnt.c: 734:                     done
      +                           = 1;
  2729  00210E  0E00               	movlw	0
  2730  002110  6F89               	movwf	(vfpfcnvrt@done+1)& (0+255),b
  2731  002112  0E01               	movlw	1
  2732  002114  6F88               	movwf	vfpfcnvrt@done& (0+255),b
  2733                           
  2734                           ;/opt/microchip/xc8/v2.30/pic/sources/c99/common/doprnt.c: 735:                     brea
      +                          k;
  2735  002116  EFBD  F010         	goto	l6099
  2736  00211A                     l6097:
  2737                           
  2738                           ; BSR set to: 0
  2739  00211A  0060  F1FB  FFD9   	movff	vfpfcnvrt@fmt,fsr2l
  2740  002120  0060  F1FF  FFDA   	movff	vfpfcnvrt@fmt+1,fsr2h
  2741  002126  006F FF7B FFF6     	movff	postinc2,tblptrl
  2742  00212C  006F FF77 FFF7     	movff	postdec2,tblptrh
  2743  002132                     	if	0	;tblptru may be non-zero
  2744  002132                     	endif
  2745  002132                     	if	1	;Program memory is > 0xFFFF, there are 3 active tblptr bytes
  2746  002132  0E00               	movlw	low (__mediumconst shr (0+16))
  2747  002134  6EF8               	movwf	tblptru,c
  2748  002136                     	endif
  2749  002136  0008               	tblrd		*
  2750  002138  50F5               	movf	tablat,w,c
  2751  00213A  6F82               	movwf	??_vfpfcnvrt& (0+255),b
  2752  00213C  6B83               	clrf	(??_vfpfcnvrt+1)& (0+255),b
  2753                           
  2754                           ; Switch on 2 bytes has been partitioned into a top level switch of size 1, and 1 sub-sw
      +                          itches
  2755                           ; Switch size 1, requested type "simple"
  2756                           ; Number of cases is 1, Range of values is 0 to 0
  2757                           ; switch strategies available:
  2758                           ; Name         Instructions Cycles
  2759                           ; simple_byte            4     3 (average)
  2760                           ;	Chosen strategy is simple_byte
  2761  00213E  5183               	movf	(??_vfpfcnvrt+1)& (0+255),w,b
  2762  002140  0A00               	xorlw	0	; case 0
  2763  002142  B4D8               	btfsc	status,2,c
  2764  002144  EFA6  F010         	goto	l6695
  2765  002148  EF87  F010         	goto	l6093
  2766  00214C                     l6695:
  2767                           
  2768                           ; BSR set to: 0
  2769                           ; Switch size 1, requested type "simple"
  2770                           ; Number of cases is 5, Range of values is 32 to 48
  2771                           ; switch strategies available:
  2772                           ; Name         Instructions Cycles
  2773                           ; simple_byte           16     9 (average)
  2774                           ;	Chosen strategy is simple_byte
  2775  00214C  5182               	movf	??_vfpfcnvrt& (0+255),w,b
  2776  00214E  0A20               	xorlw	32	; case 32
  2777  002150  B4D8               	btfsc	status,2,c
  2778  002152  EF81  F010         	goto	l6085
  2779  002156  0A03               	xorlw	3	; case 35
  2780  002158  B4D8               	btfsc	status,2,c
  2781  00215A  EF84  F010         	goto	l6089
  2782  00215E  0A08               	xorlw	8	; case 43
  2783  002160  B4D8               	btfsc	status,2,c
  2784  002162  EF7E  F010         	goto	l6081
  2785  002166  0A06               	xorlw	6	; case 45
  2786  002168  B4D8               	btfsc	status,2,c
  2787  00216A  EF6F  F010         	goto	l6073
  2788  00216E  0A1D               	xorlw	29	; case 48
  2789  002170  B4D8               	btfsc	status,2,c
  2790  002172  EF7B  F010         	goto	l6077
  2791  002176  EF87  F010         	goto	l6093
  2792  00217A                     l6099:
  2793                           
  2794                           ; BSR set to: 0
  2795                           ;/opt/microchip/xc8/v2.30/pic/sources/c99/common/doprnt.c: 711:         while (!done) {
  2796  00217A  5188               	movf	vfpfcnvrt@done& (0+255),w,b
  2797  00217C  1189               	iorwf	(vfpfcnvrt@done+1)& (0+255),w,b
  2798  00217E  B4D8               	btfsc	status,2,c
  2799  002180  EFC4  F010         	goto	u5931
  2800  002184  EFC6  F010         	goto	u5930
  2801  002188                     u5931:
  2802  002188  EF8D  F010         	goto	l6097
  2803  00218C                     u5930:
  2804  00218C                     
  2805                           ; BSR set to: 0
  2806                           ;/opt/microchip/xc8/v2.30/pic/sources/c99/common/doprnt.c: 738:         if (flags & (1 <
      +                          < 0)) {
  2807  00218C  A046               	btfss	_flags^0,0,c
  2808  00218E  EFCB  F010         	goto	u5941
  2809  002192  EFCD  F010         	goto	u5940
  2810  002196                     u5941:
  2811  002196  EFCE  F010         	goto	l6103
  2812  00219A                     u5940:
  2813  00219A                     
  2814                           ; BSR set to: 0
  2815                           ;/opt/microchip/xc8/v2.30/pic/sources/c99/common/doprnt.c: 739:             flags &= ~(1
      +                           << 1);
  2816  00219A  9246               	bcf	_flags^0,1,c
  2817  00219C                     l6103:
  2818                           
  2819                           ; BSR set to: 0
  2820                           ;/opt/microchip/xc8/v2.30/pic/sources/c99/common/doprnt.c: 745:         if ((*fmt)[0] ==
      +                           '*') {
  2821  00219C  0060  F1FB  FFD9   	movff	vfpfcnvrt@fmt,fsr2l
  2822  0021A2  0060  F1FF  FFDA   	movff	vfpfcnvrt@fmt+1,fsr2h
  2823  0021A8  006F FF7B FFF6     	movff	postinc2,tblptrl
  2824  0021AE  006F FF77 FFF7     	movff	postdec2,tblptrh
  2825  0021B4                     	if	0	;tblptru may be non-zero
  2826  0021B4                     	endif
  2827  0021B4                     	if	1	;Program memory is > 0xFFFF, there are 3 active tblptr bytes
  2828  0021B4  0E00               	movlw	low (__mediumconst shr (0+16))
  2829  0021B6  6EF8               	movwf	tblptru,c
  2830  0021B8                     	endif
  2831  0021B8  0008               	tblrd		*
  2832  0021BA  50F5               	movf	tablat,w,c
  2833  0021BC  0A2A               	xorlw	42
  2834  0021BE  A4D8               	btfss	status,2,c
  2835  0021C0  EFE4  F010         	goto	u5951
  2836  0021C4  EFE6  F010         	goto	u5950
  2837  0021C8                     u5951:
  2838  0021C8  EF19  F011         	goto	l6111
  2839  0021CC                     u5950:
  2840  0021CC                     
  2841                           ; BSR set to: 0
  2842                           ;/opt/microchip/xc8/v2.30/pic/sources/c99/common/doprnt.c: 746:             ++*fmt;
  2843  0021CC  0060  F1FB  FFD9   	movff	vfpfcnvrt@fmt,fsr2l
  2844  0021D2  0060  F1FF  FFDA   	movff	vfpfcnvrt@fmt+1,fsr2h
  2845  0021D8  2ADE               	incf	postinc2,f,c
  2846  0021DA  0E00               	movlw	0
  2847  0021DC  22DD               	addwfc	postdec2,f,c
  2848                           
  2849                           ;/opt/microchip/xc8/v2.30/pic/sources/c99/common/doprnt.c: 747:             width = (*(i
      +                          nt *)__va_arg(*(int **)ap, (int)0));
  2850  0021DE  0060  F203  FFD9   	movff	vfpfcnvrt@ap,fsr2l
  2851  0021E4  0060  F207  FFDA   	movff	vfpfcnvrt@ap+1,fsr2h
  2852  0021EA  006F FF7C  F082    	movff	indf2,??_vfpfcnvrt
  2853  0021F0  0E02               	movlw	2
  2854  0021F2  26DE               	addwf	postinc2,f,c
  2855  0021F4  006F FF7C  F083    	movff	indf2,??_vfpfcnvrt+1
  2856  0021FA  0E00               	movlw	0
  2857  0021FC  22DD               	addwfc	postdec2,f,c
  2858  0021FE  0060  F20B  FFD9   	movff	??_vfpfcnvrt,fsr2l
  2859  002204  0060  F20F  FFDA   	movff	??_vfpfcnvrt+1,fsr2h
  2860  00220A  006F FF78  F042    	movff	postinc2,_width
  2861  002210  006F FF74  F043    	movff	postdec2,_width+1
  2862  002216                     
  2863                           ; BSR set to: 0
  2864                           ;/opt/microchip/xc8/v2.30/pic/sources/c99/common/doprnt.c: 748:             if (width < 
      +                          0) {
  2865  002216  BE43               	btfsc	(_width+1)^0,7,c
  2866  002218  EF12  F011         	goto	u5960
  2867  00221C  EF10  F011         	goto	u5961
  2868  002220                     u5961:
  2869  002220  EF69  F011         	goto	l6121
  2870  002224                     u5960:
  2871  002224                     
  2872                           ; BSR set to: 0
  2873                           ;/opt/microchip/xc8/v2.30/pic/sources/c99/common/doprnt.c: 749:                 flags |=
      +                           (1 << 0);
  2874  002224  8046               	bsf	_flags^0,0,c
  2875                           
  2876                           ;/opt/microchip/xc8/v2.30/pic/sources/c99/common/doprnt.c: 750:                 width = 
      +                          -width;
  2877  002226  6C42               	negf	_width^0,c
  2878  002228  1E43               	comf	(_width+1)^0,f,c
  2879  00222A  B0D8               	btfsc	status,0,c
  2880  00222C  2A43               	incf	(_width+1)^0,f,c
  2881  00222E  EF69  F011         	goto	l6121
  2882  002232                     l6111:
  2883                           
  2884                           ; BSR set to: 0
  2885                           ;/opt/microchip/xc8/v2.30/pic/sources/c99/common/doprnt.c: 753:             width = atoi
      +                          (*fmt);
  2886  002232  0060  F1FB  FFD9   	movff	vfpfcnvrt@fmt,fsr2l
  2887  002238  0060  F1FF  FFDA   	movff	vfpfcnvrt@fmt+1,fsr2h
  2888  00223E  006F FF78  F018    	movff	postinc2,atoi@s
  2889  002244  006F FF74  F019    	movff	postdec2,atoi@s+1
  2890  00224A  ECBF  F019         	call	_atoi	;wreg free
  2891  00224E  C018  F042         	movff	?_atoi,_width
  2892  002252  C019  F043         	movff	?_atoi+1,_width+1
  2893                           
  2894                           ;/opt/microchip/xc8/v2.30/pic/sources/c99/common/doprnt.c: 754:             while ((0 ? 
      +                          isdigit((*fmt)[0]) : ((unsigned)((*fmt)[0])-'0') < 10)) {
  2895  002256  EF36  F011         	goto	l6115
  2896  00225A                     l6113:
  2897                           
  2898                           ; BSR set to: 0
  2899                           ;/opt/microchip/xc8/v2.30/pic/sources/c99/common/doprnt.c: 755:                 ++*fmt;
  2900  00225A  0060  F1FB  FFD9   	movff	vfpfcnvrt@fmt,fsr2l
  2901  002260  0060  F1FF  FFDA   	movff	vfpfcnvrt@fmt+1,fsr2h
  2902  002266  2ADE               	incf	postinc2,f,c
  2903  002268  0E00               	movlw	0
  2904  00226A  22DD               	addwfc	postdec2,f,c
  2905  00226C                     l6115:
  2906  00226C  0ED0               	movlw	208
  2907  00226E  0100               	movlb	0	; () banked
  2908  002270  6F82               	movwf	??_vfpfcnvrt& (0+255),b
  2909  002272  0EFF               	movlw	255
  2910  002274  6F83               	movwf	(??_vfpfcnvrt+1)& (0+255),b
  2911  002276  0060  F1FB  FFD9   	movff	vfpfcnvrt@fmt,fsr2l
  2912  00227C  0060  F1FF  FFDA   	movff	vfpfcnvrt@fmt+1,fsr2h
  2913  002282  006F FF7B FFF6     	movff	postinc2,tblptrl
  2914  002288  006F FF77 FFF7     	movff	postdec2,tblptrh
  2915  00228E                     	if	0	;tblptru may be non-zero
  2916  00228E                     	endif
  2917  00228E                     	if	1	;Program memory is > 0xFFFF, there are 3 active tblptr bytes
  2918  00228E  0E00               	movlw	low (__mediumconst shr (0+16))
  2919  002290  6EF8               	movwf	tblptru,c
  2920  002292                     	endif
  2921  002292  0008               	tblrd		*
  2922  002294  50F5               	movf	tablat,w,c
  2923  002296  6F84               	movwf	(??_vfpfcnvrt+2)& (0+255),b
  2924  002298  6B85               	clrf	(??_vfpfcnvrt+3)& (0+255),b
  2925  00229A  5182               	movf	??_vfpfcnvrt& (0+255),w,b
  2926  00229C  2784               	addwf	(??_vfpfcnvrt+2)& (0+255),f,b
  2927  00229E  5183               	movf	(??_vfpfcnvrt+1)& (0+255),w,b
  2928  0022A0  2385               	addwfc	(??_vfpfcnvrt+3)& (0+255),f,b
  2929  0022A2  5185               	movf	(??_vfpfcnvrt+3)& (0+255),w,b
  2930  0022A4  E10A               	bnz	u5970
  2931  0022A6  0E0A               	movlw	10
  2932  0022A8  5D84               	subwf	(??_vfpfcnvrt+2)& (0+255),w,b
  2933  0022AA  A0D8               	btfss	status,0,c
  2934  0022AC  EF5A  F011         	goto	u5971
  2935  0022B0  EF5D  F011         	goto	u5970
  2936  0022B4                     u5971:
  2937  0022B4  0E01               	movlw	1
  2938  0022B6  EF5E  F011         	goto	u5980
  2939  0022BA                     u5970:
  2940  0022BA  0E00               	movlw	0
  2941  0022BC                     u5980:
  2942  0022BC  6F8A               	movwf	_vfpfcnvrt$3551& (0+255),b
  2943  0022BE  6B8B               	clrf	(_vfpfcnvrt$3551+1)& (0+255),b
  2944  0022C0                     
  2945                           ; BSR set to: 0
  2946  0022C0  518A               	movf	_vfpfcnvrt$3551& (0+255),w,b
  2947  0022C2  118B               	iorwf	(_vfpfcnvrt$3551+1)& (0+255),w,b
  2948  0022C4  A4D8               	btfss	status,2,c
  2949  0022C6  EF67  F011         	goto	u5991
  2950  0022CA  EF69  F011         	goto	u5990
  2951  0022CE                     u5991:
  2952  0022CE  EF2D  F011         	goto	l6113
  2953  0022D2                     u5990:
  2954  0022D2                     l6121:
  2955                           
  2956                           ; BSR set to: 0
  2957                           ;/opt/microchip/xc8/v2.30/pic/sources/c99/common/doprnt.c: 1204:         if (*fmt[0] == 
      +                          'u') {
  2958  0022D2  0060  F1FB  FFD9   	movff	vfpfcnvrt@fmt,fsr2l
  2959  0022D8  0060  F1FF  FFDA   	movff	vfpfcnvrt@fmt+1,fsr2h
  2960  0022DE  006F FF7B FFF6     	movff	postinc2,tblptrl
  2961  0022E4  006F FF77 FFF7     	movff	postdec2,tblptrh
  2962  0022EA                     	if	0	;tblptru may be non-zero
  2963  0022EA                     	endif
  2964  0022EA                     	if	1	;Program memory is > 0xFFFF, there are 3 active tblptr bytes
  2965  0022EA  0E00               	movlw	low (__mediumconst shr (0+16))
  2966  0022EC  6EF8               	movwf	tblptru,c
  2967  0022EE                     	endif
  2968  0022EE  0008               	tblrd		*
  2969  0022F0  50F5               	movf	tablat,w,c
  2970  0022F2  0A75               	xorlw	117
  2971  0022F4  A4D8               	btfss	status,2,c
  2972  0022F6  EF7F  F011         	goto	u6001
  2973  0022FA  EF81  F011         	goto	u6000
  2974  0022FE                     u6001:
  2975  0022FE  EFCC  F011         	goto	l6129
  2976  002302                     u6000:
  2977  002302                     
  2978                           ; BSR set to: 0
  2979                           ;/opt/microchip/xc8/v2.30/pic/sources/c99/common/doprnt.c: 1206:             ++*fmt;
  2980  002302  0060  F1FB  FFD9   	movff	vfpfcnvrt@fmt,fsr2l
  2981  002308  0060  F1FF  FFDA   	movff	vfpfcnvrt@fmt+1,fsr2h
  2982  00230E  2ADE               	incf	postinc2,f,c
  2983  002310  0E00               	movlw	0
  2984  002312  22DD               	addwfc	postdec2,f,c
  2985                           
  2986                           ;/opt/microchip/xc8/v2.30/pic/sources/c99/common/doprnt.c: 1207:             llu = (unsi
      +                          gned long long)(*(unsigned int *)__va_arg(*(unsigned int **)ap, (unsigned int)0));
  2987  002314  0060  F203  FFD9   	movff	vfpfcnvrt@ap,fsr2l
  2988  00231A  0060  F207  FFDA   	movff	vfpfcnvrt@ap+1,fsr2h
  2989  002320  006F FF7C  F082    	movff	indf2,??_vfpfcnvrt
  2990  002326  0E02               	movlw	2
  2991  002328  26DE               	addwf	postinc2,f,c
  2992  00232A  006F FF7C  F083    	movff	indf2,??_vfpfcnvrt+1
  2993  002330  0E00               	movlw	0
  2994  002332  22DD               	addwfc	postdec2,f,c
  2995  002334  0060  F20B  FFD9   	movff	??_vfpfcnvrt,fsr2l
  2996  00233A  0060  F20F  FFDA   	movff	??_vfpfcnvrt+1,fsr2h
  2997  002340  006F FF78  F084    	movff	postinc2,??_vfpfcnvrt+2
  2998  002346  006F FF74  F085    	movff	postdec2,??_vfpfcnvrt+3
  2999  00234C  C084  F08D         	movff	??_vfpfcnvrt+2,vfpfcnvrt@llu
  3000  002350  C085  F08E         	movff	??_vfpfcnvrt+3,vfpfcnvrt@llu+1
  3001  002354  6B8F               	clrf	(vfpfcnvrt@llu+2)& (0+255),b
  3002  002356  6B90               	clrf	(vfpfcnvrt@llu+3)& (0+255),b
  3003  002358  6B91               	clrf	(vfpfcnvrt@llu+4)& (0+255),b
  3004  00235A  6B92               	clrf	(vfpfcnvrt@llu+5)& (0+255),b
  3005  00235C  6B93               	clrf	(vfpfcnvrt@llu+6)& (0+255),b
  3006  00235E  6B94               	clrf	(vfpfcnvrt@llu+7)& (0+255),b
  3007  002360                     l6125:
  3008                           
  3009                           ; BSR set to: 0
  3010                           ;/opt/microchip/xc8/v2.30/pic/sources/c99/common/doprnt.c: 1209:             return utoa
      +                          (fp, llu);
  3011  002360  C07C  F02C         	movff	vfpfcnvrt@fp,utoa@fp
  3012  002364  C07D  F02D         	movff	vfpfcnvrt@fp+1,utoa@fp+1
  3013  002368  C08D  F02E         	movff	vfpfcnvrt@llu,utoa@d
  3014  00236C  C08E  F02F         	movff	vfpfcnvrt@llu+1,utoa@d+1
  3015  002370  C08F  F030         	movff	vfpfcnvrt@llu+2,utoa@d+2
  3016  002374  C090  F031         	movff	vfpfcnvrt@llu+3,utoa@d+3
  3017  002378  C091  F032         	movff	vfpfcnvrt@llu+4,utoa@d+4
  3018  00237C  C092  F033         	movff	vfpfcnvrt@llu+5,utoa@d+5
  3019  002380  C093  F034         	movff	vfpfcnvrt@llu+6,utoa@d+6
  3020  002384  C094  F035         	movff	vfpfcnvrt@llu+7,utoa@d+7
  3021  002388  ECBB  F017         	call	_utoa	;wreg free
  3022  00238C  C02C  F07C         	movff	?_utoa,?_vfpfcnvrt
  3023  002390  C02D  F07D         	movff	?_utoa+1,?_vfpfcnvrt+1
  3024  002394  EFB0  F013         	goto	l1964
  3025  002398                     l6129:
  3026                           
  3027                           ; BSR set to: 0
  3028                           ;/opt/microchip/xc8/v2.30/pic/sources/c99/common/doprnt.c: 1214:         if (!strncmp(*f
      +                          mt, "lu", ((sizeof("lu")/sizeof("lu"[0]))-1))) {
  3029  002398  0060  F1FB  FFD9   	movff	vfpfcnvrt@fmt,fsr2l
  3030  00239E  0060  F1FF  FFDA   	movff	vfpfcnvrt@fmt+1,fsr2h
  3031  0023A4  006F FF78  F011    	movff	postinc2,strncmp@_l
  3032  0023AA  006F FF74  F012    	movff	postdec2,strncmp@_l+1
  3033  0023B0  0E6C               	movlw	low (STR_3+14)
  3034  0023B2  6E13               	movwf	strncmp@_r^0,c
  3035  0023B4  0E20               	movlw	high (STR_3+14)
  3036  0023B6  6E14               	movwf	(strncmp@_r+1)^0,c
  3037  0023B8  0E00               	movlw	0
  3038  0023BA  6E16               	movwf	(strncmp@n+1)^0,c
  3039  0023BC  0E02               	movlw	2
  3040  0023BE  6E15               	movwf	strncmp@n^0,c
  3041  0023C0  EC9B  F01C         	call	_strncmp	;wreg free
  3042  0023C4  5011               	movf	?_strncmp^0,w,c
  3043  0023C6  1012               	iorwf	(?_strncmp+1)^0,w,c
  3044  0023C8  A4D8               	btfss	status,2,c
  3045  0023CA  EFE9  F011         	goto	u6011
  3046  0023CE  EFEB  F011         	goto	u6010
  3047  0023D2                     u6011:
  3048  0023D2  EF26  F012         	goto	l6137
  3049  0023D6                     u6010:
  3050  0023D6                     
  3051                           ;/opt/microchip/xc8/v2.30/pic/sources/c99/common/doprnt.c: 1216:             *fmt += ((s
      +                          izeof("lu")/sizeof("lu"[0]))-1);
  3052  0023D6  0E02               	movlw	2
  3053  0023D8  0060  F1FB  FFD9   	movff	vfpfcnvrt@fmt,fsr2l
  3054  0023DE  0060  F1FF  FFDA   	movff	vfpfcnvrt@fmt+1,fsr2h
  3055  0023E4  26DE               	addwf	postinc2,f,c
  3056  0023E6  0E00               	movlw	0
  3057  0023E8  22DD               	addwfc	postdec2,f,c
  3058                           
  3059                           ;/opt/microchip/xc8/v2.30/pic/sources/c99/common/doprnt.c: 1217:             llu = (unsi
      +                          gned long long)(*(unsigned long *)__va_arg(*(unsigned long **)ap, (unsigned long)0));
  3060  0023EA  0060  F203  FFD9   	movff	vfpfcnvrt@ap,fsr2l
  3061  0023F0  0060  F207  FFDA   	movff	vfpfcnvrt@ap+1,fsr2h
  3062  0023F6  006F FF7C  F082    	movff	indf2,??_vfpfcnvrt
  3063  0023FC  0E04               	movlw	4
  3064  0023FE  26DE               	addwf	postinc2,f,c
  3065  002400  006F FF7C  F083    	movff	indf2,??_vfpfcnvrt+1
  3066  002406  0E00               	movlw	0
  3067  002408  22DD               	addwfc	postdec2,f,c
  3068  00240A  0060  F20B  FFD9   	movff	??_vfpfcnvrt,fsr2l
  3069  002410  0060  F20F  FFDA   	movff	??_vfpfcnvrt+1,fsr2h
  3070  002416  006F FF78  F084    	movff	postinc2,??_vfpfcnvrt+2
  3071  00241C  006F FF78  F085    	movff	postinc2,??_vfpfcnvrt+3
  3072  002422  006F FF78  F086    	movff	postinc2,??_vfpfcnvrt+4
  3073  002428  006F FF78  F087    	movff	postinc2,??_vfpfcnvrt+5
  3074  00242E  0100               	movlb	0	; () banked
  3075  002430  5184               	movf	(??_vfpfcnvrt+2)& (0+255),w,b
  3076  002432  6F8D               	movwf	vfpfcnvrt@llu& (0+255),b
  3077  002434  5185               	movf	(??_vfpfcnvrt+3)& (0+255),w,b
  3078  002436  6F8E               	movwf	(vfpfcnvrt@llu+1)& (0+255),b
  3079  002438  5186               	movf	(??_vfpfcnvrt+4)& (0+255),w,b
  3080  00243A  6F8F               	movwf	(vfpfcnvrt@llu+2)& (0+255),b
  3081  00243C  5187               	movf	(??_vfpfcnvrt+5)& (0+255),w,b
  3082  00243E  6F90               	movwf	(vfpfcnvrt@llu+3)& (0+255),b
  3083  002440  6B91               	clrf	(vfpfcnvrt@llu+4)& (0+255),b
  3084  002442  6B92               	clrf	(vfpfcnvrt@llu+5)& (0+255),b
  3085  002444  6B93               	clrf	(vfpfcnvrt@llu+6)& (0+255),b
  3086  002446  6B94               	clrf	(vfpfcnvrt@llu+7)& (0+255),b
  3087  002448  EFB0  F011         	goto	l6125
  3088  00244C                     l6137:
  3089                           
  3090                           ;/opt/microchip/xc8/v2.30/pic/sources/c99/common/doprnt.c: 1296:         if ((*fmt[0] ==
      +                           'x') || (*fmt[0] == 'X')) {
  3091  00244C  0060  F1FB  FFD9   	movff	vfpfcnvrt@fmt,fsr2l
  3092  002452  0060  F1FF  FFDA   	movff	vfpfcnvrt@fmt+1,fsr2h
  3093  002458  006F FF7B FFF6     	movff	postinc2,tblptrl
  3094  00245E  006F FF77 FFF7     	movff	postdec2,tblptrh
  3095  002464                     	if	0	;tblptru may be non-zero
  3096  002464                     	endif
  3097  002464                     	if	1	;Program memory is > 0xFFFF, there are 3 active tblptr bytes
  3098  002464  0E00               	movlw	low (__mediumconst shr (0+16))
  3099  002466  6EF8               	movwf	tblptru,c
  3100  002468                     	endif
  3101  002468  0008               	tblrd		*
  3102  00246A  50F5               	movf	tablat,w,c
  3103  00246C  0A78               	xorlw	120
  3104  00246E  B4D8               	btfsc	status,2,c
  3105  002470  EF3C  F012         	goto	u6021
  3106  002474  EF3E  F012         	goto	u6020
  3107  002478                     u6021:
  3108  002478  EF56  F012         	goto	l6141
  3109  00247C                     u6020:
  3110  00247C  0060  F1FB  FFD9   	movff	vfpfcnvrt@fmt,fsr2l
  3111  002482  0060  F1FF  FFDA   	movff	vfpfcnvrt@fmt+1,fsr2h
  3112  002488  006F FF7B FFF6     	movff	postinc2,tblptrl
  3113  00248E  006F FF77 FFF7     	movff	postdec2,tblptrh
  3114  002494                     	if	0	;tblptru may be non-zero
  3115  002494                     	endif
  3116  002494                     	if	1	;Program memory is > 0xFFFF, there are 3 active tblptr bytes
  3117  002494  0E00               	movlw	low (__mediumconst shr (0+16))
  3118  002496  6EF8               	movwf	tblptru,c
  3119  002498                     	endif
  3120  002498  0008               	tblrd		*
  3121  00249A  50F5               	movf	tablat,w,c
  3122  00249C  0A58               	xorlw	88
  3123  00249E  A4D8               	btfss	status,2,c
  3124  0024A0  EF54  F012         	goto	u6031
  3125  0024A4  EF56  F012         	goto	u6030
  3126  0024A8                     u6031:
  3127  0024A8  EFB6  F012         	goto	l6151
  3128  0024AC                     u6030:
  3129  0024AC                     l6141:
  3130                           
  3131                           ;/opt/microchip/xc8/v2.30/pic/sources/c99/common/doprnt.c: 1298:             c = (*fmt)[
      +                          0];
  3132  0024AC  0060  F1FB  FFD9   	movff	vfpfcnvrt@fmt,fsr2l
  3133  0024B2  0060  F1FF  FFDA   	movff	vfpfcnvrt@fmt+1,fsr2h
  3134  0024B8  006F FF7B FFF6     	movff	postinc2,tblptrl
  3135  0024BE  006F FF77 FFF7     	movff	postdec2,tblptrh
  3136  0024C4                     	if	0	;tblptru may be non-zero
  3137  0024C4                     	endif
  3138  0024C4                     	if	1	;Program memory is > 0xFFFF, there are 3 active tblptr bytes
  3139  0024C4  0E00               	movlw	low (__mediumconst shr (0+16))
  3140  0024C6  6EF8               	movwf	tblptru,c
  3141  0024C8                     	endif
  3142  0024C8  0008               	tblrd		*
  3143  0024CA  006F FFD4  F08C    	movff	tablat,vfpfcnvrt@c
  3144  0024D0                     
  3145                           ;/opt/microchip/xc8/v2.30/pic/sources/c99/common/doprnt.c: 1299:             ++*fmt;
  3146  0024D0  0060  F1FB  FFD9   	movff	vfpfcnvrt@fmt,fsr2l
  3147  0024D6  0060  F1FF  FFDA   	movff	vfpfcnvrt@fmt+1,fsr2h
  3148  0024DC  2ADE               	incf	postinc2,f,c
  3149  0024DE  0E00               	movlw	0
  3150  0024E0  22DD               	addwfc	postdec2,f,c
  3151  0024E2                     
  3152                           ;/opt/microchip/xc8/v2.30/pic/sources/c99/common/doprnt.c: 1300:             llu = (unsi
      +                          gned long long)(*(unsigned int *)__va_arg(*(unsigned int **)ap, (unsigned int)0));
  3153  0024E2  0060  F203  FFD9   	movff	vfpfcnvrt@ap,fsr2l
  3154  0024E8  0060  F207  FFDA   	movff	vfpfcnvrt@ap+1,fsr2h
  3155  0024EE  006F FF7C  F082    	movff	indf2,??_vfpfcnvrt
  3156  0024F4  0E02               	movlw	2
  3157  0024F6  26DE               	addwf	postinc2,f,c
  3158  0024F8  006F FF7C  F083    	movff	indf2,??_vfpfcnvrt+1
  3159  0024FE  0E00               	movlw	0
  3160  002500  22DD               	addwfc	postdec2,f,c
  3161  002502  0060  F20B  FFD9   	movff	??_vfpfcnvrt,fsr2l
  3162  002508  0060  F20F  FFDA   	movff	??_vfpfcnvrt+1,fsr2h
  3163  00250E  006F FF78  F084    	movff	postinc2,??_vfpfcnvrt+2
  3164  002514  006F FF74  F085    	movff	postdec2,??_vfpfcnvrt+3
  3165  00251A  C084  F08D         	movff	??_vfpfcnvrt+2,vfpfcnvrt@llu
  3166  00251E  C085  F08E         	movff	??_vfpfcnvrt+3,vfpfcnvrt@llu+1
  3167  002522  0100               	movlb	0	; () banked
  3168  002524  6B8F               	clrf	(vfpfcnvrt@llu+2)& (0+255),b
  3169  002526  6B90               	clrf	(vfpfcnvrt@llu+3)& (0+255),b
  3170  002528  6B91               	clrf	(vfpfcnvrt@llu+4)& (0+255),b
  3171  00252A  6B92               	clrf	(vfpfcnvrt@llu+5)& (0+255),b
  3172  00252C  6B93               	clrf	(vfpfcnvrt@llu+6)& (0+255),b
  3173  00252E  6B94               	clrf	(vfpfcnvrt@llu+7)& (0+255),b
  3174  002530                     l6147:
  3175                           
  3176                           ; BSR set to: 0
  3177                           ;/opt/microchip/xc8/v2.30/pic/sources/c99/common/doprnt.c: 1302:             return xtoa
      +                          (fp, llu, c);
  3178  002530  C07C  F02C         	movff	vfpfcnvrt@fp,xtoa@fp
  3179  002534  C07D  F02D         	movff	vfpfcnvrt@fp+1,xtoa@fp+1
  3180  002538  C08D  F02E         	movff	vfpfcnvrt@llu,xtoa@d
  3181  00253C  C08E  F02F         	movff	vfpfcnvrt@llu+1,xtoa@d+1
  3182  002540  C08F  F030         	movff	vfpfcnvrt@llu+2,xtoa@d+2
  3183  002544  C090  F031         	movff	vfpfcnvrt@llu+3,xtoa@d+3
  3184  002548  C091  F032         	movff	vfpfcnvrt@llu+4,xtoa@d+4
  3185  00254C  C092  F033         	movff	vfpfcnvrt@llu+5,xtoa@d+5
  3186  002550  C093  F034         	movff	vfpfcnvrt@llu+6,xtoa@d+6
  3187  002554  C094  F035         	movff	vfpfcnvrt@llu+7,xtoa@d+7
  3188  002558  C08C  F036         	movff	vfpfcnvrt@c,xtoa@x
  3189  00255C  ECB1  F013         	call	_xtoa	;wreg free
  3190  002560  C02C  F07C         	movff	?_xtoa,?_vfpfcnvrt
  3191  002564  C02D  F07D         	movff	?_xtoa+1,?_vfpfcnvrt+1
  3192  002568  EFB0  F013         	goto	l1964
  3193  00256C                     l6151:
  3194                           
  3195                           ;/opt/microchip/xc8/v2.30/pic/sources/c99/common/doprnt.c: 1307:         if (!strncmp(*f
      +                          mt, "lx", ((sizeof("lx")/sizeof("lx"[0]))-1)) || !strncmp(*fmt, "lX", ((sizeof("lX")/siz
      +                          eof("lX"[0]))-1))) {
  3196  00256C  0060  F1FB  FFD9   	movff	vfpfcnvrt@fmt,fsr2l
  3197  002572  0060  F1FF  FFDA   	movff	vfpfcnvrt@fmt+1,fsr2h
  3198  002578  006F FF78  F011    	movff	postinc2,strncmp@_l
  3199  00257E  006F FF74  F012    	movff	postdec2,strncmp@_l+1
  3200  002584  0E72               	movlw	low STR_10
  3201  002586  6E13               	movwf	strncmp@_r^0,c
  3202  002588  0E20               	movlw	high STR_10
  3203  00258A  6E14               	movwf	(strncmp@_r+1)^0,c
  3204  00258C  0E00               	movlw	0
  3205  00258E  6E16               	movwf	(strncmp@n+1)^0,c
  3206  002590  0E02               	movlw	2
  3207  002592  6E15               	movwf	strncmp@n^0,c
  3208  002594  EC9B  F01C         	call	_strncmp	;wreg free
  3209  002598  5011               	movf	?_strncmp^0,w,c
  3210  00259A  1012               	iorwf	(?_strncmp+1)^0,w,c
  3211  00259C  B4D8               	btfsc	status,2,c
  3212  00259E  EFD3  F012         	goto	u6041
  3213  0025A2  EFD5  F012         	goto	u6040
  3214  0025A6                     u6041:
  3215  0025A6  EFF4  F012         	goto	l6155
  3216  0025AA                     u6040:
  3217  0025AA  0060  F1FB  FFD9   	movff	vfpfcnvrt@fmt,fsr2l
  3218  0025B0  0060  F1FF  FFDA   	movff	vfpfcnvrt@fmt+1,fsr2h
  3219  0025B6  006F FF78  F011    	movff	postinc2,strncmp@_l
  3220  0025BC  006F FF74  F012    	movff	postdec2,strncmp@_l+1
  3221  0025C2  0E6F               	movlw	low STR_14
  3222  0025C4  6E13               	movwf	strncmp@_r^0,c
  3223  0025C6  0E20               	movlw	high STR_14
  3224  0025C8  6E14               	movwf	(strncmp@_r+1)^0,c
  3225  0025CA  0E00               	movlw	0
  3226  0025CC  6E16               	movwf	(strncmp@n+1)^0,c
  3227  0025CE  0E02               	movlw	2
  3228  0025D0  6E15               	movwf	strncmp@n^0,c
  3229  0025D2  EC9B  F01C         	call	_strncmp	;wreg free
  3230  0025D6  5011               	movf	?_strncmp^0,w,c
  3231  0025D8  1012               	iorwf	(?_strncmp+1)^0,w,c
  3232  0025DA  A4D8               	btfss	status,2,c
  3233  0025DC  EFF2  F012         	goto	u6051
  3234  0025E0  EFF4  F012         	goto	u6050
  3235  0025E4                     u6051:
  3236  0025E4  EF4B  F013         	goto	l6165
  3237  0025E8                     u6050:
  3238  0025E8                     l6155:
  3239                           
  3240                           ;/opt/microchip/xc8/v2.30/pic/sources/c99/common/doprnt.c: 1308: ;/opt/microchip/xc8/v2.
      +                          30/pic/sources/c99/common/doprnt.c: 1310:             c = (*fmt)[1];
  3241  0025E8  0060  F1FB  FFD9   	movff	vfpfcnvrt@fmt,fsr2l
  3242  0025EE  0060  F1FF  FFDA   	movff	vfpfcnvrt@fmt+1,fsr2h
  3243  0025F4  006F FF78  F082    	movff	postinc2,??_vfpfcnvrt
  3244  0025FA  006F FF74  F083    	movff	postdec2,??_vfpfcnvrt+1
  3245  002600  0E01               	movlw	1
  3246  002602  0100               	movlb	0	; () banked
  3247  002604  2782               	addwf	??_vfpfcnvrt& (0+255),f,b
  3248  002606  0E00               	movlw	0
  3249  002608  2383               	addwfc	(??_vfpfcnvrt+1)& (0+255),f,b
  3250  00260A  0060  F20B  FFF6   	movff	??_vfpfcnvrt,tblptrl
  3251  002610  0060  F20F  FFF7   	movff	??_vfpfcnvrt+1,tblptrh
  3252  002616                     	if	0	;tblptru may be non-zero
  3253  002616                     	endif
  3254  002616                     	if	1	;Program memory is > 0xFFFF, there are 3 active tblptr bytes
  3255  002616  0E00               	movlw	low (__mediumconst shr (0+16))
  3256  002618  6EF8               	movwf	tblptru,c
  3257  00261A                     	endif
  3258  00261A  0008               	tblrd		*
  3259  00261C  006F FFD4  F08C    	movff	tablat,vfpfcnvrt@c
  3260  002622                     
  3261                           ; BSR set to: 0
  3262                           ;/opt/microchip/xc8/v2.30/pic/sources/c99/common/doprnt.c: 1311:             *fmt += ((s
      +                          izeof("lx")/sizeof("lx"[0]))-1);
  3263  002622  0E02               	movlw	2
  3264  002624  0060  F1FB  FFD9   	movff	vfpfcnvrt@fmt,fsr2l
  3265  00262A  0060  F1FF  FFDA   	movff	vfpfcnvrt@fmt+1,fsr2h
  3266  002630  26DE               	addwf	postinc2,f,c
  3267  002632  0E00               	movlw	0
  3268  002634  22DD               	addwfc	postdec2,f,c
  3269  002636                     
  3270                           ; BSR set to: 0
  3271                           ;/opt/microchip/xc8/v2.30/pic/sources/c99/common/doprnt.c: 1312:             llu = (unsi
      +                          gned long long)(*(unsigned long *)__va_arg(*(unsigned long **)ap, (unsigned long)0));
  3272  002636  0060  F203  FFD9   	movff	vfpfcnvrt@ap,fsr2l
  3273  00263C  0060  F207  FFDA   	movff	vfpfcnvrt@ap+1,fsr2h
  3274  002642  006F FF7C  F082    	movff	indf2,??_vfpfcnvrt
  3275  002648  0E04               	movlw	4
  3276  00264A  26DE               	addwf	postinc2,f,c
  3277  00264C  006F FF7C  F083    	movff	indf2,??_vfpfcnvrt+1
  3278  002652  0E00               	movlw	0
  3279  002654  22DD               	addwfc	postdec2,f,c
  3280  002656  0060  F20B  FFD9   	movff	??_vfpfcnvrt,fsr2l
  3281  00265C  0060  F20F  FFDA   	movff	??_vfpfcnvrt+1,fsr2h
  3282  002662  006F FF78  F084    	movff	postinc2,??_vfpfcnvrt+2
  3283  002668  006F FF78  F085    	movff	postinc2,??_vfpfcnvrt+3
  3284  00266E  006F FF78  F086    	movff	postinc2,??_vfpfcnvrt+4
  3285  002674  006F FF78  F087    	movff	postinc2,??_vfpfcnvrt+5
  3286  00267A  5184               	movf	(??_vfpfcnvrt+2)& (0+255),w,b
  3287  00267C  6F8D               	movwf	vfpfcnvrt@llu& (0+255),b
  3288  00267E  5185               	movf	(??_vfpfcnvrt+3)& (0+255),w,b
  3289  002680  6F8E               	movwf	(vfpfcnvrt@llu+1)& (0+255),b
  3290  002682  5186               	movf	(??_vfpfcnvrt+4)& (0+255),w,b
  3291  002684  6F8F               	movwf	(vfpfcnvrt@llu+2)& (0+255),b
  3292  002686  5187               	movf	(??_vfpfcnvrt+5)& (0+255),w,b
  3293  002688  6F90               	movwf	(vfpfcnvrt@llu+3)& (0+255),b
  3294  00268A  6B91               	clrf	(vfpfcnvrt@llu+4)& (0+255),b
  3295  00268C  6B92               	clrf	(vfpfcnvrt@llu+5)& (0+255),b
  3296  00268E  6B93               	clrf	(vfpfcnvrt@llu+6)& (0+255),b
  3297  002690  6B94               	clrf	(vfpfcnvrt@llu+7)& (0+255),b
  3298  002692  EF98  F012         	goto	l6147
  3299  002696                     l6165:
  3300                           
  3301                           ;/opt/microchip/xc8/v2.30/pic/sources/c99/common/doprnt.c: 1372:         if ((*fmt)[0] =
      +                          = '%') {
  3302  002696  0060  F1FB  FFD9   	movff	vfpfcnvrt@fmt,fsr2l
  3303  00269C  0060  F1FF  FFDA   	movff	vfpfcnvrt@fmt+1,fsr2h
  3304  0026A2  006F FF7B FFF6     	movff	postinc2,tblptrl
  3305  0026A8  006F FF77 FFF7     	movff	postdec2,tblptrh
  3306  0026AE                     	if	0	;tblptru may be non-zero
  3307  0026AE                     	endif
  3308  0026AE                     	if	1	;Program memory is > 0xFFFF, there are 3 active tblptr bytes
  3309  0026AE  0E00               	movlw	low (__mediumconst shr (0+16))
  3310  0026B0  6EF8               	movwf	tblptru,c
  3311  0026B2                     	endif
  3312  0026B2  0008               	tblrd		*
  3313  0026B4  50F5               	movf	tablat,w,c
  3314  0026B6  0A25               	xorlw	37
  3315  0026B8  A4D8               	btfss	status,2,c
  3316  0026BA  EF61  F013         	goto	u6061
  3317  0026BE  EF63  F013         	goto	u6060
  3318  0026C2                     u6061:
  3319  0026C2  EF7D  F013         	goto	l6175
  3320  0026C6                     u6060:
  3321  0026C6                     
  3322                           ;/opt/microchip/xc8/v2.30/pic/sources/c99/common/doprnt.c: 1373:             ++*fmt;
  3323  0026C6  0060  F1FB  FFD9   	movff	vfpfcnvrt@fmt,fsr2l
  3324  0026CC  0060  F1FF  FFDA   	movff	vfpfcnvrt@fmt+1,fsr2h
  3325  0026D2  2ADE               	incf	postinc2,f,c
  3326  0026D4  0E00               	movlw	0
  3327  0026D6  22DD               	addwfc	postdec2,f,c
  3328  0026D8                     
  3329                           ;/opt/microchip/xc8/v2.30/pic/sources/c99/common/doprnt.c: 1374:             fputc((int)
      +                          '%', fp);
  3330  0026D8  0E00               	movlw	0
  3331  0026DA  6E12               	movwf	(fputc@c+1)^0,c
  3332  0026DC  0E25               	movlw	37
  3333  0026DE  6E11               	movwf	fputc@c^0,c
  3334  0026E0  C07C  F013         	movff	vfpfcnvrt@fp,fputc@fp
  3335  0026E4  C07D  F014         	movff	vfpfcnvrt@fp+1,fputc@fp+1
  3336  0026E8  EC8F  F01E         	call	_fputc	;wreg free
  3337  0026EC                     l6171:
  3338                           
  3339                           ;/opt/microchip/xc8/v2.30/pic/sources/c99/common/doprnt.c: 1375:             return 1;
  3340  0026EC  0E00               	movlw	0
  3341  0026EE  0100               	movlb	0	; () banked
  3342  0026F0  6F7D               	movwf	(?_vfpfcnvrt+1)& (0+255),b
  3343  0026F2  0E01               	movlw	1
  3344  0026F4  6F7C               	movwf	?_vfpfcnvrt& (0+255),b
  3345  0026F6  EFB0  F013         	goto	l1964
  3346  0026FA                     l6175:
  3347                           
  3348                           ;/opt/microchip/xc8/v2.30/pic/sources/c99/common/doprnt.c: 1379:         ++*fmt;
  3349  0026FA  0060  F1FB  FFD9   	movff	vfpfcnvrt@fmt,fsr2l
  3350  002700  0060  F1FF  FFDA   	movff	vfpfcnvrt@fmt+1,fsr2h
  3351  002706  2ADE               	incf	postinc2,f,c
  3352  002708  0E00               	movlw	0
  3353  00270A  22DD               	addwfc	postdec2,f,c
  3354  00270C                     
  3355                           ;/opt/microchip/xc8/v2.30/pic/sources/c99/common/doprnt.c: 1380:         return 0;
  3356  00270C  0E00               	movlw	0
  3357  00270E  0100               	movlb	0	; () banked
  3358  002710  6F7D               	movwf	(?_vfpfcnvrt+1)& (0+255),b
  3359  002712  0E00               	movlw	0
  3360  002714  6F7C               	movwf	?_vfpfcnvrt& (0+255),b
  3361  002716  EFB0  F013         	goto	l1964
  3362  00271A                     l6181:
  3363                           
  3364                           ;/opt/microchip/xc8/v2.30/pic/sources/c99/common/doprnt.c: 1384:     fputc((int)(*fmt)[0
      +                          ], fp);
  3365  00271A  0060  F1FB  FFD9   	movff	vfpfcnvrt@fmt,fsr2l
  3366  002720  0060  F1FF  FFDA   	movff	vfpfcnvrt@fmt+1,fsr2h
  3367  002726  006F FF7B FFF6     	movff	postinc2,tblptrl
  3368  00272C  006F FF77 FFF7     	movff	postdec2,tblptrh
  3369  002732                     	if	0	;tblptru may be non-zero
  3370  002732                     	endif
  3371  002732                     	if	1	;Program memory is > 0xFFFF, there are 3 active tblptr bytes
  3372  002732  0E00               	movlw	low (__mediumconst shr (0+16))
  3373  002734  6EF8               	movwf	tblptru,c
  3374  002736                     	endif
  3375  002736  0008               	tblrd		*
  3376  002738  50F5               	movf	tablat,w,c
  3377  00273A  6E11               	movwf	fputc@c^0,c
  3378  00273C  6A12               	clrf	(fputc@c+1)^0,c
  3379  00273E  C07C  F013         	movff	vfpfcnvrt@fp,fputc@fp
  3380  002742  C07D  F014         	movff	vfpfcnvrt@fp+1,fputc@fp+1
  3381  002746  EC8F  F01E         	call	_fputc	;wreg free
  3382  00274A                     
  3383                           ;/opt/microchip/xc8/v2.30/pic/sources/c99/common/doprnt.c: 1385:     ++*fmt;
  3384  00274A  0060  F1FB  FFD9   	movff	vfpfcnvrt@fmt,fsr2l
  3385  002750  0060  F1FF  FFDA   	movff	vfpfcnvrt@fmt+1,fsr2h
  3386  002756  2ADE               	incf	postinc2,f,c
  3387  002758  0E00               	movlw	0
  3388  00275A  22DD               	addwfc	postdec2,f,c
  3389  00275C  EF76  F013         	goto	l6171
  3390  002760                     l1964:
  3391  002760  0012               	return		;funcret
  3392  002762                     __end_of_vfpfcnvrt:
  3393                           	callstack 0
  3394                           
  3395 ;; *************** function _xtoa *****************
  3396 ;; Defined at:
  3397 ;;		line 645 in file "/opt/microchip/xc8/v2.30/pic/sources/c99/common/doprnt.c"
  3398 ;; Parameters:    Size  Location     Type
  3399 ;;  fp              2   43[COMRAM] PTR struct _IO_FILE
  3400 ;;		 -> sprintf@f(6), 
  3401 ;;  d               8   45[COMRAM] unsigned long long 
  3402 ;;  x               1   53[COMRAM] unsigned char 
  3403 ;; Auto vars:     Size  Location     Type
  3404 ;;  n               8   16[BANK0 ] unsigned long long 
  3405 ;;  c               2   26[BANK0 ] int 
  3406 ;;  i               2   24[BANK0 ] int 
  3407 ;;  w               2   14[BANK0 ] int 
  3408 ;;  p               2   12[BANK0 ] int 
  3409 ;; Return value:  Size  Location     Type
  3410 ;;                  2   43[COMRAM] int 
  3411 ;; Registers used:
  3412 ;;		wreg, fsr1l, fsr1h, fsr2l, fsr2h, status,2, status,0, cstack
  3413 ;; Tracked objects:
  3414 ;;		On entry : 0/0
  3415 ;;		On exit  : 0/0
  3416 ;;		Unchanged: 0/0
  3417 ;; Data sizes:     COMRAM   BANK0   BANK1   BANK2   BANK3   BANK4   BANK5   BANK6   BANK7   BANK8   BANK9  BANK10  BANK1
      +1  BANK12  BANK13  BANK14  BANK15  BANK16  BANK17  BANK18  BANK19  BANK20  BANK21  BANK22  BANK23  BANK24  BANK25  BANK2
      +6  BANK27  BANK28  BANK29  BANK30  BANK31
  3418 ;;      Params:        11       0       0       0       0       0       0       0       0       0       0       0       
      +0       0       0       0       0       0       0       0       0       0       0       0       0       0       0       
      +0       0       0       0       0       0
  3419 ;;      Locals:         0      20       0       0       0       0       0       0       0       0       0       0       
      +0       0       0       0       0       0       0       0       0       0       0       0       0       0       0       
      +0       0       0       0       0       0
  3420 ;;      Temps:          0       8       0       0       0       0       0       0       0       0       0       0       
      +0       0       0       0       0       0       0       0       0       0       0       0       0       0       0       
      +0       0       0       0       0       0
  3421 ;;      Totals:        11      28       0       0       0       0       0       0       0       0       0       0       
      +0       0       0       0       0       0       0       0       0       0       0       0       0       0       0       
      +0       0       0       0       0       0
  3422 ;;Total ram usage:       39 bytes
  3423 ;; Hardware stack levels used:    1
  3424 ;; Hardware stack levels required when called:    7
  3425 ;; This function calls:
  3426 ;;		_isalpha
  3427 ;;		_isupper
  3428 ;;		_pad
  3429 ;;		_toupper
  3430 ;; This function is called by:
  3431 ;;		_vfpfcnvrt
  3432 ;; This function uses a non-reentrant model
  3433 ;;
  3434                           
  3435                           	psect	text9
  3436  002762                     __ptext9:
  3437                           	callstack 0
  3438  002762                     _xtoa:
  3439                           	callstack 20
  3440  002762                     
  3441                           ;/opt/microchip/xc8/v2.30/pic/sources/c99/common/doprnt.c: 645: static int xtoa(FILE *fp
      +                          , unsigned long long d, char x);/opt/microchip/xc8/v2.30/pic/sources/c99/common/doprnt.c
      +                          : 646: {;/opt/microchip/xc8/v2.30/pic/sources/c99/common/doprnt.c: 647:     int c, i, p,
      +                           w;;/opt/microchip/xc8/v2.30/pic/sources/c99/common/doprnt.c: 648:     unsigned long lon
      +                          g n;;/opt/microchip/xc8/v2.30/pic/sources/c99/common/doprnt.c: 651:     if (!(prec < 0))
      +                           {
  3442  002762  BE45               	btfsc	(_prec+1)^0,7,c
  3443  002764  EFB6  F013         	goto	u5341
  3444  002768  EFB8  F013         	goto	u5340
  3445  00276C                     u5341:
  3446  00276C  EFB9  F013         	goto	l5739
  3447  002770                     u5340:
  3448  002770                     
  3449                           ;/opt/microchip/xc8/v2.30/pic/sources/c99/common/doprnt.c: 652:         flags &= ~(1 << 
      +                          1);
  3450  002770  9246               	bcf	_flags^0,1,c
  3451  002772                     l5739:
  3452                           
  3453                           ;/opt/microchip/xc8/v2.30/pic/sources/c99/common/doprnt.c: 654:     p = (0 < prec) ? pre
      +                          c : 1;
  3454  002772  BE45               	btfsc	(_prec+1)^0,7,c
  3455  002774  EFC6  F013         	goto	u5350
  3456  002778  5045               	movf	(_prec+1)^0,w,c
  3457  00277A  E106               	bnz	u5351
  3458  00277C  0444               	decf	_prec^0,w,c
  3459  00277E  B0D8               	btfsc	status,0,c
  3460  002780  EFC4  F013         	goto	u5351
  3461  002784  EFC6  F013         	goto	u5350
  3462  002788                     u5351:
  3463  002788  EFCD  F013         	goto	l1912
  3464  00278C                     u5350:
  3465  00278C  0E00               	movlw	0
  3466  00278E  0100               	movlb	0	; () banked
  3467  002790  6F6D               	movwf	(xtoa@p+1)& (0+255),b
  3468  002792  0E01               	movlw	1
  3469  002794  6F6C               	movwf	xtoa@p& (0+255),b
  3470  002796  EFD1  F013         	goto	l1914
  3471  00279A                     l1912:
  3472  00279A  C044  F06C         	movff	_prec,xtoa@p
  3473  00279E  C045  F06D         	movff	_prec+1,xtoa@p+1
  3474  0027A2                     l1914:
  3475                           
  3476                           ;/opt/microchip/xc8/v2.30/pic/sources/c99/common/doprnt.c: 655:     w = width;
  3477  0027A2  C042  F06E         	movff	_width,xtoa@w
  3478  0027A6  C043  F06F         	movff	_width+1,xtoa@w+1
  3479                           
  3480                           ;/opt/microchip/xc8/v2.30/pic/sources/c99/common/doprnt.c: 656:     if (flags & (1 << 4)
      +                          ) {
  3481  0027AA  A846               	btfss	_flags^0,4,c
  3482  0027AC  EFDA  F013         	goto	u5361
  3483  0027B0  EFDC  F013         	goto	u5360
  3484  0027B4                     u5361:
  3485  0027B4  EFE1  F013         	goto	l5745
  3486  0027B8                     u5360:
  3487  0027B8                     
  3488                           ;/opt/microchip/xc8/v2.30/pic/sources/c99/common/doprnt.c: 657:         w -= 2;
  3489  0027B8  0100               	movlb	0	; () banked
  3490  0027BA  0EFE               	movlw	254
  3491  0027BC  276E               	addwf	xtoa@w& (0+255),f,b
  3492  0027BE  0EFF               	movlw	255
  3493  0027C0  236F               	addwfc	(xtoa@w+1)& (0+255),f,b
  3494  0027C2                     l5745:
  3495                           
  3496                           ;/opt/microchip/xc8/v2.30/pic/sources/c99/common/doprnt.c: 661:     n = d;
  3497  0027C2  C02E  F070         	movff	xtoa@d,xtoa@n
  3498  0027C6  C02F  F071         	movff	xtoa@d+1,xtoa@n+1
  3499  0027CA  C030  F072         	movff	xtoa@d+2,xtoa@n+2
  3500  0027CE  C031  F073         	movff	xtoa@d+3,xtoa@n+3
  3501  0027D2  C032  F074         	movff	xtoa@d+4,xtoa@n+4
  3502  0027D6  C033  F075         	movff	xtoa@d+5,xtoa@n+5
  3503  0027DA  C034  F076         	movff	xtoa@d+6,xtoa@n+6
  3504  0027DE  C035  F077         	movff	xtoa@d+7,xtoa@n+7
  3505  0027E2                     
  3506                           ;/opt/microchip/xc8/v2.30/pic/sources/c99/common/doprnt.c: 662:     i = sizeof(dbuf) - 1
      +                          ;
  3507  0027E2  0E00               	movlw	0
  3508  0027E4  0100               	movlb	0	; () banked
  3509  0027E6  6F79               	movwf	(xtoa@i+1)& (0+255),b
  3510  0027E8  0E1F               	movlw	31
  3511  0027EA  6F78               	movwf	xtoa@i& (0+255),b
  3512  0027EC                     
  3513                           ; BSR set to: 0
  3514                           ;/opt/microchip/xc8/v2.30/pic/sources/c99/common/doprnt.c: 663:     dbuf[i] = '\0';
  3515  0027EC  0E00               	movlw	0
  3516  0027EE  0101               	movlb	1	; () banked
  3517  0027F0  6FC0               	movwf	(_dbuf+31)& (0+255),b
  3518                           
  3519                           ;/opt/microchip/xc8/v2.30/pic/sources/c99/common/doprnt.c: 664:     while (!(i < 2) && (
      +                          n || (0 < p) || ((0 < w) && (flags & (1 << 1))))) {
  3520  0027F2  EFB0  F014         	goto	l5781
  3521  0027F6                     l5751:
  3522                           
  3523                           ; BSR set to: 0
  3524                           ;/opt/microchip/xc8/v2.30/pic/sources/c99/common/doprnt.c: 665:         --i;
  3525  0027F6  0778               	decf	xtoa@i& (0+255),f,b
  3526  0027F8  A0D8               	btfss	status,0,c
  3527  0027FA  0779               	decf	(xtoa@i+1)& (0+255),f,b
  3528  0027FC                     
  3529                           ; BSR set to: 0
  3530                           ;/opt/microchip/xc8/v2.30/pic/sources/c99/common/doprnt.c: 666:         c = n & 0x0f;
  3531  0027FC  0E0F               	movlw	15
  3532  0027FE  1570               	andwf	xtoa@n& (0+255),w,b
  3533  002800  6F7A               	movwf	xtoa@c& (0+255),b
  3534  002802  6B7B               	clrf	(xtoa@c+1)& (0+255),b
  3535  002804                     
  3536                           ; BSR set to: 0
  3537                           ;/opt/microchip/xc8/v2.30/pic/sources/c99/common/doprnt.c: 667:         c = (c < 10) ? (
      +                          int)'0' + c : (int)'a' + (c - 10);
  3538  002804  BF7B               	btfsc	(xtoa@c+1)& (0+255),7,b
  3539  002806  EF0E  F014         	goto	u5371
  3540  00280A  517B               	movf	(xtoa@c+1)& (0+255),w,b
  3541  00280C  E109               	bnz	u5370
  3542  00280E  0E0A               	movlw	10
  3543  002810  5D7A               	subwf	xtoa@c& (0+255),w,b
  3544  002812  A0D8               	btfss	status,0,c
  3545  002814  EF0E  F014         	goto	u5371
  3546  002818  EF10  F014         	goto	u5370
  3547  00281C                     u5371:
  3548  00281C  EF18  F014         	goto	l5759
  3549  002820                     u5370:
  3550  002820                     
  3551                           ; BSR set to: 0
  3552  002820  0E57               	movlw	87
  3553  002822  257A               	addwf	xtoa@c& (0+255),w,b
  3554  002824  6F7A               	movwf	xtoa@c& (0+255),b
  3555  002826  0E00               	movlw	0
  3556  002828  217B               	addwfc	(xtoa@c+1)& (0+255),w,b
  3557  00282A  6F7B               	movwf	(xtoa@c+1)& (0+255),b
  3558  00282C  EF1E  F014         	goto	l1921
  3559  002830                     l5759:
  3560                           
  3561                           ; BSR set to: 0
  3562  002830  0E30               	movlw	48
  3563  002832  257A               	addwf	xtoa@c& (0+255),w,b
  3564  002834  6F7A               	movwf	xtoa@c& (0+255),b
  3565  002836  0E00               	movlw	0
  3566  002838  217B               	addwfc	(xtoa@c+1)& (0+255),w,b
  3567  00283A  6F7B               	movwf	(xtoa@c+1)& (0+255),b
  3568  00283C                     l1921:
  3569                           
  3570                           ; BSR set to: 0
  3571  00283C  0EBF               	movlw	191
  3572  00283E  6F60               	movwf	??_xtoa& (0+255),b
  3573  002840  0EFF               	movlw	255
  3574  002842  6F61               	movwf	(??_xtoa+1)& (0+255),b
  3575  002844  5036               	movf	xtoa@x^0,w,c
  3576  002846  6F62               	movwf	(??_xtoa+2)& (0+255),b
  3577  002848  6B63               	clrf	(??_xtoa+3)& (0+255),b
  3578  00284A  5160               	movf	??_xtoa& (0+255),w,b
  3579  00284C  2762               	addwf	(??_xtoa+2)& (0+255),f,b
  3580  00284E  5161               	movf	(??_xtoa+1)& (0+255),w,b
  3581  002850  2363               	addwfc	(??_xtoa+3)& (0+255),f,b
  3582  002852  5163               	movf	(??_xtoa+3)& (0+255),w,b
  3583  002854  E10A               	bnz	u5380
  3584  002856  0E1A               	movlw	26
  3585  002858  5D62               	subwf	(??_xtoa+2)& (0+255),w,b
  3586  00285A  A0D8               	btfss	status,0,c
  3587  00285C  EF32  F014         	goto	u5381
  3588  002860  EF35  F014         	goto	u5380
  3589  002864                     u5381:
  3590  002864  0E01               	movlw	1
  3591  002866  EF36  F014         	goto	u5390
  3592  00286A                     u5380:
  3593  00286A  0E00               	movlw	0
  3594  00286C                     u5390:
  3595  00286C  6F68               	movwf	_xtoa$3536& (0+255),b
  3596  00286E  6B69               	clrf	(_xtoa$3536+1)& (0+255),b
  3597  002870                     
  3598                           ; BSR set to: 0
  3599  002870  5168               	movf	_xtoa$3536& (0+255),w,b
  3600  002872  1169               	iorwf	(_xtoa$3536+1)& (0+255),w,b
  3601  002874  B4D8               	btfsc	status,2,c
  3602  002876  EF3F  F014         	goto	u5401
  3603  00287A  EF41  F014         	goto	u5400
  3604  00287E                     u5401:
  3605  00287E  EF71  F014         	goto	l5773
  3606  002882                     u5400:
  3607  002882                     
  3608                           ; BSR set to: 0
  3609  002882  0E9F               	movlw	159
  3610  002884  6F60               	movwf	??_xtoa& (0+255),b
  3611  002886  0EFF               	movlw	255
  3612  002888  6F61               	movwf	(??_xtoa+1)& (0+255),b
  3613  00288A  0E20               	movlw	32
  3614  00288C  117A               	iorwf	xtoa@c& (0+255),w,b
  3615  00288E  6F62               	movwf	(??_xtoa+2)& (0+255),b
  3616  002890  0E00               	movlw	0
  3617  002892  117B               	iorwf	(xtoa@c+1)& (0+255),w,b
  3618  002894  6F63               	movwf	(??_xtoa+3)& (0+255),b
  3619  002896  5160               	movf	??_xtoa& (0+255),w,b
  3620  002898  2762               	addwf	(??_xtoa+2)& (0+255),f,b
  3621  00289A  5161               	movf	(??_xtoa+1)& (0+255),w,b
  3622  00289C  2363               	addwfc	(??_xtoa+3)& (0+255),f,b
  3623  00289E  5163               	movf	(??_xtoa+3)& (0+255),w,b
  3624  0028A0  E10A               	bnz	u5410
  3625  0028A2  0E1A               	movlw	26
  3626  0028A4  5D62               	subwf	(??_xtoa+2)& (0+255),w,b
  3627  0028A6  A0D8               	btfss	status,0,c
  3628  0028A8  EF58  F014         	goto	u5411
  3629  0028AC  EF5B  F014         	goto	u5410
  3630  0028B0                     u5411:
  3631  0028B0  0E01               	movlw	1
  3632  0028B2  EF5C  F014         	goto	u5420
  3633  0028B6                     u5410:
  3634  0028B6  0E00               	movlw	0
  3635  0028B8                     u5420:
  3636  0028B8  6F6A               	movwf	_xtoa$3537& (0+255),b
  3637  0028BA  6B6B               	clrf	(_xtoa$3537+1)& (0+255),b
  3638  0028BC                     
  3639                           ; BSR set to: 0
  3640  0028BC  516A               	movf	_xtoa$3537& (0+255),w,b
  3641  0028BE  116B               	iorwf	(_xtoa$3537+1)& (0+255),w,b
  3642  0028C0  B4D8               	btfsc	status,2,c
  3643  0028C2  EF65  F014         	goto	u5431
  3644  0028C6  EF67  F014         	goto	u5430
  3645  0028CA                     u5431:
  3646  0028CA  EF71  F014         	goto	l5773
  3647  0028CE                     u5430:
  3648  0028CE                     
  3649                           ; BSR set to: 0
  3650                           ;/opt/microchip/xc8/v2.30/pic/sources/c99/common/doprnt.c: 669:             c = toupper(
      +                          c);
  3651  0028CE  C07A  F017         	movff	xtoa@c,toupper@c
  3652  0028D2  C07B  F018         	movff	xtoa@c+1,toupper@c+1
  3653  0028D6  EC3B  F025         	call	_toupper	;wreg free
  3654  0028DA  C017  F07A         	movff	?_toupper,xtoa@c
  3655  0028DE  C018  F07B         	movff	?_toupper+1,xtoa@c+1
  3656  0028E2                     l5773:
  3657                           
  3658                           ;/opt/microchip/xc8/v2.30/pic/sources/c99/common/doprnt.c: 671:         dbuf[i] = (char)
      +                          c;
  3659  0028E2  0EA1               	movlw	low _dbuf
  3660  0028E4  0100               	movlb	0	; () banked
  3661  0028E6  2578               	addwf	xtoa@i& (0+255),w,b
  3662  0028E8  6ED9               	movwf	fsr2l,c
  3663  0028EA  0E01               	movlw	high _dbuf
  3664  0028EC  2179               	addwfc	(xtoa@i+1)& (0+255),w,b
  3665  0028EE  6EDA               	movwf	fsr2h,c
  3666  0028F0  0060  F1EB  FFDF   	movff	xtoa@c,indf2
  3667  0028F6                     
  3668                           ; BSR set to: 0
  3669                           ;/opt/microchip/xc8/v2.30/pic/sources/c99/common/doprnt.c: 672:         --p;
  3670  0028F6  076C               	decf	xtoa@p& (0+255),f,b
  3671  0028F8  A0D8               	btfss	status,0,c
  3672  0028FA  076D               	decf	(xtoa@p+1)& (0+255),f,b
  3673  0028FC                     
  3674                           ; BSR set to: 0
  3675                           ;/opt/microchip/xc8/v2.30/pic/sources/c99/common/doprnt.c: 673:         --w;
  3676  0028FC  076E               	decf	xtoa@w& (0+255),f,b
  3677  0028FE  A0D8               	btfss	status,0,c
  3678  002900  076F               	decf	(xtoa@w+1)& (0+255),f,b
  3679  002902                     
  3680                           ; BSR set to: 0
  3681                           ;/opt/microchip/xc8/v2.30/pic/sources/c99/common/doprnt.c: 674:         n = n >> 4;
  3682  002902  C070  F060         	movff	xtoa@n,??_xtoa
  3683  002906  C071  F061         	movff	xtoa@n+1,??_xtoa+1
  3684  00290A  C072  F062         	movff	xtoa@n+2,??_xtoa+2
  3685  00290E  C073  F063         	movff	xtoa@n+3,??_xtoa+3
  3686  002912  C074  F064         	movff	xtoa@n+4,??_xtoa+4
  3687  002916  C075  F065         	movff	xtoa@n+5,??_xtoa+5
  3688  00291A  C076  F066         	movff	xtoa@n+6,??_xtoa+6
  3689  00291E  C077  F067         	movff	xtoa@n+7,??_xtoa+7
  3690  002922  0E05               	movlw	5
  3691  002924  EF9D  F014         	goto	u5440
  3692  002928                     u5445:
  3693  002928  90D8               	bcf	status,0,c
  3694  00292A  3367               	rrcf	(??_xtoa+7)& (0+255),f,b
  3695  00292C  3366               	rrcf	(??_xtoa+6)& (0+255),f,b
  3696  00292E  3365               	rrcf	(??_xtoa+5)& (0+255),f,b
  3697  002930  3364               	rrcf	(??_xtoa+4)& (0+255),f,b
  3698  002932  3363               	rrcf	(??_xtoa+3)& (0+255),f,b
  3699  002934  3362               	rrcf	(??_xtoa+2)& (0+255),f,b
  3700  002936  3361               	rrcf	(??_xtoa+1)& (0+255),f,b
  3701  002938  3360               	rrcf	??_xtoa& (0+255),f,b
  3702  00293A                     u5440:
  3703  00293A  2EE8               	decfsz	wreg,f,c
  3704  00293C  EF94  F014         	goto	u5445
  3705  002940  C060  F070         	movff	??_xtoa,xtoa@n
  3706  002944  C061  F071         	movff	??_xtoa+1,xtoa@n+1
  3707  002948  C062  F072         	movff	??_xtoa+2,xtoa@n+2
  3708  00294C  C063  F073         	movff	??_xtoa+3,xtoa@n+3
  3709  002950  C064  F074         	movff	??_xtoa+4,xtoa@n+4
  3710  002954  C065  F075         	movff	??_xtoa+5,xtoa@n+5
  3711  002958  C066  F076         	movff	??_xtoa+6,xtoa@n+6
  3712  00295C  C067  F077         	movff	??_xtoa+7,xtoa@n+7
  3713  002960                     l5781:
  3714                           
  3715                           ;/opt/microchip/xc8/v2.30/pic/sources/c99/common/doprnt.c: 664:     while (!(i < 2) && (
      +                          n || (0 < p) || ((0 < w) && (flags & (1 << 1))))) {
  3716  002960  0100               	movlb	0	; () banked
  3717  002962  BF79               	btfsc	(xtoa@i+1)& (0+255),7,b
  3718  002964  EFBD  F014         	goto	u5451
  3719  002968  5179               	movf	(xtoa@i+1)& (0+255),w,b
  3720  00296A  E109               	bnz	u5450
  3721  00296C  0E02               	movlw	2
  3722  00296E  5D78               	subwf	xtoa@i& (0+255),w,b
  3723  002970  A0D8               	btfss	status,0,c
  3724  002972  EFBD  F014         	goto	u5451
  3725  002976  EFBF  F014         	goto	u5450
  3726  00297A                     u5451:
  3727  00297A  EFEF  F014         	goto	l1935
  3728  00297E                     u5450:
  3729  00297E                     
  3730                           ; BSR set to: 0
  3731  00297E  5170               	movf	xtoa@n& (0+255),w,b
  3732  002980  1171               	iorwf	(xtoa@n+1)& (0+255),w,b
  3733  002982  1172               	iorwf	(xtoa@n+2)& (0+255),w,b
  3734  002984  1173               	iorwf	(xtoa@n+3)& (0+255),w,b
  3735  002986  1174               	iorwf	(xtoa@n+4)& (0+255),w,b
  3736  002988  1175               	iorwf	(xtoa@n+5)& (0+255),w,b
  3737  00298A  1176               	iorwf	(xtoa@n+6)& (0+255),w,b
  3738  00298C  1177               	iorwf	(xtoa@n+7)& (0+255),w,b
  3739  00298E  A4D8               	btfss	status,2,c
  3740  002990  EFCC  F014         	goto	u5461
  3741  002994  EFCE  F014         	goto	u5460
  3742  002998                     u5461:
  3743  002998  EFFB  F013         	goto	l5751
  3744  00299C                     u5460:
  3745  00299C                     
  3746                           ; BSR set to: 0
  3747  00299C  BF6D               	btfsc	(xtoa@p+1)& (0+255),7,b
  3748  00299E  EFDB  F014         	goto	u5470
  3749  0029A2  516D               	movf	(xtoa@p+1)& (0+255),w,b
  3750  0029A4  E106               	bnz	u5471
  3751  0029A6  056C               	decf	xtoa@p& (0+255),w,b
  3752  0029A8  B0D8               	btfsc	status,0,c
  3753  0029AA  EFD9  F014         	goto	u5471
  3754  0029AE  EFDB  F014         	goto	u5470
  3755  0029B2                     u5471:
  3756  0029B2  EFFB  F013         	goto	l5751
  3757  0029B6                     u5470:
  3758  0029B6                     
  3759                           ; BSR set to: 0
  3760  0029B6  BF6F               	btfsc	(xtoa@w+1)& (0+255),7,b
  3761  0029B8  EFE6  F014         	goto	u5481
  3762  0029BC  516F               	movf	(xtoa@w+1)& (0+255),w,b
  3763  0029BE  E108               	bnz	u5480
  3764  0029C0  056E               	decf	xtoa@w& (0+255),w,b
  3765  0029C2  A0D8               	btfss	status,0,c
  3766  0029C4  EFE6  F014         	goto	u5481
  3767  0029C8  EFE8  F014         	goto	u5480
  3768  0029CC                     u5481:
  3769  0029CC  EFEF  F014         	goto	l1935
  3770  0029D0                     u5480:
  3771  0029D0                     
  3772                           ; BSR set to: 0
  3773  0029D0  B246               	btfsc	_flags^0,1,c
  3774  0029D2  EFED  F014         	goto	u5491
  3775  0029D6  EFEF  F014         	goto	u5490
  3776  0029DA                     u5491:
  3777  0029DA  EFFB  F013         	goto	l5751
  3778  0029DE                     u5490:
  3779  0029DE                     l1935:
  3780                           
  3781                           ; BSR set to: 0
  3782                           ;/opt/microchip/xc8/v2.30/pic/sources/c99/common/doprnt.c: 678:     if (flags & (1 << 4)
      +                          ) {
  3783  0029DE  A846               	btfss	_flags^0,4,c
  3784  0029E0  EFF4  F014         	goto	u5501
  3785  0029E4  EFF6  F014         	goto	u5500
  3786  0029E8                     u5501:
  3787  0029E8  EF0D  F015         	goto	l5797
  3788  0029EC                     u5500:
  3789  0029EC                     
  3790                           ; BSR set to: 0
  3791                           ;/opt/microchip/xc8/v2.30/pic/sources/c99/common/doprnt.c: 679:         --i;
  3792  0029EC  0778               	decf	xtoa@i& (0+255),f,b
  3793  0029EE  A0D8               	btfss	status,0,c
  3794  0029F0  0779               	decf	(xtoa@i+1)& (0+255),f,b
  3795  0029F2                     
  3796                           ; BSR set to: 0
  3797                           ;/opt/microchip/xc8/v2.30/pic/sources/c99/common/doprnt.c: 680:         dbuf[i] = x;
  3798  0029F2  0EA1               	movlw	low _dbuf
  3799  0029F4  2578               	addwf	xtoa@i& (0+255),w,b
  3800  0029F6  6ED9               	movwf	fsr2l,c
  3801  0029F8  0E01               	movlw	high _dbuf
  3802  0029FA  2179               	addwfc	(xtoa@i+1)& (0+255),w,b
  3803  0029FC  6EDA               	movwf	fsr2h,c
  3804  0029FE  0060  F0DB  FFDF   	movff	xtoa@x,indf2
  3805  002A04                     
  3806                           ; BSR set to: 0
  3807                           ;/opt/microchip/xc8/v2.30/pic/sources/c99/common/doprnt.c: 681:         --i;
  3808  002A04  0778               	decf	xtoa@i& (0+255),f,b
  3809  002A06  A0D8               	btfss	status,0,c
  3810  002A08  0779               	decf	(xtoa@i+1)& (0+255),f,b
  3811                           
  3812                           ;/opt/microchip/xc8/v2.30/pic/sources/c99/common/doprnt.c: 682:         dbuf[i] = '0';
  3813  002A0A  0EA1               	movlw	low _dbuf
  3814  002A0C  2578               	addwf	xtoa@i& (0+255),w,b
  3815  002A0E  6ED9               	movwf	fsr2l,c
  3816  002A10  0E01               	movlw	high _dbuf
  3817  002A12  2179               	addwfc	(xtoa@i+1)& (0+255),w,b
  3818  002A14  6EDA               	movwf	fsr2h,c
  3819  002A16  0E30               	movlw	48
  3820  002A18  6EDF               	movwf	indf2,c
  3821  002A1A                     l5797:
  3822                           
  3823                           ; BSR set to: 0
  3824                           ;/opt/microchip/xc8/v2.30/pic/sources/c99/common/doprnt.c: 686:     return pad(fp, &dbuf
      +                          [i], w);
  3825  002A1A  C02C  F021         	movff	xtoa@fp,pad@fp
  3826  002A1E  C02D  F022         	movff	xtoa@fp+1,pad@fp+1
  3827  002A22  0EA1               	movlw	low _dbuf
  3828  002A24  2578               	addwf	xtoa@i& (0+255),w,b
  3829  002A26  6E23               	movwf	pad@buf^0,c
  3830  002A28  0E01               	movlw	high _dbuf
  3831  002A2A  2179               	addwfc	(xtoa@i+1)& (0+255),w,b
  3832  002A2C  6E24               	movwf	(pad@buf+1)^0,c
  3833  002A2E  C06E  F025         	movff	xtoa@w,pad@p
  3834  002A32  C06F  F026         	movff	xtoa@w+1,pad@p+1
  3835  002A36  EC9D  F020         	call	_pad	;wreg free
  3836  002A3A  C021  F02C         	movff	?_pad,?_xtoa
  3837  002A3E  C022  F02D         	movff	?_pad+1,?_xtoa+1
  3838  002A42  0012               	return		;funcret
  3839  002A44                     __end_of_xtoa:
  3840                           	callstack 0
  3841                           
  3842 ;; *************** function _toupper *****************
  3843 ;; Defined at:
  3844 ;;		line 4 in file "/opt/microchip/xc8/v2.30/pic/sources/c99/common/toupper.c"
  3845 ;; Parameters:    Size  Location     Type
  3846 ;;  c               2   22[COMRAM] int 
  3847 ;; Auto vars:     Size  Location     Type
  3848 ;;		None
  3849 ;; Return value:  Size  Location     Type
  3850 ;;                  2   22[COMRAM] int 
  3851 ;; Registers used:
  3852 ;;		wreg, status,2, status,0
  3853 ;; Tracked objects:
  3854 ;;		On entry : 0/0
  3855 ;;		On exit  : 0/0
  3856 ;;		Unchanged: 0/0
  3857 ;; Data sizes:     COMRAM   BANK0   BANK1   BANK2   BANK3   BANK4   BANK5   BANK6   BANK7   BANK8   BANK9  BANK10  BANK1
      +1  BANK12  BANK13  BANK14  BANK15  BANK16  BANK17  BANK18  BANK19  BANK20  BANK21  BANK22  BANK23  BANK24  BANK25  BANK2
      +6  BANK27  BANK28  BANK29  BANK30  BANK31
  3858 ;;      Params:         2       0       0       0       0       0       0       0       0       0       0       0       
      +0       0       0       0       0       0       0       0       0       0       0       0       0       0       0       
      +0       0       0       0       0       0
  3859 ;;      Locals:         2       0       0       0       0       0       0       0       0       0       0       0       
      +0       0       0       0       0       0       0       0       0       0       0       0       0       0       0       
      +0       0       0       0       0       0
  3860 ;;      Temps:          4       0       0       0       0       0       0       0       0       0       0       0       
      +0       0       0       0       0       0       0       0       0       0       0       0       0       0       0       
      +0       0       0       0       0       0
  3861 ;;      Totals:         8       0       0       0       0       0       0       0       0       0       0       0       
      +0       0       0       0       0       0       0       0       0       0       0       0       0       0       0       
      +0       0       0       0       0       0
  3862 ;;Total ram usage:        8 bytes
  3863 ;; Hardware stack levels used:    1
  3864 ;; Hardware stack levels required when called:    4
  3865 ;; This function calls:
  3866 ;;		_islower
  3867 ;; This function is called by:
  3868 ;;		_xtoa
  3869 ;; This function uses a non-reentrant model
  3870 ;;
  3871                           
  3872                           	psect	text10
  3873  004A76                     __ptext10:
  3874                           	callstack 0
  3875  004A76                     _toupper:
  3876                           	callstack 22
  3877  004A76  0E9F               	movlw	159
  3878  004A78  6E19               	movwf	??_toupper^0,c
  3879  004A7A  0EFF               	movlw	255
  3880  004A7C  6E1A               	movwf	(??_toupper+1)^0,c
  3881  004A7E  C017  F01B         	movff	toupper@c,??_toupper+2
  3882  004A82  C018  F01C         	movff	toupper@c+1,??_toupper+3
  3883  004A86  5019               	movf	??_toupper^0,w,c
  3884  004A88  261B               	addwf	(??_toupper+2)^0,f,c
  3885  004A8A  501A               	movf	(??_toupper+1)^0,w,c
  3886  004A8C  221C               	addwfc	(??_toupper+3)^0,f,c
  3887  004A8E  501C               	movf	(??_toupper+3)^0,w,c
  3888  004A90  E10A               	bnz	u4930
  3889  004A92  0E1A               	movlw	26
  3890  004A94  5C1B               	subwf	(??_toupper+2)^0,w,c
  3891  004A96  A0D8               	btfss	status,0,c
  3892  004A98  EF50  F025         	goto	u4931
  3893  004A9C  EF53  F025         	goto	u4930
  3894  004AA0                     u4931:
  3895  004AA0  0E01               	movlw	1
  3896  004AA2  EF54  F025         	goto	u4940
  3897  004AA6                     u4930:
  3898  004AA6  0E00               	movlw	0
  3899  004AA8                     u4940:
  3900  004AA8  6E1D               	movwf	_toupper$3686^0,c
  3901  004AAA  6A1E               	clrf	(_toupper$3686+1)^0,c
  3902  004AAC  501D               	movf	_toupper$3686^0,w,c
  3903  004AAE  101E               	iorwf	(_toupper$3686+1)^0,w,c
  3904  004AB0  B4D8               	btfsc	status,2,c
  3905  004AB2  EF5D  F025         	goto	u4951
  3906  004AB6  EF5F  F025         	goto	u4950
  3907  004ABA                     u4951:
  3908  004ABA  EF65  F025         	goto	l2091
  3909  004ABE                     u4950:
  3910  004ABE  0E5F               	movlw	95
  3911  004AC0  1417               	andwf	toupper@c^0,w,c
  3912  004AC2  6E17               	movwf	?_toupper^0,c
  3913  004AC4  6A18               	clrf	(?_toupper+1)^0,c
  3914  004AC6  EF69  F025         	goto	l2096
  3915  004ACA                     l2091:
  3916  004ACA  C017  F017         	movff	toupper@c,?_toupper
  3917  004ACE  C018  F018         	movff	toupper@c+1,?_toupper+1
  3918  004AD2                     l2096:
  3919  004AD2  0012               	return		;funcret
  3920  004AD4                     __end_of_toupper:
  3921                           	callstack 0
  3922                           
  3923 ;; *************** function _islower *****************
  3924 ;; Defined at:
  3925 ;;		line 5 in file "/opt/microchip/xc8/v2.30/pic/sources/c99/common/islower.c"
  3926 ;; Parameters:    Size  Location     Type
  3927 ;;  c               2   16[COMRAM] int 
  3928 ;; Auto vars:     Size  Location     Type
  3929 ;;		None
  3930 ;; Return value:  Size  Location     Type
  3931 ;;                  2   16[COMRAM] int 
  3932 ;; Registers used:
  3933 ;;		wreg, status,2, status,0
  3934 ;; Tracked objects:
  3935 ;;		On entry : 0/0
  3936 ;;		On exit  : 0/0
  3937 ;;		Unchanged: 0/0
  3938 ;; Data sizes:     COMRAM   BANK0   BANK1   BANK2   BANK3   BANK4   BANK5   BANK6   BANK7   BANK8   BANK9  BANK10  BANK1
      +1  BANK12  BANK13  BANK14  BANK15  BANK16  BANK17  BANK18  BANK19  BANK20  BANK21  BANK22  BANK23  BANK24  BANK25  BANK2
      +6  BANK27  BANK28  BANK29  BANK30  BANK31
  3939 ;;      Params:         2       0       0       0       0       0       0       0       0       0       0       0       
      +0       0       0       0       0       0       0       0       0       0       0       0       0       0       0       
      +0       0       0       0       0       0
  3940 ;;      Locals:         0       0       0       0       0       0       0       0       0       0       0       0       
      +0       0       0       0       0       0       0       0       0       0       0       0       0       0       0       
      +0       0       0       0       0       0
  3941 ;;      Temps:          4       0       0       0       0       0       0       0       0       0       0       0       
      +0       0       0       0       0       0       0       0       0       0       0       0       0       0       0       
      +0       0       0       0       0       0
  3942 ;;      Totals:         6       0       0       0       0       0       0       0       0       0       0       0       
      +0       0       0       0       0       0       0       0       0       0       0       0       0       0       0       
      +0       0       0       0       0       0
  3943 ;;Total ram usage:        6 bytes
  3944 ;; Hardware stack levels used:    1
  3945 ;; Hardware stack levels required when called:    3
  3946 ;; This function calls:
  3947 ;;		Nothing
  3948 ;; This function is called by:
  3949 ;;		_toupper
  3950 ;; This function uses a non-reentrant model
  3951 ;;
  3952                           
  3953                           	psect	text11
  3954  004D2E                     __ptext11:
  3955                           	callstack 0
  3956  004D2E                     _islower:
  3957                           	callstack 22
  3958  004D2E  0E9F               	movlw	159
  3959  004D30  6E13               	movwf	??_islower^0,c
  3960  004D32  0EFF               	movlw	255
  3961  004D34  6E14               	movwf	(??_islower+1)^0,c
  3962  004D36  C011  F015         	movff	islower@c,??_islower+2
  3963  004D3A  C012  F016         	movff	islower@c+1,??_islower+3
  3964  004D3E  5013               	movf	??_islower^0,w,c
  3965  004D40  2615               	addwf	(??_islower+2)^0,f,c
  3966  004D42  5014               	movf	(??_islower+1)^0,w,c
  3967  004D44  2216               	addwfc	(??_islower+3)^0,f,c
  3968  004D46  5016               	movf	(??_islower+3)^0,w,c
  3969  004D48  E10A               	bnz	u4630
  3970  004D4A  0E1A               	movlw	26
  3971  004D4C  5C15               	subwf	(??_islower+2)^0,w,c
  3972  004D4E  A0D8               	btfss	status,0,c
  3973  004D50  EFAC  F026         	goto	u4631
  3974  004D54  EFAF  F026         	goto	u4630
  3975  004D58                     u4631:
  3976  004D58  0E01               	movlw	1
  3977  004D5A  EFB0  F026         	goto	u4640
  3978  004D5E                     u4630:
  3979  004D5E  0E00               	movlw	0
  3980  004D60                     u4640:
  3981  004D60  6E11               	movwf	?_islower^0,c
  3982  004D62  6A12               	clrf	(?_islower+1)^0,c
  3983  004D64  0012               	return		;funcret
  3984  004D66                     __end_of_islower:
  3985                           	callstack 0
  3986                           
  3987 ;; *************** function _isupper *****************
  3988 ;; Defined at:
  3989 ;;		line 5 in file "/opt/microchip/xc8/v2.30/pic/sources/c99/common/isupper.c"
  3990 ;; Parameters:    Size  Location     Type
  3991 ;;  c               2   16[COMRAM] int 
  3992 ;; Auto vars:     Size  Location     Type
  3993 ;;		None
  3994 ;; Return value:  Size  Location     Type
  3995 ;;                  2   16[COMRAM] int 
  3996 ;; Registers used:
  3997 ;;		wreg, status,2, status,0
  3998 ;; Tracked objects:
  3999 ;;		On entry : 0/0
  4000 ;;		On exit  : 0/0
  4001 ;;		Unchanged: 0/0
  4002 ;; Data sizes:     COMRAM   BANK0   BANK1   BANK2   BANK3   BANK4   BANK5   BANK6   BANK7   BANK8   BANK9  BANK10  BANK1
      +1  BANK12  BANK13  BANK14  BANK15  BANK16  BANK17  BANK18  BANK19  BANK20  BANK21  BANK22  BANK23  BANK24  BANK25  BANK2
      +6  BANK27  BANK28  BANK29  BANK30  BANK31
  4003 ;;      Params:         2       0       0       0       0       0       0       0       0       0       0       0       
      +0       0       0       0       0       0       0       0       0       0       0       0       0       0       0       
      +0       0       0       0       0       0
  4004 ;;      Locals:         0       0       0       0       0       0       0       0       0       0       0       0       
      +0       0       0       0       0       0       0       0       0       0       0       0       0       0       0       
      +0       0       0       0       0       0
  4005 ;;      Temps:          4       0       0       0       0       0       0       0       0       0       0       0       
      +0       0       0       0       0       0       0       0       0       0       0       0       0       0       0       
      +0       0       0       0       0       0
  4006 ;;      Totals:         6       0       0       0       0       0       0       0       0       0       0       0       
      +0       0       0       0       0       0       0       0       0       0       0       0       0       0       0       
      +0       0       0       0       0       0
  4007 ;;Total ram usage:        6 bytes
  4008 ;; Hardware stack levels used:    1
  4009 ;; Hardware stack levels required when called:    3
  4010 ;; This function calls:
  4011 ;;		Nothing
  4012 ;; This function is called by:
  4013 ;;		_xtoa
  4014 ;; This function uses a non-reentrant model
  4015 ;;
  4016                           
  4017                           	psect	text12
  4018  004D66                     __ptext12:
  4019                           	callstack 0
  4020  004D66                     _isupper:
  4021                           	callstack 23
  4022  004D66  0EBF               	movlw	191
  4023  004D68  6E13               	movwf	??_isupper^0,c
  4024  004D6A  0EFF               	movlw	255
  4025  004D6C  6E14               	movwf	(??_isupper+1)^0,c
  4026  004D6E  C011  F015         	movff	isupper@c,??_isupper+2
  4027  004D72  C012  F016         	movff	isupper@c+1,??_isupper+3
  4028  004D76  5013               	movf	??_isupper^0,w,c
  4029  004D78  2615               	addwf	(??_isupper+2)^0,f,c
  4030  004D7A  5014               	movf	(??_isupper+1)^0,w,c
  4031  004D7C  2216               	addwfc	(??_isupper+3)^0,f,c
  4032  004D7E  5016               	movf	(??_isupper+3)^0,w,c
  4033  004D80  E10A               	bnz	u4890
  4034  004D82  0E1A               	movlw	26
  4035  004D84  5C15               	subwf	(??_isupper+2)^0,w,c
  4036  004D86  A0D8               	btfss	status,0,c
  4037  004D88  EFC8  F026         	goto	u4891
  4038  004D8C  EFCB  F026         	goto	u4890
  4039  004D90                     u4891:
  4040  004D90  0E01               	movlw	1
  4041  004D92  EFCC  F026         	goto	u4900
  4042  004D96                     u4890:
  4043  004D96  0E00               	movlw	0
  4044  004D98                     u4900:
  4045  004D98  6E11               	movwf	?_isupper^0,c
  4046  004D9A  6A12               	clrf	(?_isupper+1)^0,c
  4047  004D9C  0012               	return		;funcret
  4048  004D9E                     __end_of_isupper:
  4049                           	callstack 0
  4050                           
  4051 ;; *************** function _isalpha *****************
  4052 ;; Defined at:
  4053 ;;		line 5 in file "/opt/microchip/xc8/v2.30/pic/sources/c99/common/isalpha.c"
  4054 ;; Parameters:    Size  Location     Type
  4055 ;;  c               2   16[COMRAM] int 
  4056 ;; Auto vars:     Size  Location     Type
  4057 ;;		None
  4058 ;; Return value:  Size  Location     Type
  4059 ;;                  2   16[COMRAM] int 
  4060 ;; Registers used:
  4061 ;;		wreg, status,2, status,0
  4062 ;; Tracked objects:
  4063 ;;		On entry : 0/0
  4064 ;;		On exit  : 0/0
  4065 ;;		Unchanged: 0/0
  4066 ;; Data sizes:     COMRAM   BANK0   BANK1   BANK2   BANK3   BANK4   BANK5   BANK6   BANK7   BANK8   BANK9  BANK10  BANK1
      +1  BANK12  BANK13  BANK14  BANK15  BANK16  BANK17  BANK18  BANK19  BANK20  BANK21  BANK22  BANK23  BANK24  BANK25  BANK2
      +6  BANK27  BANK28  BANK29  BANK30  BANK31
  4067 ;;      Params:         2       0       0       0       0       0       0       0       0       0       0       0       
      +0       0       0       0       0       0       0       0       0       0       0       0       0       0       0       
      +0       0       0       0       0       0
  4068 ;;      Locals:         0       0       0       0       0       0       0       0       0       0       0       0       
      +0       0       0       0       0       0       0       0       0       0       0       0       0       0       0       
      +0       0       0       0       0       0
  4069 ;;      Temps:          4       0       0       0       0       0       0       0       0       0       0       0       
      +0       0       0       0       0       0       0       0       0       0       0       0       0       0       0       
      +0       0       0       0       0       0
  4070 ;;      Totals:         6       0       0       0       0       0       0       0       0       0       0       0       
      +0       0       0       0       0       0       0       0       0       0       0       0       0       0       0       
      +0       0       0       0       0       0
  4071 ;;Total ram usage:        6 bytes
  4072 ;; Hardware stack levels used:    1
  4073 ;; Hardware stack levels required when called:    3
  4074 ;; This function calls:
  4075 ;;		Nothing
  4076 ;; This function is called by:
  4077 ;;		_xtoa
  4078 ;; This function uses a non-reentrant model
  4079 ;;
  4080                           
  4081                           	psect	text13
  4082  004CB8                     __ptext13:
  4083                           	callstack 0
  4084  004CB8                     _isalpha:
  4085                           	callstack 23
  4086  004CB8  0E9F               	movlw	159
  4087  004CBA  6E13               	movwf	??_isalpha^0,c
  4088  004CBC  0EFF               	movlw	255
  4089  004CBE  6E14               	movwf	(??_isalpha+1)^0,c
  4090  004CC0  0E20               	movlw	32
  4091  004CC2  1011               	iorwf	isalpha@c^0,w,c
  4092  004CC4  6E15               	movwf	(??_isalpha+2)^0,c
  4093  004CC6  0E00               	movlw	0
  4094  004CC8  1012               	iorwf	(isalpha@c+1)^0,w,c
  4095  004CCA  6E16               	movwf	(??_isalpha+3)^0,c
  4096  004CCC  5013               	movf	??_isalpha^0,w,c
  4097  004CCE  2615               	addwf	(??_isalpha+2)^0,f,c
  4098  004CD0  5014               	movf	(??_isalpha+1)^0,w,c
  4099  004CD2  2216               	addwfc	(??_isalpha+3)^0,f,c
  4100  004CD4  5016               	movf	(??_isalpha+3)^0,w,c
  4101  004CD6  E10A               	bnz	u4910
  4102  004CD8  0E1A               	movlw	26
  4103  004CDA  5C15               	subwf	(??_isalpha+2)^0,w,c
  4104  004CDC  A0D8               	btfss	status,0,c
  4105  004CDE  EF73  F026         	goto	u4911
  4106  004CE2  EF76  F026         	goto	u4910
  4107  004CE6                     u4911:
  4108  004CE6  0E01               	movlw	1
  4109  004CE8  EF77  F026         	goto	u4920
  4110  004CEC                     u4910:
  4111  004CEC  0E00               	movlw	0
  4112  004CEE                     u4920:
  4113  004CEE  6E11               	movwf	?_isalpha^0,c
  4114  004CF0  6A12               	clrf	(?_isalpha+1)^0,c
  4115  004CF2  0012               	return		;funcret
  4116  004CF4                     __end_of_isalpha:
  4117                           	callstack 0
  4118                           
  4119 ;; *************** function _utoa *****************
  4120 ;; Defined at:
  4121 ;;		line 615 in file "/opt/microchip/xc8/v2.30/pic/sources/c99/common/doprnt.c"
  4122 ;; Parameters:    Size  Location     Type
  4123 ;;  fp              2   43[COMRAM] PTR struct _IO_FILE
  4124 ;;		 -> sprintf@f(6), 
  4125 ;;  d               8   45[COMRAM] unsigned long long 
  4126 ;; Auto vars:     Size  Location     Type
  4127 ;;  n               8    4[BANK0 ] unsigned long long 
  4128 ;;  i               2   12[BANK0 ] int 
  4129 ;;  w               2    2[BANK0 ] int 
  4130 ;;  p               2    0[BANK0 ] int 
  4131 ;; Return value:  Size  Location     Type
  4132 ;;                  2   43[COMRAM] int 
  4133 ;; Registers used:
  4134 ;;		wreg, fsr1l, fsr1h, fsr2l, fsr2h, status,2, status,0, cstack
  4135 ;; Tracked objects:
  4136 ;;		On entry : 0/0
  4137 ;;		On exit  : 0/0
  4138 ;;		Unchanged: 0/0
  4139 ;; Data sizes:     COMRAM   BANK0   BANK1   BANK2   BANK3   BANK4   BANK5   BANK6   BANK7   BANK8   BANK9  BANK10  BANK1
      +1  BANK12  BANK13  BANK14  BANK15  BANK16  BANK17  BANK18  BANK19  BANK20  BANK21  BANK22  BANK23  BANK24  BANK25  BANK2
      +6  BANK27  BANK28  BANK29  BANK30  BANK31
  4140 ;;      Params:        10       0       0       0       0       0       0       0       0       0       0       0       
      +0       0       0       0       0       0       0       0       0       0       0       0       0       0       0       
      +0       0       0       0       0       0
  4141 ;;      Locals:         0      14       0       0       0       0       0       0       0       0       0       0       
      +0       0       0       0       0       0       0       0       0       0       0       0       0       0       0       
      +0       0       0       0       0       0
  4142 ;;      Temps:          8       0       0       0       0       0       0       0       0       0       0       0       
      +0       0       0       0       0       0       0       0       0       0       0       0       0       0       0       
      +0       0       0       0       0       0
  4143 ;;      Totals:        18      14       0       0       0       0       0       0       0       0       0       0       
      +0       0       0       0       0       0       0       0       0       0       0       0       0       0       0       
      +0       0       0       0       0       0
  4144 ;;Total ram usage:       32 bytes
  4145 ;; Hardware stack levels used:    1
  4146 ;; Hardware stack levels required when called:    7
  4147 ;; This function calls:
  4148 ;;		___lodiv
  4149 ;;		___lomod
  4150 ;;		_pad
  4151 ;; This function is called by:
  4152 ;;		_vfpfcnvrt
  4153 ;; This function uses a non-reentrant model
  4154 ;;
  4155                           
  4156                           	psect	text14
  4157  002F76                     __ptext14:
  4158                           	callstack 0
  4159  002F76                     _utoa:
  4160                           	callstack 20
  4161  002F76                     
  4162                           ;/opt/microchip/xc8/v2.30/pic/sources/c99/common/doprnt.c: 615: static int utoa(FILE *fp
      +                          , unsigned long long d);/opt/microchip/xc8/v2.30/pic/sources/c99/common/doprnt.c: 616: {
      +                          ;/opt/microchip/xc8/v2.30/pic/sources/c99/common/doprnt.c: 617:     int i, p, w;;/opt/mi
      +                          crochip/xc8/v2.30/pic/sources/c99/common/doprnt.c: 618:     unsigned long long n;;/opt/m
      +                          icrochip/xc8/v2.30/pic/sources/c99/common/doprnt.c: 621:     if (!(prec < 0)) {
  4163  002F76  BE45               	btfsc	(_prec+1)^0,7,c
  4164  002F78  EFC0  F017         	goto	u5271
  4165  002F7C  EFC2  F017         	goto	u5270
  4166  002F80                     u5271:
  4167  002F80  EFC3  F017         	goto	l5703
  4168  002F84                     u5270:
  4169  002F84                     
  4170                           ;/opt/microchip/xc8/v2.30/pic/sources/c99/common/doprnt.c: 622:         flags &= ~(1 << 
      +                          1);
  4171  002F84  9246               	bcf	_flags^0,1,c
  4172  002F86                     l5703:
  4173                           
  4174                           ;/opt/microchip/xc8/v2.30/pic/sources/c99/common/doprnt.c: 624:     p = (0 < prec) ? pre
      +                          c : 1;
  4175  002F86  BE45               	btfsc	(_prec+1)^0,7,c
  4176  002F88  EFD0  F017         	goto	u5280
  4177  002F8C  5045               	movf	(_prec+1)^0,w,c
  4178  002F8E  E106               	bnz	u5281
  4179  002F90  0444               	decf	_prec^0,w,c
  4180  002F92  B0D8               	btfsc	status,0,c
  4181  002F94  EFCE  F017         	goto	u5281
  4182  002F98  EFD0  F017         	goto	u5280
  4183  002F9C                     u5281:
  4184  002F9C  EFD7  F017         	goto	l1897
  4185  002FA0                     u5280:
  4186  002FA0  0E00               	movlw	0
  4187  002FA2  0100               	movlb	0	; () banked
  4188  002FA4  6F61               	movwf	(utoa@p+1)& (0+255),b
  4189  002FA6  0E01               	movlw	1
  4190  002FA8  6F60               	movwf	utoa@p& (0+255),b
  4191  002FAA  EFDB  F017         	goto	l1899
  4192  002FAE                     l1897:
  4193  002FAE  C044  F060         	movff	_prec,utoa@p
  4194  002FB2  C045  F061         	movff	_prec+1,utoa@p+1
  4195  002FB6                     l1899:
  4196                           
  4197                           ;/opt/microchip/xc8/v2.30/pic/sources/c99/common/doprnt.c: 625:     w = width;
  4198  002FB6  C042  F062         	movff	_width,utoa@w
  4199  002FBA  C043  F063         	movff	_width+1,utoa@w+1
  4200                           
  4201                           ;/opt/microchip/xc8/v2.30/pic/sources/c99/common/doprnt.c: 628:     n = d;
  4202  002FBE  C02E  F064         	movff	utoa@d,utoa@n
  4203  002FC2  C02F  F065         	movff	utoa@d+1,utoa@n+1
  4204  002FC6  C030  F066         	movff	utoa@d+2,utoa@n+2
  4205  002FCA  C031  F067         	movff	utoa@d+3,utoa@n+3
  4206  002FCE  C032  F068         	movff	utoa@d+4,utoa@n+4
  4207  002FD2  C033  F069         	movff	utoa@d+5,utoa@n+5
  4208  002FD6  C034  F06A         	movff	utoa@d+6,utoa@n+6
  4209  002FDA  C035  F06B         	movff	utoa@d+7,utoa@n+7
  4210  002FDE                     
  4211                           ;/opt/microchip/xc8/v2.30/pic/sources/c99/common/doprnt.c: 629:     i = sizeof(dbuf) - 1
      +                          ;
  4212  002FDE  0E00               	movlw	0
  4213  002FE0  0100               	movlb	0	; () banked
  4214  002FE2  6F6D               	movwf	(utoa@i+1)& (0+255),b
  4215  002FE4  0E1F               	movlw	31
  4216  002FE6  6F6C               	movwf	utoa@i& (0+255),b
  4217  002FE8                     
  4218                           ; BSR set to: 0
  4219                           ;/opt/microchip/xc8/v2.30/pic/sources/c99/common/doprnt.c: 630:     dbuf[i] = '\0';
  4220  002FE8  0E00               	movlw	0
  4221  002FEA  0101               	movlb	1	; () banked
  4222  002FEC  6FC0               	movwf	(_dbuf+31)& (0+255),b
  4223                           
  4224                           ;/opt/microchip/xc8/v2.30/pic/sources/c99/common/doprnt.c: 631:     while (i && (n || (0
      +                           < p) || ((0 < w) && (flags & (1 << 1))))) {
  4225  002FEE  EF70  F018         	goto	l5721
  4226  002FF2                     l5711:
  4227                           
  4228                           ; BSR set to: 0
  4229                           ;/opt/microchip/xc8/v2.30/pic/sources/c99/common/doprnt.c: 632:         --i;
  4230  002FF2  076C               	decf	utoa@i& (0+255),f,b
  4231  002FF4  A0D8               	btfss	status,0,c
  4232  002FF6  076D               	decf	(utoa@i+1)& (0+255),f,b
  4233  002FF8                     
  4234                           ; BSR set to: 0
  4235                           ;/opt/microchip/xc8/v2.30/pic/sources/c99/common/doprnt.c: 633:         dbuf[i] = '0' + 
      +                          (n % 10);
  4236  002FF8  0EA1               	movlw	low _dbuf
  4237  002FFA  256C               	addwf	utoa@i& (0+255),w,b
  4238  002FFC  6ED9               	movwf	fsr2l,c
  4239  002FFE  0E01               	movlw	high _dbuf
  4240  003000  216D               	addwfc	(utoa@i+1)& (0+255),w,b
  4241  003002  6EDA               	movwf	fsr2h,c
  4242  003004  C064  F011         	movff	utoa@n,___lomod@dividend
  4243  003008  C065  F012         	movff	utoa@n+1,___lomod@dividend+1
  4244  00300C  C066  F013         	movff	utoa@n+2,___lomod@dividend+2
  4245  003010  C067  F014         	movff	utoa@n+3,___lomod@dividend+3
  4246  003014  C068  F015         	movff	utoa@n+4,___lomod@dividend+4
  4247  003018  C069  F016         	movff	utoa@n+5,___lomod@dividend+5
  4248  00301C  C06A  F017         	movff	utoa@n+6,___lomod@dividend+6
  4249  003020  C06B  F018         	movff	utoa@n+7,___lomod@dividend+7
  4250  003024  0E0A               	movlw	10
  4251  003026  6E19               	movwf	___lomod@divisor^0,c
  4252  003028  0E00               	movlw	0
  4253  00302A  6E1A               	movwf	(___lomod@divisor+1)^0,c
  4254  00302C  0E00               	movlw	0
  4255  00302E  6E1B               	movwf	(___lomod@divisor+2)^0,c
  4256  003030  0E00               	movlw	0
  4257  003032  6E1C               	movwf	(___lomod@divisor+3)^0,c
  4258  003034  0E00               	movlw	0
  4259  003036  6E1D               	movwf	(___lomod@divisor+4)^0,c
  4260  003038  0E00               	movlw	0
  4261  00303A  6E1E               	movwf	(___lomod@divisor+5)^0,c
  4262  00303C  0E00               	movlw	0
  4263  00303E  6E1F               	movwf	(___lomod@divisor+6)^0,c
  4264  003040  0E00               	movlw	0
  4265  003042  6E20               	movwf	(___lomod@divisor+7)^0,c
  4266  003044  ECD3  F01F         	call	___lomod	;wreg free
  4267  003048  C011  F036         	movff	?___lomod,??_utoa
  4268  00304C  C012  F037         	movff	?___lomod+1,??_utoa+1
  4269  003050  C013  F038         	movff	?___lomod+2,??_utoa+2
  4270  003054  C014  F039         	movff	?___lomod+3,??_utoa+3
  4271  003058  C015  F03A         	movff	?___lomod+4,??_utoa+4
  4272  00305C  C016  F03B         	movff	?___lomod+5,??_utoa+5
  4273  003060  C017  F03C         	movff	?___lomod+6,??_utoa+6
  4274  003064  C018  F03D         	movff	?___lomod+7,??_utoa+7
  4275  003068  5036               	movf	??_utoa^0,w,c
  4276  00306A  0F30               	addlw	48
  4277  00306C  6EDF               	movwf	indf2,c
  4278  00306E                     
  4279                           ;/opt/microchip/xc8/v2.30/pic/sources/c99/common/doprnt.c: 634:         --p;
  4280  00306E  0100               	movlb	0	; () banked
  4281  003070  0760               	decf	utoa@p& (0+255),f,b
  4282  003072  A0D8               	btfss	status,0,c
  4283  003074  0761               	decf	(utoa@p+1)& (0+255),f,b
  4284  003076                     
  4285                           ; BSR set to: 0
  4286                           ;/opt/microchip/xc8/v2.30/pic/sources/c99/common/doprnt.c: 635:         --w;
  4287  003076  0762               	decf	utoa@w& (0+255),f,b
  4288  003078  A0D8               	btfss	status,0,c
  4289  00307A  0763               	decf	(utoa@w+1)& (0+255),f,b
  4290  00307C                     
  4291                           ; BSR set to: 0
  4292                           ;/opt/microchip/xc8/v2.30/pic/sources/c99/common/doprnt.c: 636:         n = n / 10;
  4293  00307C  C064  F011         	movff	utoa@n,___lodiv@dividend
  4294  003080  C065  F012         	movff	utoa@n+1,___lodiv@dividend+1
  4295  003084  C066  F013         	movff	utoa@n+2,___lodiv@dividend+2
  4296  003088  C067  F014         	movff	utoa@n+3,___lodiv@dividend+3
  4297  00308C  C068  F015         	movff	utoa@n+4,___lodiv@dividend+4
  4298  003090  C069  F016         	movff	utoa@n+5,___lodiv@dividend+5
  4299  003094  C06A  F017         	movff	utoa@n+6,___lodiv@dividend+6
  4300  003098  C06B  F018         	movff	utoa@n+7,___lodiv@dividend+7
  4301  00309C  0E0A               	movlw	10
  4302  00309E  6E19               	movwf	___lodiv@divisor^0,c
  4303  0030A0  0E00               	movlw	0
  4304  0030A2  6E1A               	movwf	(___lodiv@divisor+1)^0,c
  4305  0030A4  0E00               	movlw	0
  4306  0030A6  6E1B               	movwf	(___lodiv@divisor+2)^0,c
  4307  0030A8  0E00               	movlw	0
  4308  0030AA  6E1C               	movwf	(___lodiv@divisor+3)^0,c
  4309  0030AC  0E00               	movlw	0
  4310  0030AE  6E1D               	movwf	(___lodiv@divisor+4)^0,c
  4311  0030B0  0E00               	movlw	0
  4312  0030B2  6E1E               	movwf	(___lodiv@divisor+5)^0,c
  4313  0030B4  0E00               	movlw	0
  4314  0030B6  6E1F               	movwf	(___lodiv@divisor+6)^0,c
  4315  0030B8  0E00               	movlw	0
  4316  0030BA  6E20               	movwf	(___lodiv@divisor+7)^0,c
  4317  0030BC  ECA0  F01D         	call	___lodiv	;wreg free
  4318  0030C0  C011  F064         	movff	?___lodiv,utoa@n
  4319  0030C4  C012  F065         	movff	?___lodiv+1,utoa@n+1
  4320  0030C8  C013  F066         	movff	?___lodiv+2,utoa@n+2
  4321  0030CC  C014  F067         	movff	?___lodiv+3,utoa@n+3
  4322  0030D0  C015  F068         	movff	?___lodiv+4,utoa@n+4
  4323  0030D4  C016  F069         	movff	?___lodiv+5,utoa@n+5
  4324  0030D8  C017  F06A         	movff	?___lodiv+6,utoa@n+6
  4325  0030DC  C018  F06B         	movff	?___lodiv+7,utoa@n+7
  4326  0030E0                     l5721:
  4327                           
  4328                           ;/opt/microchip/xc8/v2.30/pic/sources/c99/common/doprnt.c: 631:     while (i && (n || (0
      +                           < p) || ((0 < w) && (flags & (1 << 1))))) {
  4329  0030E0  0100               	movlb	0	; () banked
  4330  0030E2  516C               	movf	utoa@i& (0+255),w,b
  4331  0030E4  116D               	iorwf	(utoa@i+1)& (0+255),w,b
  4332  0030E6  B4D8               	btfsc	status,2,c
  4333  0030E8  EF78  F018         	goto	u5291
  4334  0030EC  EF7A  F018         	goto	u5290
  4335  0030F0                     u5291:
  4336  0030F0  EFAA  F018         	goto	l5731
  4337  0030F4                     u5290:
  4338  0030F4                     
  4339                           ; BSR set to: 0
  4340  0030F4  5164               	movf	utoa@n& (0+255),w,b
  4341  0030F6  1165               	iorwf	(utoa@n+1)& (0+255),w,b
  4342  0030F8  1166               	iorwf	(utoa@n+2)& (0+255),w,b
  4343  0030FA  1167               	iorwf	(utoa@n+3)& (0+255),w,b
  4344  0030FC  1168               	iorwf	(utoa@n+4)& (0+255),w,b
  4345  0030FE  1169               	iorwf	(utoa@n+5)& (0+255),w,b
  4346  003100  116A               	iorwf	(utoa@n+6)& (0+255),w,b
  4347  003102  116B               	iorwf	(utoa@n+7)& (0+255),w,b
  4348  003104  A4D8               	btfss	status,2,c
  4349  003106  EF87  F018         	goto	u5301
  4350  00310A  EF89  F018         	goto	u5300
  4351  00310E                     u5301:
  4352  00310E  EFF9  F017         	goto	l5711
  4353  003112                     u5300:
  4354  003112                     
  4355                           ; BSR set to: 0
  4356  003112  BF61               	btfsc	(utoa@p+1)& (0+255),7,b
  4357  003114  EF96  F018         	goto	u5310
  4358  003118  5161               	movf	(utoa@p+1)& (0+255),w,b
  4359  00311A  E106               	bnz	u5311
  4360  00311C  0560               	decf	utoa@p& (0+255),w,b
  4361  00311E  B0D8               	btfsc	status,0,c
  4362  003120  EF94  F018         	goto	u5311
  4363  003124  EF96  F018         	goto	u5310
  4364  003128                     u5311:
  4365  003128  EFF9  F017         	goto	l5711
  4366  00312C                     u5310:
  4367  00312C                     
  4368                           ; BSR set to: 0
  4369  00312C  BF63               	btfsc	(utoa@w+1)& (0+255),7,b
  4370  00312E  EFA1  F018         	goto	u5321
  4371  003132  5163               	movf	(utoa@w+1)& (0+255),w,b
  4372  003134  E108               	bnz	u5320
  4373  003136  0562               	decf	utoa@w& (0+255),w,b
  4374  003138  A0D8               	btfss	status,0,c
  4375  00313A  EFA1  F018         	goto	u5321
  4376  00313E  EFA3  F018         	goto	u5320
  4377  003142                     u5321:
  4378  003142  EFAA  F018         	goto	l5731
  4379  003146                     u5320:
  4380  003146                     
  4381                           ; BSR set to: 0
  4382  003146  B246               	btfsc	_flags^0,1,c
  4383  003148  EFA8  F018         	goto	u5331
  4384  00314C  EFAA  F018         	goto	u5330
  4385  003150                     u5331:
  4386  003150  EFF9  F017         	goto	l5711
  4387  003154                     u5330:
  4388  003154                     l5731:
  4389                           
  4390                           ; BSR set to: 0
  4391                           ;/opt/microchip/xc8/v2.30/pic/sources/c99/common/doprnt.c: 640:     return pad(fp, &dbuf
      +                          [i], w);
  4392  003154  C02C  F021         	movff	utoa@fp,pad@fp
  4393  003158  C02D  F022         	movff	utoa@fp+1,pad@fp+1
  4394  00315C  0EA1               	movlw	low _dbuf
  4395  00315E  256C               	addwf	utoa@i& (0+255),w,b
  4396  003160  6E23               	movwf	pad@buf^0,c
  4397  003162  0E01               	movlw	high _dbuf
  4398  003164  216D               	addwfc	(utoa@i+1)& (0+255),w,b
  4399  003166  6E24               	movwf	(pad@buf+1)^0,c
  4400  003168  C062  F025         	movff	utoa@w,pad@p
  4401  00316C  C063  F026         	movff	utoa@w+1,pad@p+1
  4402  003170  EC9D  F020         	call	_pad	;wreg free
  4403  003174  C021  F02C         	movff	?_pad,?_utoa
  4404  003178  C022  F02D         	movff	?_pad+1,?_utoa+1
  4405  00317C  0012               	return		;funcret
  4406  00317E                     __end_of_utoa:
  4407                           	callstack 0
  4408                           
  4409 ;; *************** function _pad *****************
  4410 ;; Defined at:
  4411 ;;		line 72 in file "/opt/microchip/xc8/v2.30/pic/sources/c99/common/doprnt.c"
  4412 ;; Parameters:    Size  Location     Type
  4413 ;;  fp              2   32[COMRAM] PTR struct _IO_FILE
  4414 ;;		 -> sprintf@f(6), 
  4415 ;;  buf             2   34[COMRAM] PTR unsigned char 
  4416 ;;		 -> dbuf(32), 
  4417 ;;  p               2   36[COMRAM] int 
  4418 ;; Auto vars:     Size  Location     Type
  4419 ;;  w               2   41[COMRAM] int 
  4420 ;;  i               2   39[COMRAM] int 
  4421 ;; Return value:  Size  Location     Type
  4422 ;;                  2   32[COMRAM] int 
  4423 ;; Registers used:
  4424 ;;		wreg, fsr1l, fsr1h, fsr2l, fsr2h, status,2, status,0, cstack
  4425 ;; Tracked objects:
  4426 ;;		On entry : 0/0
  4427 ;;		On exit  : 0/0
  4428 ;;		Unchanged: 0/0
  4429 ;; Data sizes:     COMRAM   BANK0   BANK1   BANK2   BANK3   BANK4   BANK5   BANK6   BANK7   BANK8   BANK9  BANK10  BANK1
      +1  BANK12  BANK13  BANK14  BANK15  BANK16  BANK17  BANK18  BANK19  BANK20  BANK21  BANK22  BANK23  BANK24  BANK25  BANK2
      +6  BANK27  BANK28  BANK29  BANK30  BANK31
  4430 ;;      Params:         6       0       0       0       0       0       0       0       0       0       0       0       
      +0       0       0       0       0       0       0       0       0       0       0       0       0       0       0       
      +0       0       0       0       0       0
  4431 ;;      Locals:         4       0       0       0       0       0       0       0       0       0       0       0       
      +0       0       0       0       0       0       0       0       0       0       0       0       0       0       0       
      +0       0       0       0       0       0
  4432 ;;      Temps:          1       0       0       0       0       0       0       0       0       0       0       0       
      +0       0       0       0       0       0       0       0       0       0       0       0       0       0       0       
      +0       0       0       0       0       0
  4433 ;;      Totals:        11       0       0       0       0       0       0       0       0       0       0       0       
      +0       0       0       0       0       0       0       0       0       0       0       0       0       0       0       
      +0       0       0       0       0       0
  4434 ;;Total ram usage:       11 bytes
  4435 ;; Hardware stack levels used:    1
  4436 ;; Hardware stack levels required when called:    6
  4437 ;; This function calls:
  4438 ;;		_fputc
  4439 ;;		_fputs
  4440 ;;		_strlen
  4441 ;; This function is called by:
  4442 ;;		_utoa
  4443 ;;		_xtoa
  4444 ;; This function uses a non-reentrant model
  4445 ;;
  4446                           
  4447                           	psect	text15
  4448  00413A                     __ptext15:
  4449                           	callstack 0
  4450  00413A                     _pad:
  4451                           	callstack 20
  4452  00413A                     
  4453                           ;/opt/microchip/xc8/v2.30/pic/sources/c99/common/doprnt.c: 72: static int pad(FILE *fp, 
      +                          char *buf, int p);/opt/microchip/xc8/v2.30/pic/sources/c99/common/doprnt.c: 73: {;/opt/m
      +                          icrochip/xc8/v2.30/pic/sources/c99/common/doprnt.c: 74:     int i, w;;/opt/microchip/xc8
      +                          /v2.30/pic/sources/c99/common/doprnt.c: 77:     if (flags & (1 << 0)) {
  4454  00413A  A046               	btfss	_flags^0,0,c
  4455  00413C  EFA2  F020         	goto	u4851
  4456  004140  EFA4  F020         	goto	u4850
  4457  004144                     u4851:
  4458  004144  EFAE  F020         	goto	l5433
  4459  004148                     u4850:
  4460  004148                     
  4461                           ;/opt/microchip/xc8/v2.30/pic/sources/c99/common/doprnt.c: 78:         fputs((const char
      +                           *)buf, fp);
  4462  004148  C023  F01A         	movff	pad@buf,fputs@s
  4463  00414C  C024  F01B         	movff	pad@buf+1,fputs@s+1
  4464  004150  C021  F01C         	movff	pad@fp,fputs@fp
  4465  004154  C022  F01D         	movff	pad@fp+1,fputs@fp+1
  4466  004158  EC3A  F026         	call	_fputs	;wreg free
  4467  00415C                     l5433:
  4468                           
  4469                           ;/opt/microchip/xc8/v2.30/pic/sources/c99/common/doprnt.c: 82:     w = (p < 0) ? 0 : p;
  4470  00415C  BE26               	btfsc	(pad@p+1)^0,7,c
  4471  00415E  EFB3  F020         	goto	u4861
  4472  004162  EFB5  F020         	goto	u4860
  4473  004166                     u4861:
  4474  004166  EFBB  F020         	goto	l5437
  4475  00416A                     u4860:
  4476  00416A  C025  F02A         	movff	pad@p,pad@w
  4477  00416E  C026  F02B         	movff	pad@p+1,pad@w+1
  4478  004172  EFBF  F020         	goto	l1887
  4479  004176                     l5437:
  4480  004176  0E00               	movlw	0
  4481  004178  6E2B               	movwf	(pad@w+1)^0,c
  4482  00417A  0E00               	movlw	0
  4483  00417C  6E2A               	movwf	pad@w^0,c
  4484  00417E                     l1887:
  4485                           
  4486                           ;/opt/microchip/xc8/v2.30/pic/sources/c99/common/doprnt.c: 83:     i = 0;
  4487  00417E  0E00               	movlw	0
  4488  004180  6E29               	movwf	(pad@i+1)^0,c
  4489  004182  0E00               	movlw	0
  4490  004184  6E28               	movwf	pad@i^0,c
  4491                           
  4492                           ;/opt/microchip/xc8/v2.30/pic/sources/c99/common/doprnt.c: 84:     while (i < w) {
  4493  004186  EFD1  F020         	goto	l5443
  4494  00418A                     l5439:
  4495                           
  4496                           ;/opt/microchip/xc8/v2.30/pic/sources/c99/common/doprnt.c: 85:         fputc(' ', fp);
  4497  00418A  0E00               	movlw	0
  4498  00418C  6E12               	movwf	(fputc@c+1)^0,c
  4499  00418E  0E20               	movlw	32
  4500  004190  6E11               	movwf	fputc@c^0,c
  4501  004192  C021  F013         	movff	pad@fp,fputc@fp
  4502  004196  C022  F014         	movff	pad@fp+1,fputc@fp+1
  4503  00419A  EC8F  F01E         	call	_fputc	;wreg free
  4504  00419E                     
  4505                           ;/opt/microchip/xc8/v2.30/pic/sources/c99/common/doprnt.c: 86:         ++i;
  4506  00419E  4A28               	infsnz	pad@i^0,f,c
  4507  0041A0  2A29               	incf	(pad@i+1)^0,f,c
  4508  0041A2                     l5443:
  4509                           
  4510                           ;/opt/microchip/xc8/v2.30/pic/sources/c99/common/doprnt.c: 84:     while (i < w) {
  4511  0041A2  502A               	movf	pad@w^0,w,c
  4512  0041A4  5C28               	subwf	pad@i^0,w,c
  4513  0041A6  5029               	movf	(pad@i+1)^0,w,c
  4514  0041A8  0A80               	xorlw	128
  4515  0041AA  6E27               	movwf	??_pad^0,c
  4516  0041AC  502B               	movf	(pad@w+1)^0,w,c
  4517  0041AE  0A80               	xorlw	128
  4518  0041B0  5827               	subwfb	??_pad^0,w,c
  4519  0041B2  A0D8               	btfss	status,0,c
  4520  0041B4  EFDE  F020         	goto	u4871
  4521  0041B8  EFE0  F020         	goto	u4870
  4522  0041BC                     u4871:
  4523  0041BC  EFC5  F020         	goto	l5439
  4524  0041C0                     u4870:
  4525  0041C0                     
  4526                           ;/opt/microchip/xc8/v2.30/pic/sources/c99/common/doprnt.c: 90:     if (!(flags & (1 << 0
      +                          ))) {
  4527  0041C0  B046               	btfsc	_flags^0,0,c
  4528  0041C2  EFE5  F020         	goto	u4881
  4529  0041C6  EFE7  F020         	goto	u4880
  4530  0041CA                     u4881:
  4531  0041CA  EFF1  F020         	goto	l5447
  4532  0041CE                     u4880:
  4533  0041CE                     
  4534                           ;/opt/microchip/xc8/v2.30/pic/sources/c99/common/doprnt.c: 91:         fputs((const char
      +                           *)buf, fp);
  4535  0041CE  C023  F01A         	movff	pad@buf,fputs@s
  4536  0041D2  C024  F01B         	movff	pad@buf+1,fputs@s+1
  4537  0041D6  C021  F01C         	movff	pad@fp,fputs@fp
  4538  0041DA  C022  F01D         	movff	pad@fp+1,fputs@fp+1
  4539  0041DE  EC3A  F026         	call	_fputs	;wreg free
  4540  0041E2                     l5447:
  4541                           
  4542                           ;/opt/microchip/xc8/v2.30/pic/sources/c99/common/doprnt.c: 94:     return (int)(strlen(b
      +                          uf) + (size_t)w);
  4543  0041E2  C023  F011         	movff	pad@buf,strlen@s
  4544  0041E6  C024  F012         	movff	pad@buf+1,strlen@s+1
  4545  0041EA  EC7A  F026         	call	_strlen	;wreg free
  4546  0041EE  502A               	movf	pad@w^0,w,c
  4547  0041F0  2411               	addwf	?_strlen^0,w,c
  4548  0041F2  6E21               	movwf	?_pad^0,c
  4549  0041F4  502B               	movf	(pad@w+1)^0,w,c
  4550  0041F6  2012               	addwfc	(?_strlen+1)^0,w,c
  4551  0041F8  6E22               	movwf	(?_pad+1)^0,c
  4552  0041FA  0012               	return		;funcret
  4553  0041FC                     __end_of_pad:
  4554                           	callstack 0
  4555                           
  4556 ;; *************** function _strlen *****************
  4557 ;; Defined at:
  4558 ;;		line 5 in file "/opt/microchip/xc8/v2.30/pic/sources/c99/common/strlen.c"
  4559 ;; Parameters:    Size  Location     Type
  4560 ;;  s               2   16[COMRAM] PTR const unsigned char 
  4561 ;;		 -> dbuf(32), uart1_tx_str_crlf@new_buff(64), uart1_rx_buff_use(64), main@msg_buff(64), 
  4562 ;; Auto vars:     Size  Location     Type
  4563 ;;  a               2   18[COMRAM] PTR const unsigned char 
  4564 ;;		 -> dbuf(32), uart1_tx_str_crlf@new_buff(64), uart1_rx_buff_use(64), main@msg_buff(64), 
  4565 ;; Return value:  Size  Location     Type
  4566 ;;                  2   16[COMRAM] unsigned int 
  4567 ;; Registers used:
  4568 ;;		wreg, fsr2l, fsr2h, status,2, status,0
  4569 ;; Tracked objects:
  4570 ;;		On entry : 0/0
  4571 ;;		On exit  : 0/0
  4572 ;;		Unchanged: 0/0
  4573 ;; Data sizes:     COMRAM   BANK0   BANK1   BANK2   BANK3   BANK4   BANK5   BANK6   BANK7   BANK8   BANK9  BANK10  BANK1
      +1  BANK12  BANK13  BANK14  BANK15  BANK16  BANK17  BANK18  BANK19  BANK20  BANK21  BANK22  BANK23  BANK24  BANK25  BANK2
      +6  BANK27  BANK28  BANK29  BANK30  BANK31
  4574 ;;      Params:         2       0       0       0       0       0       0       0       0       0       0       0       
      +0       0       0       0       0       0       0       0       0       0       0       0       0       0       0       
      +0       0       0       0       0       0
  4575 ;;      Locals:         2       0       0       0       0       0       0       0       0       0       0       0       
      +0       0       0       0       0       0       0       0       0       0       0       0       0       0       0       
      +0       0       0       0       0       0
  4576 ;;      Temps:          0       0       0       0       0       0       0       0       0       0       0       0       
      +0       0       0       0       0       0       0       0       0       0       0       0       0       0       0       
      +0       0       0       0       0       0
  4577 ;;      Totals:         4       0       0       0       0       0       0       0       0       0       0       0       
      +0       0       0       0       0       0       0       0       0       0       0       0       0       0       0       
      +0       0       0       0       0       0
  4578 ;;Total ram usage:        4 bytes
  4579 ;; Hardware stack levels used:    1
  4580 ;; Hardware stack levels required when called:    3
  4581 ;; This function calls:
  4582 ;;		Nothing
  4583 ;; This function is called by:
  4584 ;;		_uart1_tx_str
  4585 ;;		_uart1_tx_str_crlf
  4586 ;;		_pad
  4587 ;;		_strcat
  4588 ;; This function uses a non-reentrant model
  4589 ;;
  4590                           
  4591                           	psect	text16
  4592  004CF4                     __ptext16:
  4593                           	callstack 0
  4594  004CF4                     _strlen:
  4595                           	callstack 25
  4596  004CF4  C011  F013         	movff	strlen@s,strlen@a
  4597  004CF8  C012  F014         	movff	strlen@s+1,strlen@a+1
  4598  004CFC  EF82  F026         	goto	l5281
  4599  004D00                     l5279:
  4600  004D00  4A11               	infsnz	strlen@s^0,f,c
  4601  004D02  2A12               	incf	(strlen@s+1)^0,f,c
  4602  004D04                     l5281:
  4603  004D04  0060  F047  FFD9   	movff	strlen@s,fsr2l
  4604  004D0A  0060  F04B  FFDA   	movff	strlen@s+1,fsr2h
  4605  004D10  50DF               	movf	indf2,w,c
  4606  004D12  A4D8               	btfss	status,2,c
  4607  004D14  EF8E  F026         	goto	u4611
  4608  004D18  EF90  F026         	goto	u4610
  4609  004D1C                     u4611:
  4610  004D1C  EF80  F026         	goto	l5279
  4611  004D20                     u4610:
  4612  004D20  5013               	movf	strlen@a^0,w,c
  4613  004D22  5C11               	subwf	strlen@s^0,w,c
  4614  004D24  6E11               	movwf	?_strlen^0,c
  4615  004D26  5014               	movf	(strlen@a+1)^0,w,c
  4616  004D28  5812               	subwfb	(strlen@s+1)^0,w,c
  4617  004D2A  6E12               	movwf	(?_strlen+1)^0,c
  4618  004D2C  0012               	return		;funcret
  4619  004D2E                     __end_of_strlen:
  4620                           	callstack 0
  4621                           
  4622 ;; *************** function _fputs *****************
  4623 ;; Defined at:
  4624 ;;		line 8 in file "/opt/microchip/xc8/v2.30/pic/sources/c99/common/nf_fputs.c"
  4625 ;; Parameters:    Size  Location     Type
  4626 ;;  s               2   25[COMRAM] PTR const unsigned char 
  4627 ;;		 -> dbuf(32), 
  4628 ;;  fp              2   27[COMRAM] PTR struct _IO_FILE
  4629 ;;		 -> sprintf@f(6), 
  4630 ;; Auto vars:     Size  Location     Type
  4631 ;;  i               2   30[COMRAM] int 
  4632 ;;  c               1   29[COMRAM] unsigned char 
  4633 ;; Return value:  Size  Location     Type
  4634 ;;                  2   25[COMRAM] int 
  4635 ;; Registers used:
  4636 ;;		wreg, fsr1l, fsr1h, fsr2l, fsr2h, status,2, status,0, cstack
  4637 ;; Tracked objects:
  4638 ;;		On entry : 0/0
  4639 ;;		On exit  : 0/0
  4640 ;;		Unchanged: 0/0
  4641 ;; Data sizes:     COMRAM   BANK0   BANK1   BANK2   BANK3   BANK4   BANK5   BANK6   BANK7   BANK8   BANK9  BANK10  BANK1
      +1  BANK12  BANK13  BANK14  BANK15  BANK16  BANK17  BANK18  BANK19  BANK20  BANK21  BANK22  BANK23  BANK24  BANK25  BANK2
      +6  BANK27  BANK28  BANK29  BANK30  BANK31
  4642 ;;      Params:         4       0       0       0       0       0       0       0       0       0       0       0       
      +0       0       0       0       0       0       0       0       0       0       0       0       0       0       0       
      +0       0       0       0       0       0
  4643 ;;      Locals:         3       0       0       0       0       0       0       0       0       0       0       0       
      +0       0       0       0       0       0       0       0       0       0       0       0       0       0       0       
      +0       0       0       0       0       0
  4644 ;;      Temps:          0       0       0       0       0       0       0       0       0       0       0       0       
      +0       0       0       0       0       0       0       0       0       0       0       0       0       0       0       
      +0       0       0       0       0       0
  4645 ;;      Totals:         7       0       0       0       0       0       0       0       0       0       0       0       
      +0       0       0       0       0       0       0       0       0       0       0       0       0       0       0       
      +0       0       0       0       0       0
  4646 ;;Total ram usage:        7 bytes
  4647 ;; Hardware stack levels used:    1
  4648 ;; Hardware stack levels required when called:    5
  4649 ;; This function calls:
  4650 ;;		_fputc
  4651 ;; This function is called by:
  4652 ;;		_pad
  4653 ;; This function uses a non-reentrant model
  4654 ;;
  4655                           
  4656                           	psect	text17
  4657  004C74                     __ptext17:
  4658                           	callstack 0
  4659  004C74                     _fputs:
  4660                           	callstack 20
  4661  004C74  0E00               	movlw	0
  4662  004C76  6E20               	movwf	(fputs@i+1)^0,c
  4663  004C78  0E00               	movlw	0
  4664  004C7A  6E1F               	movwf	fputs@i^0,c
  4665  004C7C  EF4B  F026         	goto	l5293
  4666  004C80                     l5289:
  4667  004C80  C01E  F011         	movff	fputs@c,fputc@c
  4668  004C84  6A12               	clrf	(fputc@c+1)^0,c
  4669  004C86  C01C  F013         	movff	fputs@fp,fputc@fp
  4670  004C8A  C01D  F014         	movff	fputs@fp+1,fputc@fp+1
  4671  004C8E  EC8F  F01E         	call	_fputc	;wreg free
  4672  004C92  4A1F               	infsnz	fputs@i^0,f,c
  4673  004C94  2A20               	incf	(fputs@i+1)^0,f,c
  4674  004C96                     l5293:
  4675  004C96  501F               	movf	fputs@i^0,w,c
  4676  004C98  241A               	addwf	fputs@s^0,w,c
  4677  004C9A  6ED9               	movwf	fsr2l,c
  4678  004C9C  5020               	movf	(fputs@i+1)^0,w,c
  4679  004C9E  201B               	addwfc	(fputs@s+1)^0,w,c
  4680  004CA0  6EDA               	movwf	fsr2h,c
  4681  004CA2  50DF               	movf	indf2,w,c
  4682  004CA4  6E1E               	movwf	fputs@c^0,c
  4683  004CA6  501E               	movf	fputs@c^0,w,c
  4684  004CA8  A4D8               	btfss	status,2,c
  4685  004CAA  EF59  F026         	goto	u4621
  4686  004CAE  EF5B  F026         	goto	u4620
  4687  004CB2                     u4621:
  4688  004CB2  EF40  F026         	goto	l5289
  4689  004CB6                     u4620:
  4690  004CB6  0012               	return		;funcret
  4691  004CB8                     __end_of_fputs:
  4692                           	callstack 0
  4693                           
  4694 ;; *************** function _fputc *****************
  4695 ;; Defined at:
  4696 ;;		line 8 in file "/opt/microchip/xc8/v2.30/pic/sources/c99/common/nf_fputc.c"
  4697 ;; Parameters:    Size  Location     Type
  4698 ;;  c               2   16[COMRAM] int 
  4699 ;;  fp              2   18[COMRAM] PTR struct _IO_FILE
  4700 ;;		 -> sprintf@f(6), 
  4701 ;; Auto vars:     Size  Location     Type
  4702 ;;		None
  4703 ;; Return value:  Size  Location     Type
  4704 ;;                  2   16[COMRAM] int 
  4705 ;; Registers used:
  4706 ;;		wreg, fsr1l, fsr1h, fsr2l, fsr2h, status,2, status,0, cstack
  4707 ;; Tracked objects:
  4708 ;;		On entry : 0/0
  4709 ;;		On exit  : 0/0
  4710 ;;		Unchanged: 0/0
  4711 ;; Data sizes:     COMRAM   BANK0   BANK1   BANK2   BANK3   BANK4   BANK5   BANK6   BANK7   BANK8   BANK9  BANK10  BANK1
      +1  BANK12  BANK13  BANK14  BANK15  BANK16  BANK17  BANK18  BANK19  BANK20  BANK21  BANK22  BANK23  BANK24  BANK25  BANK2
      +6  BANK27  BANK28  BANK29  BANK30  BANK31
  4712 ;;      Params:         4       0       0       0       0       0       0       0       0       0       0       0       
      +0       0       0       0       0       0       0       0       0       0       0       0       0       0       0       
      +0       0       0       0       0       0
  4713 ;;      Locals:         0       0       0       0       0       0       0       0       0       0       0       0       
      +0       0       0       0       0       0       0       0       0       0       0       0       0       0       0       
      +0       0       0       0       0       0
  4714 ;;      Temps:          5       0       0       0       0       0       0       0       0       0       0       0       
      +0       0       0       0       0       0       0       0       0       0       0       0       0       0       0       
      +0       0       0       0       0       0
  4715 ;;      Totals:         9       0       0       0       0       0       0       0       0       0       0       0       
      +0       0       0       0       0       0       0       0       0       0       0       0       0       0       0       
      +0       0       0       0       0       0
  4716 ;;Total ram usage:        9 bytes
  4717 ;; Hardware stack levels used:    1
  4718 ;; Hardware stack levels required when called:    4
  4719 ;; This function calls:
  4720 ;;		_putch
  4721 ;; This function is called by:
  4722 ;;		_pad
  4723 ;;		_vfpfcnvrt
  4724 ;;		_fputs
  4725 ;; This function uses a non-reentrant model
  4726 ;;
  4727                           
  4728                           	psect	text18
  4729  003D1E                     __ptext18:
  4730                           	callstack 0
  4731  003D1E                     _fputc:
  4732                           	callstack 20
  4733  003D1E  5013               	movf	fputc@fp^0,w,c
  4734  003D20  1014               	iorwf	(fputc@fp+1)^0,w,c
  4735  003D22  B4D8               	btfsc	status,2,c
  4736  003D24  EF96  F01E         	goto	u4571
  4737  003D28  EF98  F01E         	goto	u4570
  4738  003D2C                     u4571:
  4739  003D2C  EFA1  F01E         	goto	l5267
  4740  003D30                     u4570:
  4741  003D30  5013               	movf	fputc@fp^0,w,c
  4742  003D32  1014               	iorwf	(fputc@fp+1)^0,w,c
  4743  003D34  A4D8               	btfss	status,2,c
  4744  003D36  EF9F  F01E         	goto	u4581
  4745  003D3A  EFA1  F01E         	goto	u4580
  4746  003D3E                     u4581:
  4747  003D3E  EFA6  F01E         	goto	l5269
  4748  003D42                     u4580:
  4749  003D42                     l5267:
  4750  003D42  5011               	movf	fputc@c^0,w,c
  4751  003D44  ECC3  F027         	call	_putch
  4752  003D48  EFFA  F01E         	goto	l2047
  4753  003D4C                     l5269:
  4754  003D4C  EE20 F004          	lfsr	2,4
  4755  003D50  5013               	movf	fputc@fp^0,w,c
  4756  003D52  26D9               	addwf	fsr2l,f,c
  4757  003D54  5014               	movf	(fputc@fp+1)^0,w,c
  4758  003D56  22DA               	addwfc	fsr2h,f,c
  4759  003D58  50DE               	movf	postinc2,w,c
  4760  003D5A  10DE               	iorwf	postinc2,w,c
  4761  003D5C  B4D8               	btfsc	status,2,c
  4762  003D5E  EFB3  F01E         	goto	u4591
  4763  003D62  EFB5  F01E         	goto	u4590
  4764  003D66                     u4591:
  4765  003D66  EFD0  F01E         	goto	l5273
  4766  003D6A                     u4590:
  4767  003D6A  EE20 F004          	lfsr	2,4
  4768  003D6E  5013               	movf	fputc@fp^0,w,c
  4769  003D70  26D9               	addwf	fsr2l,f,c
  4770  003D72  5014               	movf	(fputc@fp+1)^0,w,c
  4771  003D74  22DA               	addwfc	fsr2h,f,c
  4772  003D76  EE10 F002          	lfsr	1,2
  4773  003D7A  5013               	movf	fputc@fp^0,w,c
  4774  003D7C  26E1               	addwf	fsr1l,f,c
  4775  003D7E  5014               	movf	(fputc@fp+1)^0,w,c
  4776  003D80  22E2               	addwfc	fsr1h,f,c
  4777  003D82  50DE               	movf	postinc2,w,c
  4778  003D84  5CE6               	subwf	postinc1,w,c
  4779  003D86  50E6               	movf	postinc1,w,c
  4780  003D88  0A80               	xorlw	128
  4781  003D8A  6E19               	movwf	(??_fputc+4)^0,c
  4782  003D8C  50DE               	movf	postinc2,w,c
  4783  003D8E  0A80               	xorlw	128
  4784  003D90  5819               	subwfb	(??_fputc+4)^0,w,c
  4785  003D92  B0D8               	btfsc	status,0,c
  4786  003D94  EFCE  F01E         	goto	u4601
  4787  003D98  EFD0  F01E         	goto	u4600
  4788  003D9C                     u4601:
  4789  003D9C  EFFA  F01E         	goto	l2047
  4790  003DA0                     u4600:
  4791  003DA0                     l5273:
  4792  003DA0  EE20 F002          	lfsr	2,2
  4793  003DA4  5013               	movf	fputc@fp^0,w,c
  4794  003DA6  26D9               	addwf	fsr2l,f,c
  4795  003DA8  5014               	movf	(fputc@fp+1)^0,w,c
  4796  003DAA  22DA               	addwfc	fsr2h,f,c
  4797  003DAC  006F FF78  F015    	movff	postinc2,??_fputc
  4798  003DB2  006F FF74  F016    	movff	postdec2,??_fputc+1
  4799  003DB8  0060  F04F  FFD9   	movff	fputc@fp,fsr2l
  4800  003DBE  0060  F053  FFDA   	movff	fputc@fp+1,fsr2h
  4801  003DC4  006F FF78  F017    	movff	postinc2,??_fputc+2
  4802  003DCA  006F FF74  F018    	movff	postdec2,??_fputc+3
  4803  003DD0  5015               	movf	??_fputc^0,w,c
  4804  003DD2  2417               	addwf	(??_fputc+2)^0,w,c
  4805  003DD4  6ED9               	movwf	fsr2l,c
  4806  003DD6  5016               	movf	(??_fputc+1)^0,w,c
  4807  003DD8  2018               	addwfc	(??_fputc+3)^0,w,c
  4808  003DDA  6EDA               	movwf	fsr2h,c
  4809  003DDC  0060  F047  FFDF   	movff	fputc@c,indf2
  4810  003DE2  EE20 F002          	lfsr	2,2
  4811  003DE6  5013               	movf	fputc@fp^0,w,c
  4812  003DE8  26D9               	addwf	fsr2l,f,c
  4813  003DEA  5014               	movf	(fputc@fp+1)^0,w,c
  4814  003DEC  22DA               	addwfc	fsr2h,f,c
  4815  003DEE  2ADE               	incf	postinc2,f,c
  4816  003DF0  0E00               	movlw	0
  4817  003DF2  22DD               	addwfc	postdec2,f,c
  4818  003DF4                     l2047:
  4819  003DF4  0012               	return		;funcret
  4820  003DF6                     __end_of_fputc:
  4821                           	callstack 0
  4822                           
  4823 ;; *************** function _putch *****************
  4824 ;; Defined at:
  4825 ;;		line 7 in file "/opt/microchip/xc8/v2.30/pic/sources/c99/common/putch.c"
  4826 ;; Parameters:    Size  Location     Type
  4827 ;;  c               1    wreg     unsigned char 
  4828 ;; Auto vars:     Size  Location     Type
  4829 ;;  c               1    0[COMRAM] unsigned char 
  4830 ;; Return value:  Size  Location     Type
  4831 ;;                  1    wreg      void 
  4832 ;; Registers used:
  4833 ;;		wreg
  4834 ;; Tracked objects:
  4835 ;;		On entry : 0/0
  4836 ;;		On exit  : 0/0
  4837 ;;		Unchanged: 0/0
  4838 ;; Data sizes:     COMRAM   BANK0   BANK1   BANK2   BANK3   BANK4   BANK5   BANK6   BANK7   BANK8   BANK9  BANK10  BANK1
      +1  BANK12  BANK13  BANK14  BANK15  BANK16  BANK17  BANK18  BANK19  BANK20  BANK21  BANK22  BANK23  BANK24  BANK25  BANK2
      +6  BANK27  BANK28  BANK29  BANK30  BANK31
  4839 ;;      Params:         0       0       0       0       0       0       0       0       0       0       0       0       
      +0       0       0       0       0       0       0       0       0       0       0       0       0       0       0       
      +0       0       0       0       0       0
  4840 ;;      Locals:         0       0       0       0       0       0       0       0       0       0       0       0       
      +0       0       0       0       0       0       0       0       0       0       0       0       0       0       0       
      +0       0       0       0       0       0
  4841 ;;      Temps:          0       0       0       0       0       0       0       0       0       0       0       0       
      +0       0       0       0       0       0       0       0       0       0       0       0       0       0       0       
      +0       0       0       0       0       0
  4842 ;;      Totals:         0       0       0       0       0       0       0       0       0       0       0       0       
      +0       0       0       0       0       0       0       0       0       0       0       0       0       0       0       
      +0       0       0       0       0       0
  4843 ;;Total ram usage:        0 bytes
  4844 ;; Hardware stack levels used:    1
  4845 ;; Hardware stack levels required when called:    3
  4846 ;; This function calls:
  4847 ;;		Nothing
  4848 ;; This function is called by:
  4849 ;;		_fputc
  4850 ;; This function uses a non-reentrant model
  4851 ;;
  4852                           
  4853                           	psect	text19
  4854  004F86                     __ptext19:
  4855                           	callstack 0
  4856  004F86                     _putch:
  4857                           	callstack 20
  4858  004F86  0012               	return		;funcret
  4859  004F88                     __end_of_putch:
  4860                           	callstack 0
  4861                           
  4862 ;; *************** function ___lomod *****************
  4863 ;; Defined at:
  4864 ;;		line 9 in file "/opt/microchip/xc8/v2.30/pic/sources/c99/common/lomod.c"
  4865 ;; Parameters:    Size  Location     Type
  4866 ;;  dividend        8   16[COMRAM] unsigned long long 
  4867 ;;  divisor         8   24[COMRAM] unsigned long long 
  4868 ;; Auto vars:     Size  Location     Type
  4869 ;;  counter         1   32[COMRAM] unsigned char 
  4870 ;; Return value:  Size  Location     Type
  4871 ;;                  8   16[COMRAM] unsigned long long 
  4872 ;; Registers used:
  4873 ;;		wreg, status,2, status,0
  4874 ;; Tracked objects:
  4875 ;;		On entry : 0/0
  4876 ;;		On exit  : 0/0
  4877 ;;		Unchanged: 0/0
  4878 ;; Data sizes:     COMRAM   BANK0   BANK1   BANK2   BANK3   BANK4   BANK5   BANK6   BANK7   BANK8   BANK9  BANK10  BANK1
      +1  BANK12  BANK13  BANK14  BANK15  BANK16  BANK17  BANK18  BANK19  BANK20  BANK21  BANK22  BANK23  BANK24  BANK25  BANK2
      +6  BANK27  BANK28  BANK29  BANK30  BANK31
  4879 ;;      Params:        16       0       0       0       0       0       0       0       0       0       0       0       
      +0       0       0       0       0       0       0       0       0       0       0       0       0       0       0       
      +0       0       0       0       0       0
  4880 ;;      Locals:         1       0       0       0       0       0       0       0       0       0       0       0       
      +0       0       0       0       0       0       0       0       0       0       0       0       0       0       0       
      +0       0       0       0       0       0
  4881 ;;      Temps:          0       0       0       0       0       0       0       0       0       0       0       0       
      +0       0       0       0       0       0       0       0       0       0       0       0       0       0       0       
      +0       0       0       0       0       0
  4882 ;;      Totals:        17       0       0       0       0       0       0       0       0       0       0       0       
      +0       0       0       0       0       0       0       0       0       0       0       0       0       0       0       
      +0       0       0       0       0       0
  4883 ;;Total ram usage:       17 bytes
  4884 ;; Hardware stack levels used:    1
  4885 ;; Hardware stack levels required when called:    3
  4886 ;; This function calls:
  4887 ;;		Nothing
  4888 ;; This function is called by:
  4889 ;;		_utoa
  4890 ;; This function uses a non-reentrant model
  4891 ;;
  4892                           
  4893                           	psect	text20
  4894  003FA6                     __ptext20:
  4895                           	callstack 0
  4896  003FA6                     ___lomod:
  4897                           	callstack 23
  4898  003FA6  5019               	movf	___lomod@divisor^0,w,c
  4899  003FA8  101A               	iorwf	(___lomod@divisor+1)^0,w,c
  4900  003FAA  101B               	iorwf	(___lomod@divisor+2)^0,w,c
  4901  003FAC  101C               	iorwf	(___lomod@divisor+3)^0,w,c
  4902  003FAE  101D               	iorwf	(___lomod@divisor+4)^0,w,c
  4903  003FB0  101E               	iorwf	(___lomod@divisor+5)^0,w,c
  4904  003FB2  101F               	iorwf	(___lomod@divisor+6)^0,w,c
  4905  003FB4  1020               	iorwf	(___lomod@divisor+7)^0,w,c
  4906  003FB6  B4D8               	btfsc	status,2,c
  4907  003FB8  EFE0  F01F         	goto	u4821
  4908  003FBC  EFE2  F01F         	goto	u4820
  4909  003FC0                     u4821:
  4910  003FC0  EF2A  F020         	goto	l1613
  4911  003FC4                     u4820:
  4912  003FC4  0E01               	movlw	1
  4913  003FC6  6E21               	movwf	___lomod@counter^0,c
  4914  003FC8  EFF0  F01F         	goto	l5419
  4915  003FCC                     l5417:
  4916  003FCC  90D8               	bcf	status,0,c
  4917  003FCE  3619               	rlcf	___lomod@divisor^0,f,c
  4918  003FD0  361A               	rlcf	(___lomod@divisor+1)^0,f,c
  4919  003FD2  361B               	rlcf	(___lomod@divisor+2)^0,f,c
  4920  003FD4  361C               	rlcf	(___lomod@divisor+3)^0,f,c
  4921  003FD6  361D               	rlcf	(___lomod@divisor+4)^0,f,c
  4922  003FD8  361E               	rlcf	(___lomod@divisor+5)^0,f,c
  4923  003FDA  361F               	rlcf	(___lomod@divisor+6)^0,f,c
  4924  003FDC  3620               	rlcf	(___lomod@divisor+7)^0,f,c
  4925  003FDE  2A21               	incf	___lomod@counter^0,f,c
  4926  003FE0                     l5419:
  4927  003FE0  AE20               	btfss	(___lomod@divisor+7)^0,7,c
  4928  003FE2  EFF5  F01F         	goto	u4831
  4929  003FE6  EFF7  F01F         	goto	u4830
  4930  003FEA                     u4831:
  4931  003FEA  EFE6  F01F         	goto	l5417
  4932  003FEE                     u4830:
  4933  003FEE                     l5421:
  4934  003FEE  5019               	movf	___lomod@divisor^0,w,c
  4935  003FF0  5C11               	subwf	___lomod@dividend^0,w,c
  4936  003FF2  501A               	movf	(___lomod@divisor+1)^0,w,c
  4937  003FF4  5812               	subwfb	(___lomod@dividend+1)^0,w,c
  4938  003FF6  501B               	movf	(___lomod@divisor+2)^0,w,c
  4939  003FF8  5813               	subwfb	(___lomod@dividend+2)^0,w,c
  4940  003FFA  501C               	movf	(___lomod@divisor+3)^0,w,c
  4941  003FFC  5814               	subwfb	(___lomod@dividend+3)^0,w,c
  4942  003FFE  501D               	movf	(___lomod@divisor+4)^0,w,c
  4943  004000  5815               	subwfb	(___lomod@dividend+4)^0,w,c
  4944  004002  501E               	movf	(___lomod@divisor+5)^0,w,c
  4945  004004  5816               	subwfb	(___lomod@dividend+5)^0,w,c
  4946  004006  501F               	movf	(___lomod@divisor+6)^0,w,c
  4947  004008  5817               	subwfb	(___lomod@dividend+6)^0,w,c
  4948  00400A  5020               	movf	(___lomod@divisor+7)^0,w,c
  4949  00400C  5818               	subwfb	(___lomod@dividend+7)^0,w,c
  4950  00400E  A0D8               	btfss	status,0,c
  4951  004010  EF0C  F020         	goto	u4841
  4952  004014  EF0E  F020         	goto	u4840
  4953  004018                     u4841:
  4954  004018  EF1E  F020         	goto	l5425
  4955  00401C                     u4840:
  4956  00401C  5019               	movf	___lomod@divisor^0,w,c
  4957  00401E  5E11               	subwf	___lomod@dividend^0,f,c
  4958  004020  501A               	movf	(___lomod@divisor+1)^0,w,c
  4959  004022  5A12               	subwfb	(___lomod@dividend+1)^0,f,c
  4960  004024  501B               	movf	(___lomod@divisor+2)^0,w,c
  4961  004026  5A13               	subwfb	(___lomod@dividend+2)^0,f,c
  4962  004028  501C               	movf	(___lomod@divisor+3)^0,w,c
  4963  00402A  5A14               	subwfb	(___lomod@dividend+3)^0,f,c
  4964  00402C  501D               	movf	(___lomod@divisor+4)^0,w,c
  4965  00402E  5A15               	subwfb	(___lomod@dividend+4)^0,f,c
  4966  004030  501E               	movf	(___lomod@divisor+5)^0,w,c
  4967  004032  5A16               	subwfb	(___lomod@dividend+5)^0,f,c
  4968  004034  501F               	movf	(___lomod@divisor+6)^0,w,c
  4969  004036  5A17               	subwfb	(___lomod@dividend+6)^0,f,c
  4970  004038  5020               	movf	(___lomod@divisor+7)^0,w,c
  4971  00403A  5A18               	subwfb	(___lomod@dividend+7)^0,f,c
  4972  00403C                     l5425:
  4973  00403C  90D8               	bcf	status,0,c
  4974  00403E  3220               	rrcf	(___lomod@divisor+7)^0,f,c
  4975  004040  321F               	rrcf	(___lomod@divisor+6)^0,f,c
  4976  004042  321E               	rrcf	(___lomod@divisor+5)^0,f,c
  4977  004044  321D               	rrcf	(___lomod@divisor+4)^0,f,c
  4978  004046  321C               	rrcf	(___lomod@divisor+3)^0,f,c
  4979  004048  321B               	rrcf	(___lomod@divisor+2)^0,f,c
  4980  00404A  321A               	rrcf	(___lomod@divisor+1)^0,f,c
  4981  00404C  3219               	rrcf	___lomod@divisor^0,f,c
  4982  00404E  2E21               	decfsz	___lomod@counter^0,f,c
  4983  004050  EFF7  F01F         	goto	l5421
  4984  004054                     l1613:
  4985  004054  C011  F011         	movff	___lomod@dividend,?___lomod
  4986  004058  C012  F012         	movff	___lomod@dividend+1,?___lomod+1
  4987  00405C  C013  F013         	movff	___lomod@dividend+2,?___lomod+2
  4988  004060  C014  F014         	movff	___lomod@dividend+3,?___lomod+3
  4989  004064  C015  F015         	movff	___lomod@dividend+4,?___lomod+4
  4990  004068  C016  F016         	movff	___lomod@dividend+5,?___lomod+5
  4991  00406C  C017  F017         	movff	___lomod@dividend+6,?___lomod+6
  4992  004070  C018  F018         	movff	___lomod@dividend+7,?___lomod+7
  4993  004074  0012               	return		;funcret
  4994  004076                     __end_of___lomod:
  4995                           	callstack 0
  4996                           
  4997 ;; *************** function ___lodiv *****************
  4998 ;; Defined at:
  4999 ;;		line 9 in file "/opt/microchip/xc8/v2.30/pic/sources/c99/common/lodiv.c"
  5000 ;; Parameters:    Size  Location     Type
  5001 ;;  dividend        8   16[COMRAM] unsigned long long 
  5002 ;;  divisor         8   24[COMRAM] unsigned long long 
  5003 ;; Auto vars:     Size  Location     Type
  5004 ;;  quotient        8   32[COMRAM] unsigned long long 
  5005 ;;  counter         1   40[COMRAM] unsigned char 
  5006 ;; Return value:  Size  Location     Type
  5007 ;;                  8   16[COMRAM] unsigned long long 
  5008 ;; Registers used:
  5009 ;;		wreg, fsr2l, fsr2h, status,2, status,0
  5010 ;; Tracked objects:
  5011 ;;		On entry : 0/0
  5012 ;;		On exit  : 0/0
  5013 ;;		Unchanged: 0/0
  5014 ;; Data sizes:     COMRAM   BANK0   BANK1   BANK2   BANK3   BANK4   BANK5   BANK6   BANK7   BANK8   BANK9  BANK10  BANK1
      +1  BANK12  BANK13  BANK14  BANK15  BANK16  BANK17  BANK18  BANK19  BANK20  BANK21  BANK22  BANK23  BANK24  BANK25  BANK2
      +6  BANK27  BANK28  BANK29  BANK30  BANK31
  5015 ;;      Params:        16       0       0       0       0       0       0       0       0       0       0       0       
      +0       0       0       0       0       0       0       0       0       0       0       0       0       0       0       
      +0       0       0       0       0       0
  5016 ;;      Locals:         9       0       0       0       0       0       0       0       0       0       0       0       
      +0       0       0       0       0       0       0       0       0       0       0       0       0       0       0       
      +0       0       0       0       0       0
  5017 ;;      Temps:          0       0       0       0       0       0       0       0       0       0       0       0       
      +0       0       0       0       0       0       0       0       0       0       0       0       0       0       0       
      +0       0       0       0       0       0
  5018 ;;      Totals:        25       0       0       0       0       0       0       0       0       0       0       0       
      +0       0       0       0       0       0       0       0       0       0       0       0       0       0       0       
      +0       0       0       0       0       0
  5019 ;;Total ram usage:       25 bytes
  5020 ;; Hardware stack levels used:    1
  5021 ;; Hardware stack levels required when called:    3
  5022 ;; This function calls:
  5023 ;;		Nothing
  5024 ;; This function is called by:
  5025 ;;		_utoa
  5026 ;; This function uses a non-reentrant model
  5027 ;;
  5028                           
  5029                           	psect	text21
  5030  003B40                     __ptext21:
  5031                           	callstack 0
  5032  003B40                     ___lodiv:
  5033                           	callstack 23
  5034  003B40  EE20  F021         	lfsr	2,___lodiv@quotient
  5035  003B44  0E07               	movlw	7
  5036  003B46                     u4781:
  5037  003B46  6ADE               	clrf	postinc2,c
  5038  003B48  06E8               	decf	wreg,f,c
  5039  003B4A  E2FD               	bc	u4781
  5040  003B4C  5019               	movf	___lodiv@divisor^0,w,c
  5041  003B4E  101A               	iorwf	(___lodiv@divisor+1)^0,w,c
  5042  003B50  101B               	iorwf	(___lodiv@divisor+2)^0,w,c
  5043  003B52  101C               	iorwf	(___lodiv@divisor+3)^0,w,c
  5044  003B54  101D               	iorwf	(___lodiv@divisor+4)^0,w,c
  5045  003B56  101E               	iorwf	(___lodiv@divisor+5)^0,w,c
  5046  003B58  101F               	iorwf	(___lodiv@divisor+6)^0,w,c
  5047  003B5A  1020               	iorwf	(___lodiv@divisor+7)^0,w,c
  5048  003B5C  B4D8               	btfsc	status,2,c
  5049  003B5E  EFB3  F01D         	goto	u4791
  5050  003B62  EFB5  F01D         	goto	u4790
  5051  003B66                     u4791:
  5052  003B66  EF07  F01E         	goto	l1603
  5053  003B6A                     u4790:
  5054  003B6A  0E01               	movlw	1
  5055  003B6C  6E29               	movwf	___lodiv@counter^0,c
  5056  003B6E  EFC3  F01D         	goto	l5399
  5057  003B72                     l5397:
  5058  003B72  90D8               	bcf	status,0,c
  5059  003B74  3619               	rlcf	___lodiv@divisor^0,f,c
  5060  003B76  361A               	rlcf	(___lodiv@divisor+1)^0,f,c
  5061  003B78  361B               	rlcf	(___lodiv@divisor+2)^0,f,c
  5062  003B7A  361C               	rlcf	(___lodiv@divisor+3)^0,f,c
  5063  003B7C  361D               	rlcf	(___lodiv@divisor+4)^0,f,c
  5064  003B7E  361E               	rlcf	(___lodiv@divisor+5)^0,f,c
  5065  003B80  361F               	rlcf	(___lodiv@divisor+6)^0,f,c
  5066  003B82  3620               	rlcf	(___lodiv@divisor+7)^0,f,c
  5067  003B84  2A29               	incf	___lodiv@counter^0,f,c
  5068  003B86                     l5399:
  5069  003B86  AE20               	btfss	(___lodiv@divisor+7)^0,7,c
  5070  003B88  EFC8  F01D         	goto	u4801
  5071  003B8C  EFCA  F01D         	goto	u4800
  5072  003B90                     u4801:
  5073  003B90  EFB9  F01D         	goto	l5397
  5074  003B94                     u4800:
  5075  003B94                     l5401:
  5076  003B94  90D8               	bcf	status,0,c
  5077  003B96  3621               	rlcf	___lodiv@quotient^0,f,c
  5078  003B98  3622               	rlcf	(___lodiv@quotient+1)^0,f,c
  5079  003B9A  3623               	rlcf	(___lodiv@quotient+2)^0,f,c
  5080  003B9C  3624               	rlcf	(___lodiv@quotient+3)^0,f,c
  5081  003B9E  3625               	rlcf	(___lodiv@quotient+4)^0,f,c
  5082  003BA0  3626               	rlcf	(___lodiv@quotient+5)^0,f,c
  5083  003BA2  3627               	rlcf	(___lodiv@quotient+6)^0,f,c
  5084  003BA4  3628               	rlcf	(___lodiv@quotient+7)^0,f,c
  5085  003BA6  5019               	movf	___lodiv@divisor^0,w,c
  5086  003BA8  5C11               	subwf	___lodiv@dividend^0,w,c
  5087  003BAA  501A               	movf	(___lodiv@divisor+1)^0,w,c
  5088  003BAC  5812               	subwfb	(___lodiv@dividend+1)^0,w,c
  5089  003BAE  501B               	movf	(___lodiv@divisor+2)^0,w,c
  5090  003BB0  5813               	subwfb	(___lodiv@dividend+2)^0,w,c
  5091  003BB2  501C               	movf	(___lodiv@divisor+3)^0,w,c
  5092  003BB4  5814               	subwfb	(___lodiv@dividend+3)^0,w,c
  5093  003BB6  501D               	movf	(___lodiv@divisor+4)^0,w,c
  5094  003BB8  5815               	subwfb	(___lodiv@dividend+4)^0,w,c
  5095  003BBA  501E               	movf	(___lodiv@divisor+5)^0,w,c
  5096  003BBC  5816               	subwfb	(___lodiv@dividend+5)^0,w,c
  5097  003BBE  501F               	movf	(___lodiv@divisor+6)^0,w,c
  5098  003BC0  5817               	subwfb	(___lodiv@dividend+6)^0,w,c
  5099  003BC2  5020               	movf	(___lodiv@divisor+7)^0,w,c
  5100  003BC4  5818               	subwfb	(___lodiv@dividend+7)^0,w,c
  5101  003BC6  A0D8               	btfss	status,0,c
  5102  003BC8  EFE8  F01D         	goto	u4811
  5103  003BCC  EFEA  F01D         	goto	u4810
  5104  003BD0                     u4811:
  5105  003BD0  EFFB  F01D         	goto	l5409
  5106  003BD4                     u4810:
  5107  003BD4  5019               	movf	___lodiv@divisor^0,w,c
  5108  003BD6  5E11               	subwf	___lodiv@dividend^0,f,c
  5109  003BD8  501A               	movf	(___lodiv@divisor+1)^0,w,c
  5110  003BDA  5A12               	subwfb	(___lodiv@dividend+1)^0,f,c
  5111  003BDC  501B               	movf	(___lodiv@divisor+2)^0,w,c
  5112  003BDE  5A13               	subwfb	(___lodiv@dividend+2)^0,f,c
  5113  003BE0  501C               	movf	(___lodiv@divisor+3)^0,w,c
  5114  003BE2  5A14               	subwfb	(___lodiv@dividend+3)^0,f,c
  5115  003BE4  501D               	movf	(___lodiv@divisor+4)^0,w,c
  5116  003BE6  5A15               	subwfb	(___lodiv@dividend+4)^0,f,c
  5117  003BE8  501E               	movf	(___lodiv@divisor+5)^0,w,c
  5118  003BEA  5A16               	subwfb	(___lodiv@dividend+5)^0,f,c
  5119  003BEC  501F               	movf	(___lodiv@divisor+6)^0,w,c
  5120  003BEE  5A17               	subwfb	(___lodiv@dividend+6)^0,f,c
  5121  003BF0  5020               	movf	(___lodiv@divisor+7)^0,w,c
  5122  003BF2  5A18               	subwfb	(___lodiv@dividend+7)^0,f,c
  5123  003BF4  8021               	bsf	___lodiv@quotient^0,0,c
  5124  003BF6                     l5409:
  5125  003BF6  90D8               	bcf	status,0,c
  5126  003BF8  3220               	rrcf	(___lodiv@divisor+7)^0,f,c
  5127  003BFA  321F               	rrcf	(___lodiv@divisor+6)^0,f,c
  5128  003BFC  321E               	rrcf	(___lodiv@divisor+5)^0,f,c
  5129  003BFE  321D               	rrcf	(___lodiv@divisor+4)^0,f,c
  5130  003C00  321C               	rrcf	(___lodiv@divisor+3)^0,f,c
  5131  003C02  321B               	rrcf	(___lodiv@divisor+2)^0,f,c
  5132  003C04  321A               	rrcf	(___lodiv@divisor+1)^0,f,c
  5133  003C06  3219               	rrcf	___lodiv@divisor^0,f,c
  5134  003C08  2E29               	decfsz	___lodiv@counter^0,f,c
  5135  003C0A  EFCA  F01D         	goto	l5401
  5136  003C0E                     l1603:
  5137  003C0E  C021  F011         	movff	___lodiv@quotient,?___lodiv
  5138  003C12  C022  F012         	movff	___lodiv@quotient+1,?___lodiv+1
  5139  003C16  C023  F013         	movff	___lodiv@quotient+2,?___lodiv+2
  5140  003C1A  C024  F014         	movff	___lodiv@quotient+3,?___lodiv+3
  5141  003C1E  C025  F015         	movff	___lodiv@quotient+4,?___lodiv+4
  5142  003C22  C026  F016         	movff	___lodiv@quotient+5,?___lodiv+5
  5143  003C26  C027  F017         	movff	___lodiv@quotient+6,?___lodiv+6
  5144  003C2A  C028  F018         	movff	___lodiv@quotient+7,?___lodiv+7
  5145  003C2E  0012               	return		;funcret
  5146  003C30                     __end_of___lodiv:
  5147                           	callstack 0
  5148                           
  5149 ;; *************** function _strncmp *****************
  5150 ;; Defined at:
  5151 ;;		line 3 in file "/opt/microchip/xc8/v2.30/pic/sources/c99/common/strncmp.c"
  5152 ;; Parameters:    Size  Location     Type
  5153 ;;  _l              2   16[COMRAM] PTR const unsigned char 
  5154 ;;		 -> STR_3(17), STR_2(33), STR_1(60), 
  5155 ;;  _r              2   18[COMRAM] PTR const unsigned char 
  5156 ;;		 -> STR_16(3), STR_12(3), STR_7(3), 
  5157 ;;  n               2   20[COMRAM] unsigned int 
  5158 ;; Auto vars:     Size  Location     Type
  5159 ;;  r               2   25[COMRAM] PTR const unsigned char 
  5160 ;;		 -> STR_16(3), STR_12(3), STR_7(3), 
  5161 ;;  l               2   23[COMRAM] PTR const unsigned char 
  5162 ;;		 -> STR_3(17), STR_2(33), STR_1(60), 
  5163 ;; Return value:  Size  Location     Type
  5164 ;;                  2   16[COMRAM] int 
  5165 ;; Registers used:
  5166 ;;		wreg, status,2, status,0, tblptrl, tblptrh, tblptru
  5167 ;; Tracked objects:
  5168 ;;		On entry : 0/0
  5169 ;;		On exit  : 0/0
  5170 ;;		Unchanged: 0/0
  5171 ;; Data sizes:     COMRAM   BANK0   BANK1   BANK2   BANK3   BANK4   BANK5   BANK6   BANK7   BANK8   BANK9  BANK10  BANK1
      +1  BANK12  BANK13  BANK14  BANK15  BANK16  BANK17  BANK18  BANK19  BANK20  BANK21  BANK22  BANK23  BANK24  BANK25  BANK2
      +6  BANK27  BANK28  BANK29  BANK30  BANK31
  5172 ;;      Params:         6       0       0       0       0       0       0       0       0       0       0       0       
      +0       0       0       0       0       0       0       0       0       0       0       0       0       0       0       
      +0       0       0       0       0       0
  5173 ;;      Locals:         4       0       0       0       0       0       0       0       0       0       0       0       
      +0       0       0       0       0       0       0       0       0       0       0       0       0       0       0       
      +0       0       0       0       0       0
  5174 ;;      Temps:          1       0       0       0       0       0       0       0       0       0       0       0       
      +0       0       0       0       0       0       0       0       0       0       0       0       0       0       0       
      +0       0       0       0       0       0
  5175 ;;      Totals:        11       0       0       0       0       0       0       0       0       0       0       0       
      +0       0       0       0       0       0       0       0       0       0       0       0       0       0       0       
      +0       0       0       0       0       0
  5176 ;;Total ram usage:       11 bytes
  5177 ;; Hardware stack levels used:    1
  5178 ;; Hardware stack levels required when called:    3
  5179 ;; This function calls:
  5180 ;;		Nothing
  5181 ;; This function is called by:
  5182 ;;		_vfpfcnvrt
  5183 ;; This function uses a non-reentrant model
  5184 ;;
  5185                           
  5186                           	psect	text22
  5187  003936                     __ptext22:
  5188                           	callstack 0
  5189  003936                     _strncmp:
  5190                           	callstack 24
  5191  003936  C011  F018         	movff	strncmp@_l,strncmp@l
  5192  00393A  C012  F019         	movff	strncmp@_l+1,strncmp@l+1
  5193  00393E  C013  F01A         	movff	strncmp@_r,strncmp@r
  5194  003942  C014  F01B         	movff	strncmp@_r+1,strncmp@r+1
  5195  003946  0615               	decf	strncmp@n^0,f,c
  5196  003948  A0D8               	btfss	status,0,c
  5197  00394A  0616               	decf	(strncmp@n+1)^0,f,c
  5198  00394C  2815               	incf	strncmp@n^0,w,c
  5199  00394E  E106               	bnz	u5581
  5200  003950  2816               	incf	(strncmp@n+1)^0,w,c
  5201  003952  A4D8               	btfss	status,2,c
  5202  003954  EFAE  F01C         	goto	u5581
  5203  003958  EFB0  F01C         	goto	u5580
  5204  00395C                     u5581:
  5205  00395C  EFBD  F01C         	goto	l5851
  5206  003960                     u5580:
  5207  003960  0E00               	movlw	0
  5208  003962  6E12               	movwf	(?_strncmp+1)^0,c
  5209  003964  0E00               	movlw	0
  5210  003966  6E11               	movwf	?_strncmp^0,c
  5211  003968  EF23  F01D         	goto	l2081
  5212  00396C                     l5849:
  5213  00396C  4A18               	infsnz	strncmp@l^0,f,c
  5214  00396E  2A19               	incf	(strncmp@l+1)^0,f,c
  5215  003970  4A1A               	infsnz	strncmp@r^0,f,c
  5216  003972  2A1B               	incf	(strncmp@r+1)^0,f,c
  5217  003974  0615               	decf	strncmp@n^0,f,c
  5218  003976  A0D8               	btfss	status,0,c
  5219  003978  0616               	decf	(strncmp@n+1)^0,f,c
  5220  00397A                     l5851:
  5221  00397A  0060  F063  FFF6   	movff	strncmp@l,tblptrl
  5222  003980  0060  F067  FFF7   	movff	strncmp@l+1,tblptrh
  5223  003986                     	if	0	;tblptru may be non-zero
  5224  003986                     	endif
  5225  003986                     	if	1	;Program memory is > 0xFFFF, there are 3 active tblptr bytes
  5226  003986  0E00               	movlw	low (__mediumconst shr (0+16))
  5227  003988  6EF8               	movwf	tblptru,c
  5228  00398A                     	endif
  5229  00398A  0008               	tblrd		*
  5230  00398C  50F5               	movf	tablat,w,c
  5231  00398E  0900               	iorlw	0
  5232  003990  B4D8               	btfsc	status,2,c
  5233  003992  EFCD  F01C         	goto	u5591
  5234  003996  EFCF  F01C         	goto	u5590
  5235  00399A                     u5591:
  5236  00399A  EF08  F01D         	goto	l5859
  5237  00399E                     u5590:
  5238  00399E  0060  F06B  FFF6   	movff	strncmp@r,tblptrl
  5239  0039A4  0060  F06F  FFF7   	movff	strncmp@r+1,tblptrh
  5240  0039AA                     	if	0	;tblptru may be non-zero
  5241  0039AA                     	endif
  5242  0039AA                     	if	1	;Program memory is > 0xFFFF, there are 3 active tblptr bytes
  5243  0039AA  0E00               	movlw	low (__mediumconst shr (0+16))
  5244  0039AC  6EF8               	movwf	tblptru,c
  5245  0039AE                     	endif
  5246  0039AE  0008               	tblrd		*
  5247  0039B0  50F5               	movf	tablat,w,c
  5248  0039B2  0900               	iorlw	0
  5249  0039B4  B4D8               	btfsc	status,2,c
  5250  0039B6  EFDF  F01C         	goto	u5601
  5251  0039BA  EFE1  F01C         	goto	u5600
  5252  0039BE                     u5601:
  5253  0039BE  EF08  F01D         	goto	l5859
  5254  0039C2                     u5600:
  5255  0039C2  5015               	movf	strncmp@n^0,w,c
  5256  0039C4  1016               	iorwf	(strncmp@n+1)^0,w,c
  5257  0039C6  B4D8               	btfsc	status,2,c
  5258  0039C8  EFE8  F01C         	goto	u5611
  5259  0039CC  EFEA  F01C         	goto	u5610
  5260  0039D0                     u5611:
  5261  0039D0  EF08  F01D         	goto	l5859
  5262  0039D4                     u5610:
  5263  0039D4  0060  F063  FFF6   	movff	strncmp@l,tblptrl
  5264  0039DA  0060  F067  FFF7   	movff	strncmp@l+1,tblptrh
  5265  0039E0                     	if	0	;tblptru may be non-zero
  5266  0039E0                     	endif
  5267  0039E0                     	if	1	;Program memory is > 0xFFFF, there are 3 active tblptr bytes
  5268  0039E0  0E00               	movlw	low (__mediumconst shr (0+16))
  5269  0039E2  6EF8               	movwf	tblptru,c
  5270  0039E4                     	endif
  5271  0039E4  0008               	tblrd		*
  5272  0039E6  006F FFD4  F017    	movff	tablat,??_strncmp
  5273  0039EC  0060  F06B  FFF6   	movff	strncmp@r,tblptrl
  5274  0039F2  0060  F06F  FFF7   	movff	strncmp@r+1,tblptrh
  5275  0039F8                     	if	0	;tblptru may be non-zero
  5276  0039F8                     	endif
  5277  0039F8                     	if	1	;Program memory is > 0xFFFF, there are 3 active tblptr bytes
  5278  0039F8  0E00               	movlw	low (__mediumconst shr (0+16))
  5279  0039FA  6EF8               	movwf	tblptru,c
  5280  0039FC                     	endif
  5281  0039FC  0008               	tblrd		*
  5282  0039FE  50F5               	movf	tablat,w,c
  5283  003A00  1817               	xorwf	??_strncmp^0,w,c
  5284  003A02  B4D8               	btfsc	status,2,c
  5285  003A04  EF06  F01D         	goto	u5621
  5286  003A08  EF08  F01D         	goto	u5620
  5287  003A0C                     u5621:
  5288  003A0C  EFB6  F01C         	goto	l5849
  5289  003A10                     u5620:
  5290  003A10                     l5859:
  5291  003A10  0060  F063  FFF6   	movff	strncmp@l,tblptrl
  5292  003A16  0060  F067  FFF7   	movff	strncmp@l+1,tblptrh
  5293  003A1C                     	if	0	;tblptru may be non-zero
  5294  003A1C                     	endif
  5295  003A1C                     	if	1	;Program memory is > 0xFFFF, there are 3 active tblptr bytes
  5296  003A1C  0E00               	movlw	low (__mediumconst shr (0+16))
  5297  003A1E  6EF8               	movwf	tblptru,c
  5298  003A20                     	endif
  5299  003A20  0008               	tblrd		*
  5300  003A22  006F FFD4  F017    	movff	tablat,??_strncmp
  5301  003A28  0060  F06B  FFF6   	movff	strncmp@r,tblptrl
  5302  003A2E  0060  F06F  FFF7   	movff	strncmp@r+1,tblptrh
  5303  003A34                     	if	0	;tblptru may be non-zero
  5304  003A34                     	endif
  5305  003A34                     	if	1	;Program memory is > 0xFFFF, there are 3 active tblptr bytes
  5306  003A34  0E00               	movlw	low (__mediumconst shr (0+16))
  5307  003A36  6EF8               	movwf	tblptru,c
  5308  003A38                     	endif
  5309  003A38  0008               	tblrd		*
  5310  003A3A  50F5               	movf	tablat,w,c
  5311  003A3C  5C17               	subwf	??_strncmp^0,w,c
  5312  003A3E  6E11               	movwf	?_strncmp^0,c
  5313  003A40  6A12               	clrf	(?_strncmp+1)^0,c
  5314  003A42  A0D8               	btfss	status,0,c
  5315  003A44  0612               	decf	(?_strncmp+1)^0,f,c
  5316  003A46                     l2081:
  5317  003A46  0012               	return		;funcret
  5318  003A48                     __end_of_strncmp:
  5319                           	callstack 0
  5320                           
  5321 ;; *************** function _atoi *****************
  5322 ;; Defined at:
  5323 ;;		line 4 in file "/opt/microchip/xc8/v2.30/pic/sources/c99/common/atoi.c"
  5324 ;; Parameters:    Size  Location     Type
  5325 ;;  s               2   23[COMRAM] PTR const unsigned char 
  5326 ;;		 -> STR_3(17), STR_2(33), STR_1(60), 
  5327 ;; Auto vars:     Size  Location     Type
  5328 ;;  n               2   36[COMRAM] int 
  5329 ;;  neg             2   29[COMRAM] int 
  5330 ;; Return value:  Size  Location     Type
  5331 ;;                  2   23[COMRAM] int 
  5332 ;; Registers used:
  5333 ;;		wreg, status,2, status,0, tblptrl, tblptrh, tblptru, prodl, prodh, cstack
  5334 ;; Tracked objects:
  5335 ;;		On entry : 0/0
  5336 ;;		On exit  : 0/0
  5337 ;;		Unchanged: 0/0
  5338 ;; Data sizes:     COMRAM   BANK0   BANK1   BANK2   BANK3   BANK4   BANK5   BANK6   BANK7   BANK8   BANK9  BANK10  BANK1
      +1  BANK12  BANK13  BANK14  BANK15  BANK16  BANK17  BANK18  BANK19  BANK20  BANK21  BANK22  BANK23  BANK24  BANK25  BANK2
      +6  BANK27  BANK28  BANK29  BANK30  BANK31
  5339 ;;      Params:         2       0       0       0       0       0       0       0       0       0       0       0       
      +0       0       0       0       0       0       0       0       0       0       0       0       0       0       0       
      +0       0       0       0       0       0
  5340 ;;      Locals:         9       0       0       0       0       0       0       0       0       0       0       0       
      +0       0       0       0       0       0       0       0       0       0       0       0       0       0       0       
      +0       0       0       0       0       0
  5341 ;;      Temps:          4       0       0       0       0       0       0       0       0       0       0       0       
      +0       0       0       0       0       0       0       0       0       0       0       0       0       0       0       
      +0       0       0       0       0       0
  5342 ;;      Totals:        15       0       0       0       0       0       0       0       0       0       0       0       
      +0       0       0       0       0       0       0       0       0       0       0       0       0       0       0       
      +0       0       0       0       0       0
  5343 ;;Total ram usage:       15 bytes
  5344 ;; Hardware stack levels used:    1
  5345 ;; Hardware stack levels required when called:    4
  5346 ;; This function calls:
  5347 ;;		___wmul
  5348 ;;		_isdigit
  5349 ;;		_isspace
  5350 ;; This function is called by:
  5351 ;;		_vfpfcnvrt
  5352 ;; This function uses a non-reentrant model
  5353 ;;
  5354                           
  5355                           	psect	text23
  5356  00337E                     __ptext23:
  5357                           	callstack 0
  5358  00337E                     _atoi:
  5359                           	callstack 23
  5360  00337E  0E00               	movlw	0
  5361  003380  6E26               	movwf	(atoi@n+1)^0,c
  5362  003382  0E00               	movlw	0
  5363  003384  6E25               	movwf	atoi@n^0,c
  5364  003386  0E00               	movlw	0
  5365  003388  6E1F               	movwf	(atoi@neg+1)^0,c
  5366  00338A  0E00               	movlw	0
  5367  00338C  6E1E               	movwf	atoi@neg^0,c
  5368  00338E  EFCB  F019         	goto	l5805
  5369  003392                     l5803:
  5370  003392  4A18               	infsnz	atoi@s^0,f,c
  5371  003394  2A19               	incf	(atoi@s+1)^0,f,c
  5372  003396                     l5805:
  5373  003396  0E01               	movlw	1
  5374  003398  6E24               	movwf	_atoi$3585^0,c
  5375  00339A  0060  F063  FFF6   	movff	atoi@s,tblptrl
  5376  0033A0  0060  F067  FFF7   	movff	atoi@s+1,tblptrh
  5377  0033A6                     	if	0	;tblptru may be non-zero
  5378  0033A6                     	endif
  5379  0033A6                     	if	1	;Program memory is > 0xFFFF, there are 3 active tblptr bytes
  5380  0033A6  0E00               	movlw	low (__mediumconst shr (0+16))
  5381  0033A8  6EF8               	movwf	tblptru,c
  5382  0033AA                     	endif
  5383  0033AA  0008               	tblrd		*
  5384  0033AC  50F5               	movf	tablat,w,c
  5385  0033AE  0A20               	xorlw	32
  5386  0033B0  B4D8               	btfsc	status,2,c
  5387  0033B2  EFDD  F019         	goto	u5511
  5388  0033B6  EFDF  F019         	goto	u5510
  5389  0033BA                     u5511:
  5390  0033BA  EF00  F01A         	goto	l5813
  5391  0033BE                     u5510:
  5392  0033BE  0EF7               	movlw	247
  5393  0033C0  6E1A               	movwf	??_atoi^0,c
  5394  0033C2  0EFF               	movlw	255
  5395  0033C4  6E1B               	movwf	(??_atoi+1)^0,c
  5396  0033C6  0060  F063  FFF6   	movff	atoi@s,tblptrl
  5397  0033CC  0060  F067  FFF7   	movff	atoi@s+1,tblptrh
  5398  0033D2                     	if	0	;tblptru may be non-zero
  5399  0033D2                     	endif
  5400  0033D2                     	if	1	;Program memory is > 0xFFFF, there are 3 active tblptr bytes
  5401  0033D2  0E00               	movlw	low (__mediumconst shr (0+16))
  5402  0033D4  6EF8               	movwf	tblptru,c
  5403  0033D6                     	endif
  5404  0033D6  0008               	tblrd		*
  5405  0033D8  50F5               	movf	tablat,w,c
  5406  0033DA  6E1C               	movwf	(??_atoi+2)^0,c
  5407  0033DC  6A1D               	clrf	(??_atoi+3)^0,c
  5408  0033DE  501A               	movf	??_atoi^0,w,c
  5409  0033E0  261C               	addwf	(??_atoi+2)^0,f,c
  5410  0033E2  501B               	movf	(??_atoi+1)^0,w,c
  5411  0033E4  221D               	addwfc	(??_atoi+3)^0,f,c
  5412  0033E6  501D               	movf	(??_atoi+3)^0,w,c
  5413  0033E8  E109               	bnz	u5520
  5414  0033EA  0E05               	movlw	5
  5415  0033EC  5C1C               	subwf	(??_atoi+2)^0,w,c
  5416  0033EE  A0D8               	btfss	status,0,c
  5417  0033F0  EFFC  F019         	goto	u5521
  5418  0033F4  EFFE  F019         	goto	u5520
  5419  0033F8                     u5521:
  5420  0033F8  EF00  F01A         	goto	l5813
  5421  0033FC                     u5520:
  5422  0033FC  0E00               	movlw	0
  5423  0033FE  6E24               	movwf	_atoi$3585^0,c
  5424  003400                     l5813:
  5425  003400  C024  F020         	movff	_atoi$3585,_atoi$3584
  5426  003404  6A21               	clrf	(_atoi$3584+1)^0,c
  5427  003406  5020               	movf	_atoi$3584^0,w,c
  5428  003408  1021               	iorwf	(_atoi$3584+1)^0,w,c
  5429  00340A  A4D8               	btfss	status,2,c
  5430  00340C  EF0A  F01A         	goto	u5531
  5431  003410  EF0C  F01A         	goto	u5530
  5432  003414                     u5531:
  5433  003414  EFC9  F019         	goto	l5803
  5434  003418                     u5530:
  5435  003418  EF16  F01A         	goto	l5823
  5436  00341C                     l5819:
  5437  00341C  0E00               	movlw	0
  5438  00341E  6E1F               	movwf	(atoi@neg+1)^0,c
  5439  003420  0E01               	movlw	1
  5440  003422  6E1E               	movwf	atoi@neg^0,c
  5441  003424                     l5821:
  5442  003424  4A18               	infsnz	atoi@s^0,f,c
  5443  003426  2A19               	incf	(atoi@s+1)^0,f,c
  5444  003428  EF53  F01A         	goto	l5829
  5445  00342C                     l5823:
  5446  00342C  0060  F063  FFF6   	movff	atoi@s,tblptrl
  5447  003432  0060  F067  FFF7   	movff	atoi@s+1,tblptrh
  5448  003438                     	if	0	;tblptru may be non-zero
  5449  003438                     	endif
  5450  003438                     	if	1	;Program memory is > 0xFFFF, there are 3 active tblptr bytes
  5451  003438  0E00               	movlw	low (__mediumconst shr (0+16))
  5452  00343A  6EF8               	movwf	tblptru,c
  5453  00343C                     	endif
  5454  00343C  0008               	tblrd		*
  5455  00343E  50F5               	movf	tablat,w,c
  5456  003440  6E1A               	movwf	??_atoi^0,c
  5457  003442  6A1B               	clrf	(??_atoi+1)^0,c
  5458                           
  5459                           ; Switch on 2 bytes has been partitioned into a top level switch of size 1, and 1 sub-sw
      +                          itches
  5460                           ; Switch size 1, requested type "simple"
  5461                           ; Number of cases is 1, Range of values is 0 to 0
  5462                           ; switch strategies available:
  5463                           ; Name         Instructions Cycles
  5464                           ; simple_byte            4     3 (average)
  5465                           ;	Chosen strategy is simple_byte
  5466  003444  501B               	movf	(??_atoi+1)^0,w,c
  5467  003446  0A00               	xorlw	0	; case 0
  5468  003448  B4D8               	btfsc	status,2,c
  5469  00344A  EF29  F01A         	goto	l6697
  5470  00344E  EF53  F01A         	goto	l5829
  5471  003452                     l6697:
  5472                           
  5473                           ; Switch size 1, requested type "simple"
  5474                           ; Number of cases is 2, Range of values is 43 to 45
  5475                           ; switch strategies available:
  5476                           ; Name         Instructions Cycles
  5477                           ; simple_byte            7     4 (average)
  5478                           ;	Chosen strategy is simple_byte
  5479  003452  501A               	movf	??_atoi^0,w,c
  5480  003454  0A2B               	xorlw	43	; case 43
  5481  003456  B4D8               	btfsc	status,2,c
  5482  003458  EF12  F01A         	goto	l5821
  5483  00345C  0A06               	xorlw	6	; case 45
  5484  00345E  B4D8               	btfsc	status,2,c
  5485  003460  EF0E  F01A         	goto	l5819
  5486  003464  EF53  F01A         	goto	l5829
  5487  003468                     l5825:
  5488  003468  C025  F011         	movff	atoi@n,___wmul@multiplier
  5489  00346C  C026  F012         	movff	atoi@n+1,___wmul@multiplier+1
  5490  003470  0E00               	movlw	0
  5491  003472  6E14               	movwf	(___wmul@multiplicand+1)^0,c
  5492  003474  0E0A               	movlw	10
  5493  003476  6E13               	movwf	___wmul@multiplicand^0,c
  5494  003478  EC1F  F027         	call	___wmul	;wreg free
  5495  00347C  0060  F063  FFF6   	movff	atoi@s,tblptrl
  5496  003482  0060  F067  FFF7   	movff	atoi@s+1,tblptrh
  5497  003488                     	if	0	;tblptru may be non-zero
  5498  003488                     	endif
  5499  003488                     	if	1	;Program memory is > 0xFFFF, there are 3 active tblptr bytes
  5500  003488  0E00               	movlw	low (__mediumconst shr (0+16))
  5501  00348A  6EF8               	movwf	tblptru,c
  5502  00348C                     	endif
  5503  00348C  0008               	tblrd		*
  5504  00348E  50F5               	movf	tablat,w,c
  5505  003490  5E11               	subwf	?___wmul^0,f,c
  5506  003492  0E00               	movlw	0
  5507  003494  5A12               	subwfb	(?___wmul+1)^0,f,c
  5508  003496  0E30               	movlw	48
  5509  003498  2411               	addwf	?___wmul^0,w,c
  5510  00349A  6E25               	movwf	atoi@n^0,c
  5511  00349C  0E00               	movlw	0
  5512  00349E  2012               	addwfc	(?___wmul+1)^0,w,c
  5513  0034A0  6E26               	movwf	(atoi@n+1)^0,c
  5514  0034A2  EF12  F01A         	goto	l5821
  5515  0034A6                     l5829:
  5516  0034A6  0ED0               	movlw	208
  5517  0034A8  6E1A               	movwf	??_atoi^0,c
  5518  0034AA  0EFF               	movlw	255
  5519  0034AC  6E1B               	movwf	(??_atoi+1)^0,c
  5520  0034AE  0060  F063  FFF6   	movff	atoi@s,tblptrl
  5521  0034B4  0060  F067  FFF7   	movff	atoi@s+1,tblptrh
  5522  0034BA                     	if	0	;tblptru may be non-zero
  5523  0034BA                     	endif
  5524  0034BA                     	if	1	;Program memory is > 0xFFFF, there are 3 active tblptr bytes
  5525  0034BA  0E00               	movlw	low (__mediumconst shr (0+16))
  5526  0034BC  6EF8               	movwf	tblptru,c
  5527  0034BE                     	endif
  5528  0034BE  0008               	tblrd		*
  5529  0034C0  50F5               	movf	tablat,w,c
  5530  0034C2  6E1C               	movwf	(??_atoi+2)^0,c
  5531  0034C4  6A1D               	clrf	(??_atoi+3)^0,c
  5532  0034C6  501A               	movf	??_atoi^0,w,c
  5533  0034C8  261C               	addwf	(??_atoi+2)^0,f,c
  5534  0034CA  501B               	movf	(??_atoi+1)^0,w,c
  5535  0034CC  221D               	addwfc	(??_atoi+3)^0,f,c
  5536  0034CE  501D               	movf	(??_atoi+3)^0,w,c
  5537  0034D0  E10A               	bnz	u5540
  5538  0034D2  0E0A               	movlw	10
  5539  0034D4  5C1C               	subwf	(??_atoi+2)^0,w,c
  5540  0034D6  A0D8               	btfss	status,0,c
  5541  0034D8  EF70  F01A         	goto	u5541
  5542  0034DC  EF73  F01A         	goto	u5540
  5543  0034E0                     u5541:
  5544  0034E0  0E01               	movlw	1
  5545  0034E2  EF74  F01A         	goto	u5550
  5546  0034E6                     u5540:
  5547  0034E6  0E00               	movlw	0
  5548  0034E8                     u5550:
  5549  0034E8  6E22               	movwf	_atoi$3586^0,c
  5550  0034EA  6A23               	clrf	(_atoi$3586+1)^0,c
  5551  0034EC  5022               	movf	_atoi$3586^0,w,c
  5552  0034EE  1023               	iorwf	(_atoi$3586+1)^0,w,c
  5553  0034F0  A4D8               	btfss	status,2,c
  5554  0034F2  EF7D  F01A         	goto	u5561
  5555  0034F6  EF7F  F01A         	goto	u5560
  5556  0034FA                     u5561:
  5557  0034FA  EF34  F01A         	goto	l5825
  5558  0034FE                     u5560:
  5559  0034FE  501E               	movf	atoi@neg^0,w,c
  5560  003500  101F               	iorwf	(atoi@neg+1)^0,w,c
  5561  003502  A4D8               	btfss	status,2,c
  5562  003504  EF86  F01A         	goto	u5571
  5563  003508  EF88  F01A         	goto	u5570
  5564  00350C                     u5571:
  5565  00350C  EF96  F01A         	goto	l2006
  5566  003510                     u5570:
  5567  003510  C025  F01A         	movff	atoi@n,??_atoi
  5568  003514  C026  F01B         	movff	atoi@n+1,??_atoi+1
  5569  003518  1E1A               	comf	??_atoi^0,f,c
  5570  00351A  1E1B               	comf	(??_atoi+1)^0,f,c
  5571  00351C  4A1A               	infsnz	??_atoi^0,f,c
  5572  00351E  2A1B               	incf	(??_atoi+1)^0,f,c
  5573  003520  C01A  F018         	movff	??_atoi,?_atoi
  5574  003524  C01B  F019         	movff	??_atoi+1,?_atoi+1
  5575  003528  EF9A  F01A         	goto	l2009
  5576  00352C                     l2006:
  5577  00352C  C025  F018         	movff	atoi@n,?_atoi
  5578  003530  C026  F019         	movff	atoi@n+1,?_atoi+1
  5579  003534                     l2009:
  5580  003534  0012               	return		;funcret
  5581  003536                     __end_of_atoi:
  5582                           	callstack 0
  5583                           
  5584 ;; *************** function _isspace *****************
  5585 ;; Defined at:
  5586 ;;		line 5 in file "/opt/microchip/xc8/v2.30/pic/sources/c99/common/isspace.c"
  5587 ;; Parameters:    Size  Location     Type
  5588 ;;  c               2   16[COMRAM] int 
  5589 ;; Auto vars:     Size  Location     Type
  5590 ;;		None
  5591 ;; Return value:  Size  Location     Type
  5592 ;;                  2   16[COMRAM] int 
  5593 ;; Registers used:
  5594 ;;		wreg, status,2, status,0
  5595 ;; Tracked objects:
  5596 ;;		On entry : 0/0
  5597 ;;		On exit  : 0/0
  5598 ;;		Unchanged: 0/0
  5599 ;; Data sizes:     COMRAM   BANK0   BANK1   BANK2   BANK3   BANK4   BANK5   BANK6   BANK7   BANK8   BANK9  BANK10  BANK1
      +1  BANK12  BANK13  BANK14  BANK15  BANK16  BANK17  BANK18  BANK19  BANK20  BANK21  BANK22  BANK23  BANK24  BANK25  BANK2
      +6  BANK27  BANK28  BANK29  BANK30  BANK31
  5600 ;;      Params:         2       0       0       0       0       0       0       0       0       0       0       0       
      +0       0       0       0       0       0       0       0       0       0       0       0       0       0       0       
      +0       0       0       0       0       0
  5601 ;;      Locals:         1       0       0       0       0       0       0       0       0       0       0       0       
      +0       0       0       0       0       0       0       0       0       0       0       0       0       0       0       
      +0       0       0       0       0       0
  5602 ;;      Temps:          4       0       0       0       0       0       0       0       0       0       0       0       
      +0       0       0       0       0       0       0       0       0       0       0       0       0       0       0       
      +0       0       0       0       0       0
  5603 ;;      Totals:         7       0       0       0       0       0       0       0       0       0       0       0       
      +0       0       0       0       0       0       0       0       0       0       0       0       0       0       0       
      +0       0       0       0       0       0
  5604 ;;Total ram usage:        7 bytes
  5605 ;; Hardware stack levels used:    1
  5606 ;; Hardware stack levels required when called:    3
  5607 ;; This function calls:
  5608 ;;		Nothing
  5609 ;; This function is called by:
  5610 ;;		_atoi
  5611 ;; This function uses a non-reentrant model
  5612 ;;
  5613                           
  5614                           	psect	text24
  5615  004BDA                     __ptext24:
  5616                           	callstack 0
  5617  004BDA                     _isspace:
  5618                           	callstack 23
  5619  004BDA  0E01               	movlw	1
  5620  004BDC  6E17               	movwf	_isspace$3611^0,c
  5621  004BDE  0E20               	movlw	32
  5622  004BE0  1811               	xorwf	isspace@c^0,w,c
  5623  004BE2  1012               	iorwf	(isspace@c+1)^0,w,c
  5624  004BE4  B4D8               	btfsc	status,2,c
  5625  004BE6  EFF7  F025         	goto	u4981
  5626  004BEA  EFF9  F025         	goto	u4980
  5627  004BEE                     u4981:
  5628  004BEE  EF12  F026         	goto	l5481
  5629  004BF2                     u4980:
  5630  004BF2  0EF7               	movlw	247
  5631  004BF4  6E13               	movwf	??_isspace^0,c
  5632  004BF6  0EFF               	movlw	255
  5633  004BF8  6E14               	movwf	(??_isspace+1)^0,c
  5634  004BFA  C011  F015         	movff	isspace@c,??_isspace+2
  5635  004BFE  C012  F016         	movff	isspace@c+1,??_isspace+3
  5636  004C02  5013               	movf	??_isspace^0,w,c
  5637  004C04  2615               	addwf	(??_isspace+2)^0,f,c
  5638  004C06  5014               	movf	(??_isspace+1)^0,w,c
  5639  004C08  2216               	addwfc	(??_isspace+3)^0,f,c
  5640  004C0A  5016               	movf	(??_isspace+3)^0,w,c
  5641  004C0C  E109               	bnz	u4990
  5642  004C0E  0E05               	movlw	5
  5643  004C10  5C15               	subwf	(??_isspace+2)^0,w,c
  5644  004C12  A0D8               	btfss	status,0,c
  5645  004C14  EF0E  F026         	goto	u4991
  5646  004C18  EF10  F026         	goto	u4990
  5647  004C1C                     u4991:
  5648  004C1C  EF12  F026         	goto	l5481
  5649  004C20                     u4990:
  5650  004C20  0E00               	movlw	0
  5651  004C22  6E17               	movwf	_isspace$3611^0,c
  5652  004C24                     l5481:
  5653  004C24  C017  F011         	movff	_isspace$3611,?_isspace
  5654  004C28  6A12               	clrf	(?_isspace+1)^0,c
  5655  004C2A  0012               	return		;funcret
  5656  004C2C                     __end_of_isspace:
  5657                           	callstack 0
  5658                           
  5659 ;; *************** function _isdigit *****************
  5660 ;; Defined at:
  5661 ;;		line 5 in file "/opt/microchip/xc8/v2.30/pic/sources/c99/common/isdigit.c"
  5662 ;; Parameters:    Size  Location     Type
  5663 ;;  c               2   16[COMRAM] int 
  5664 ;; Auto vars:     Size  Location     Type
  5665 ;;		None
  5666 ;; Return value:  Size  Location     Type
  5667 ;;                  2   16[COMRAM] int 
  5668 ;; Registers used:
  5669 ;;		wreg, status,2, status,0
  5670 ;; Tracked objects:
  5671 ;;		On entry : 0/0
  5672 ;;		On exit  : 0/0
  5673 ;;		Unchanged: 0/0
  5674 ;; Data sizes:     COMRAM   BANK0   BANK1   BANK2   BANK3   BANK4   BANK5   BANK6   BANK7   BANK8   BANK9  BANK10  BANK1
      +1  BANK12  BANK13  BANK14  BANK15  BANK16  BANK17  BANK18  BANK19  BANK20  BANK21  BANK22  BANK23  BANK24  BANK25  BANK2
      +6  BANK27  BANK28  BANK29  BANK30  BANK31
  5675 ;;      Params:         2       0       0       0       0       0       0       0       0       0       0       0       
      +0       0       0       0       0       0       0       0       0       0       0       0       0       0       0       
      +0       0       0       0       0       0
  5676 ;;      Locals:         0       0       0       0       0       0       0       0       0       0       0       0       
      +0       0       0       0       0       0       0       0       0       0       0       0       0       0       0       
      +0       0       0       0       0       0
  5677 ;;      Temps:          4       0       0       0       0       0       0       0       0       0       0       0       
      +0       0       0       0       0       0       0       0       0       0       0       0       0       0       0       
      +0       0       0       0       0       0
  5678 ;;      Totals:         6       0       0       0       0       0       0       0       0       0       0       0       
      +0       0       0       0       0       0       0       0       0       0       0       0       0       0       0       
      +0       0       0       0       0       0
  5679 ;;Total ram usage:        6 bytes
  5680 ;; Hardware stack levels used:    1
  5681 ;; Hardware stack levels required when called:    3
  5682 ;; This function calls:
  5683 ;;		Nothing
  5684 ;; This function is called by:
  5685 ;;		_vfpfcnvrt
  5686 ;;		_atoi
  5687 ;; This function uses a non-reentrant model
  5688 ;;
  5689                           
  5690                           	psect	text25
  5691  004D9E                     __ptext25:
  5692                           	callstack 0
  5693  004D9E                     _isdigit:
  5694                           	callstack 24
  5695  004D9E  0ED0               	movlw	208
  5696  004DA0  6E13               	movwf	??_isdigit^0,c
  5697  004DA2  0EFF               	movlw	255
  5698  004DA4  6E14               	movwf	(??_isdigit+1)^0,c
  5699  004DA6  C011  F015         	movff	isdigit@c,??_isdigit+2
  5700  004DAA  C012  F016         	movff	isdigit@c+1,??_isdigit+3
  5701  004DAE  5013               	movf	??_isdigit^0,w,c
  5702  004DB0  2615               	addwf	(??_isdigit+2)^0,f,c
  5703  004DB2  5014               	movf	(??_isdigit+1)^0,w,c
  5704  004DB4  2216               	addwfc	(??_isdigit+3)^0,f,c
  5705  004DB6  5016               	movf	(??_isdigit+3)^0,w,c
  5706  004DB8  E10A               	bnz	u4960
  5707  004DBA  0E0A               	movlw	10
  5708  004DBC  5C15               	subwf	(??_isdigit+2)^0,w,c
  5709  004DBE  A0D8               	btfss	status,0,c
  5710  004DC0  EFE4  F026         	goto	u4961
  5711  004DC4  EFE7  F026         	goto	u4960
  5712  004DC8                     u4961:
  5713  004DC8  0E01               	movlw	1
  5714  004DCA  EFE8  F026         	goto	u4970
  5715  004DCE                     u4960:
  5716  004DCE  0E00               	movlw	0
  5717  004DD0                     u4970:
  5718  004DD0  6E11               	movwf	?_isdigit^0,c
  5719  004DD2  6A12               	clrf	(?_isdigit+1)^0,c
  5720  004DD4  0012               	return		;funcret
  5721  004DD6                     __end_of_isdigit:
  5722                           	callstack 0
  5723                           
  5724 ;; *************** function ___wmul *****************
  5725 ;; Defined at:
  5726 ;;		line 15 in file "/opt/microchip/xc8/v2.30/pic/sources/c99/common/Umul16.c"
  5727 ;; Parameters:    Size  Location     Type
  5728 ;;  multiplier      2   16[COMRAM] unsigned int 
  5729 ;;  multiplicand    2   18[COMRAM] unsigned int 
  5730 ;; Auto vars:     Size  Location     Type
  5731 ;;  product         2   20[COMRAM] unsigned int 
  5732 ;; Return value:  Size  Location     Type
  5733 ;;                  2   16[COMRAM] unsigned int 
  5734 ;; Registers used:
  5735 ;;		wreg, status,2, status,0, prodl, prodh
  5736 ;; Tracked objects:
  5737 ;;		On entry : 0/0
  5738 ;;		On exit  : 0/0
  5739 ;;		Unchanged: 0/0
  5740 ;; Data sizes:     COMRAM   BANK0   BANK1   BANK2   BANK3   BANK4   BANK5   BANK6   BANK7   BANK8   BANK9  BANK10  BANK1
      +1  BANK12  BANK13  BANK14  BANK15  BANK16  BANK17  BANK18  BANK19  BANK20  BANK21  BANK22  BANK23  BANK24  BANK25  BANK2
      +6  BANK27  BANK28  BANK29  BANK30  BANK31
  5741 ;;      Params:         4       0       0       0       0       0       0       0       0       0       0       0       
      +0       0       0       0       0       0       0       0       0       0       0       0       0       0       0       
      +0       0       0       0       0       0
  5742 ;;      Locals:         2       0       0       0       0       0       0       0       0       0       0       0       
      +0       0       0       0       0       0       0       0       0       0       0       0       0       0       0       
      +0       0       0       0       0       0
  5743 ;;      Temps:          0       0       0       0       0       0       0       0       0       0       0       0       
      +0       0       0       0       0       0       0       0       0       0       0       0       0       0       0       
      +0       0       0       0       0       0
  5744 ;;      Totals:         6       0       0       0       0       0       0       0       0       0       0       0       
      +0       0       0       0       0       0       0       0       0       0       0       0       0       0       0       
      +0       0       0       0       0       0
  5745 ;;Total ram usage:        6 bytes
  5746 ;; Hardware stack levels used:    1
  5747 ;; Hardware stack levels required when called:    3
  5748 ;; This function calls:
  5749 ;;		Nothing
  5750 ;; This function is called by:
  5751 ;;		_atoi
  5752 ;; This function uses a non-reentrant model
  5753 ;;
  5754                           
  5755                           	psect	text26
  5756  004E3E                     __ptext26:
  5757                           	callstack 0
  5758  004E3E                     ___wmul:
  5759                           	callstack 23
  5760  004E3E  5011               	movf	___wmul@multiplier^0,w,c
  5761  004E40  0213               	mulwf	___wmul@multiplicand^0,c
  5762  004E42  006F FFCC  F015    	movff	prodl,___wmul@product
  5763  004E48  006F FFD0  F016    	movff	prodh,___wmul@product+1
  5764  004E4E  5011               	movf	___wmul@multiplier^0,w,c
  5765  004E50  0214               	mulwf	(___wmul@multiplicand+1)^0,c
  5766  004E52  50F3               	movf	243,w,c
  5767  004E54  2616               	addwf	(___wmul@product+1)^0,f,c
  5768  004E56  5012               	movf	(___wmul@multiplier+1)^0,w,c
  5769  004E58  0213               	mulwf	___wmul@multiplicand^0,c
  5770  004E5A  50F3               	movf	243,w,c
  5771  004E5C  2616               	addwf	(___wmul@product+1)^0,f,c
  5772  004E5E  C015  F011         	movff	___wmul@product,?___wmul
  5773  004E62  C016  F012         	movff	___wmul@product+1,?___wmul+1
  5774  004E66  0012               	return		;funcret
  5775  004E68                     __end_of___wmul:
  5776                           	callstack 0
  5777                           
  5778 ;; *************** function _SysInit *****************
  5779 ;; Defined at:
  5780 ;;		line 17 in file "/home/dev-user/Projects/Personal/PIC/PIC18Test1.X/System.c"
  5781 ;; Parameters:    Size  Location     Type
  5782 ;;		None
  5783 ;; Auto vars:     Size  Location     Type
  5784 ;;		None
  5785 ;; Return value:  Size  Location     Type
  5786 ;;                  1    wreg      enum E16361
  5787 ;; Registers used:
  5788 ;;		wreg, fsr2l, fsr2h, status,2, status,0, cstack
  5789 ;; Tracked objects:
  5790 ;;		On entry : 0/0
  5791 ;;		On exit  : 0/0
  5792 ;;		Unchanged: 0/0
  5793 ;; Data sizes:     COMRAM   BANK0   BANK1   BANK2   BANK3   BANK4   BANK5   BANK6   BANK7   BANK8   BANK9  BANK10  BANK1
      +1  BANK12  BANK13  BANK14  BANK15  BANK16  BANK17  BANK18  BANK19  BANK20  BANK21  BANK22  BANK23  BANK24  BANK25  BANK2
      +6  BANK27  BANK28  BANK29  BANK30  BANK31
  5794 ;;      Params:         0       0       0       0       0       0       0       0       0       0       0       0       
      +0       0       0       0       0       0       0       0       0       0       0       0       0       0       0       
      +0       0       0       0       0       0
  5795 ;;      Locals:         0       0       0       0       0       0       0       0       0       0       0       0       
      +0       0       0       0       0       0       0       0       0       0       0       0       0       0       0       
      +0       0       0       0       0       0
  5796 ;;      Temps:          0       0       0       0       0       0       0       0       0       0       0       0       
      +0       0       0       0       0       0       0       0       0       0       0       0       0       0       0       
      +0       0       0       0       0       0
  5797 ;;      Totals:         0       0       0       0       0       0       0       0       0       0       0       0       
      +0       0       0       0       0       0       0       0       0       0       0       0       0       0       0       
      +0       0       0       0       0       0
  5798 ;;Total ram usage:        0 bytes
  5799 ;; Hardware stack levels used:    1
  5800 ;; Hardware stack levels required when called:    7
  5801 ;; This function calls:
  5802 ;;		_IOExpSetup
  5803 ;;		_Tmr4Enable
  5804 ;;		_Tmr4Setup
  5805 ;;		_UART1Setup
  5806 ;;		_make_all_digital
  5807 ;;		_setupDisp
  5808 ;; This function is called by:
  5809 ;;		_main
  5810 ;; This function uses a non-reentrant model
  5811 ;;
  5812                           
  5813                           	psect	text27
  5814  003C30                     __ptext27:
  5815                           	callstack 0
  5816  003C30                     _SysInit:
  5817                           	callstack 23
  5818  003C30                     
  5819                           ;/home/dev-user/Projects/Personal/PIC/PIC18Test1.X/System.c: 20:     make_all_digital();
  5820  003C30  EC95  F027         	call	_make_all_digital	;wreg free
  5821  003C34                     
  5822                           ;/home/dev-user/Projects/Personal/PIC/PIC18Test1.X/System.c: 23:     TRISBbits.TRISB7 = 
      +                          1;
  5823  003C34  8EC3               	bsf	195,7,c	;volatile
  5824  003C36                     
  5825                           ;/home/dev-user/Projects/Personal/PIC/PIC18Test1.X/System.c: 24:     TRISBbits.TRISB6 = 
      +                          1;
  5826  003C36  8CC3               	bsf	195,6,c	;volatile
  5827  003C38                     
  5828                           ;/home/dev-user/Projects/Personal/PIC/PIC18Test1.X/System.c: 36:     sys_time = 0;
  5829  003C38  0E00               	movlw	0
  5830  003C3A  0100               	movlb	0	; () banked
  5831  003C3C  6FB3               	movwf	_sys_time& (0+255),b	;volatile
  5832  003C3E  0E00               	movlw	0
  5833  003C40  6FB4               	movwf	(_sys_time+1)& (0+255),b	;volatile
  5834  003C42  0E00               	movlw	0
  5835  003C44  6FB5               	movwf	(_sys_time+2)& (0+255),b	;volatile
  5836  003C46  0E00               	movlw	0
  5837  003C48  6FB6               	movwf	(_sys_time+3)& (0+255),b	;volatile
  5838  003C4A                     
  5839                           ; BSR set to: 0
  5840                           ;/home/dev-user/Projects/Personal/PIC/PIC18Test1.X/System.c: 37:     sys_stat = 0;
  5841  003C4A  0E00               	movlw	0
  5842  003C4C  6FC3               	movwf	_sys_stat& (0+255),b	;volatile
  5843  003C4E                     
  5844                           ; BSR set to: 0
  5845                           ;/home/dev-user/Projects/Personal/PIC/PIC18Test1.X/System.c: 38:     halfSecondTrigger =
      +                           0;
  5846  003C4E  0E00               	movlw	0
  5847  003C50  6FC2               	movwf	_halfSecondTrigger& (0+255),b
  5848  003C52                     
  5849                           ; BSR set to: 0
  5850                           ;/home/dev-user/Projects/Personal/PIC/PIC18Test1.X/System.c: 39:     twoSecondTrigger = 
      +                          0;
  5851  003C52  0E00               	movlw	0
  5852  003C54  6FC1               	movwf	_twoSecondTrigger& (0+255),b
  5853  003C56                     
  5854                           ; BSR set to: 0
  5855                           ;/home/dev-user/Projects/Personal/PIC/PIC18Test1.X/System.c: 51:     if(Tmr4Setup(1000,1
      +                          ) == STAT_SUCCESS){
  5856  003C56  0EE8               	movlw	232
  5857  003C58  6E1E               	movwf	Tmr4Setup@tmr_freq^0,c
  5858  003C5A  0E03               	movlw	3
  5859  003C5C  6E1F               	movwf	(Tmr4Setup@tmr_freq+1)^0,c
  5860  003C5E  0E00               	movlw	0
  5861  003C60  6E20               	movwf	(Tmr4Setup@tmr_freq+2)^0,c
  5862  003C62  0E00               	movlw	0
  5863  003C64  6E21               	movwf	(Tmr4Setup@tmr_freq+3)^0,c
  5864  003C66  0E01               	movlw	1
  5865  003C68  6E22               	movwf	Tmr4Setup@use_int^0,c
  5866  003C6A  ECFB  F01E         	call	_Tmr4Setup	;wreg free
  5867  003C6E  0900               	iorlw	0
  5868  003C70  A4D8               	btfss	status,2,c
  5869  003C72  EF3D  F01E         	goto	u6321
  5870  003C76  EF3F  F01E         	goto	u6320
  5871  003C7A                     u6321:
  5872  003C7A  EF45  F01E         	goto	l6431
  5873  003C7E                     u6320:
  5874  003C7E                     
  5875                           ;/home/dev-user/Projects/Personal/PIC/PIC18Test1.X/System.c: 52:         sys_stat |= 1;
  5876  003C7E  0100               	movlb	0	; () banked
  5877  003C80  81C3               	bsf	_sys_stat& (0+255),0,b	;volatile
  5878  003C82                     
  5879                           ; BSR set to: 0
  5880                           ;/home/dev-user/Projects/Personal/PIC/PIC18Test1.X/System.c: 53:         TMR4IP = 1;
  5881  003C82  0139               	movlb	57	; () banked
  5882  003C84  8187               	bsf	135,0,b	;volatile
  5883  003C86                     
  5884                           ; BSR set to: 57
  5885                           ;/home/dev-user/Projects/Personal/PIC/PIC18Test1.X/System.c: 54:         Tmr4Enable();
  5886  003C86  ECBD  F027         	call	_Tmr4Enable	;wreg free
  5887  003C8A                     l6431:
  5888                           
  5889                           ;/home/dev-user/Projects/Personal/PIC/PIC18Test1.X/System.c: 57:     if(setupDisp(1010) 
      +                          == STAT_SUCCESS){
  5890  003C8A  0E03               	movlw	3
  5891  003C8C  6E22               	movwf	(setupDisp@initVal+1)^0,c
  5892  003C8E  0EF2               	movlw	242
  5893  003C90  6E21               	movwf	setupDisp@initVal^0,c
  5894  003C92  ECEB  F026         	call	_setupDisp	;wreg free
  5895  003C96  0900               	iorlw	0
  5896  003C98  A4D8               	btfss	status,2,c
  5897  003C9A  EF51  F01E         	goto	u6331
  5898  003C9E  EF53  F01E         	goto	u6330
  5899  003CA2                     u6331:
  5900  003CA2  EF55  F01E         	goto	l6435
  5901  003CA6                     u6330:
  5902  003CA6                     
  5903                           ;/home/dev-user/Projects/Personal/PIC/PIC18Test1.X/System.c: 58:         sys_stat |= 2;
  5904  003CA6  0100               	movlb	0	; () banked
  5905  003CA8  83C3               	bsf	_sys_stat& (0+255),1,b	;volatile
  5906  003CAA                     l6435:
  5907                           
  5908                           ;/home/dev-user/Projects/Personal/PIC/PIC18Test1.X/System.c: 61:     if(UART1Setup(11520
      +                          0,1,1) == STAT_SUCCESS){
  5909  003CAA  0E00               	movlw	0
  5910  003CAC  6E1E               	movwf	UART1Setup@set_baud^0,c
  5911  003CAE  0EC2               	movlw	194
  5912  003CB0  6E1F               	movwf	(UART1Setup@set_baud+1)^0,c
  5913  003CB2  0E01               	movlw	1
  5914  003CB4  6E20               	movwf	(UART1Setup@set_baud+2)^0,c
  5915  003CB6  0E00               	movlw	0
  5916  003CB8  6E21               	movwf	(UART1Setup@set_baud+3)^0,c
  5917  003CBA  0E01               	movlw	1
  5918  003CBC  6E22               	movwf	UART1Setup@use_tx^0,c
  5919  003CBE  0E01               	movlw	1
  5920  003CC0  6E23               	movwf	UART1Setup@use_rx^0,c
  5921  003CC2  ECBF  F018         	call	_UART1Setup	;wreg free
  5922  003CC6  0900               	iorlw	0
  5923  003CC8  A4D8               	btfss	status,2,c
  5924  003CCA  EF69  F01E         	goto	u6341
  5925  003CCE  EF6B  F01E         	goto	u6340
  5926  003CD2                     u6341:
  5927  003CD2  EF6D  F01E         	goto	l6439
  5928  003CD6                     u6340:
  5929  003CD6                     
  5930                           ;/home/dev-user/Projects/Personal/PIC/PIC18Test1.X/System.c: 62:         sys_stat |= 4;
  5931  003CD6  0100               	movlb	0	; () banked
  5932  003CD8  85C3               	bsf	_sys_stat& (0+255),2,b	;volatile
  5933  003CDA                     l6439:
  5934                           
  5935                           ;/home/dev-user/Projects/Personal/PIC/PIC18Test1.X/System.c: 65:     if(IOExpSetup(&ioex
      +                          p1,0xE8,0x0000,0x0000,0x0000) == STAT_SUCCESS){
  5936  003CDA  0EC1               	movlw	low _ioexp1
  5937  003CDC  6E2D               	movwf	IOExpSetup@ioexp_inst^0,c
  5938  003CDE  0E01               	movlw	high _ioexp1
  5939  003CE0  6E2E               	movwf	(IOExpSetup@ioexp_inst+1)^0,c
  5940  003CE2  0EE8               	movlw	232
  5941  003CE4  6E2F               	movwf	IOExpSetup@set_addr^0,c
  5942  003CE6  0E00               	movlw	0
  5943  003CE8  6E31               	movwf	(IOExpSetup@set_dir+1)^0,c
  5944  003CEA  0E00               	movlw	0
  5945  003CEC  6E30               	movwf	IOExpSetup@set_dir^0,c
  5946  003CEE  0E00               	movlw	0
  5947  003CF0  6E33               	movwf	(IOExpSetup@set_inv+1)^0,c
  5948  003CF2  0E00               	movlw	0
  5949  003CF4  6E32               	movwf	IOExpSetup@set_inv^0,c
  5950  003CF6  0E00               	movlw	0
  5951  003CF8  6E35               	movwf	(IOExpSetup@set_oval+1)^0,c
  5952  003CFA  0E00               	movlw	0
  5953  003CFC  6E34               	movwf	IOExpSetup@set_oval^0,c
  5954  003CFE  ECFE  F020         	call	_IOExpSetup	;wreg free
  5955  003D02  0900               	iorlw	0
  5956  003D04  A4D8               	btfss	status,2,c
  5957  003D06  EF87  F01E         	goto	u6351
  5958  003D0A  EF89  F01E         	goto	u6350
  5959  003D0E                     u6351:
  5960  003D0E  EF8B  F01E         	goto	l6443
  5961  003D12                     u6350:
  5962  003D12                     
  5963                           ;/home/dev-user/Projects/Personal/PIC/PIC18Test1.X/System.c: 66:         sys_stat |= 8;
  5964  003D12  0100               	movlb	0	; () banked
  5965  003D14  87C3               	bsf	_sys_stat& (0+255),3,b	;volatile
  5966  003D16                     l6443:
  5967                           
  5968                           ;/home/dev-user/Projects/Personal/PIC/PIC18Test1.X/System.c: 79:     INTCON0bits.IPEN = 
      +                          1;
  5969  003D16  8AD2               	bsf	210,5,c	;volatile
  5970  003D18                     
  5971                           ;/home/dev-user/Projects/Personal/PIC/PIC18Test1.X/System.c: 80:     GIE = 1;
  5972  003D18  8ED2               	bsf	16338,7,c	;volatile
  5973  003D1A                     
  5974                           ;/home/dev-user/Projects/Personal/PIC/PIC18Test1.X/System.c: 82:     return STAT_SUCCESS
      +                          ;
  5975  003D1A  0E00               	movlw	0
  5976  003D1C  0012               	return		;funcret
  5977  003D1E                     __end_of_SysInit:
  5978                           	callstack 0
  5979                           
  5980 ;; *************** function _setupDisp *****************
  5981 ;; Defined at:
  5982 ;;		line 4 in file "/home/dev-user/Projects/Personal/PIC/LibOutputDevices.X/disp_7seg4dig.c"
  5983 ;; Parameters:    Size  Location     Type
  5984 ;;  initVal         2   32[COMRAM] unsigned short 
  5985 ;; Auto vars:     Size  Location     Type
  5986 ;;		None
  5987 ;; Return value:  Size  Location     Type
  5988 ;;                  1    wreg      enum E16361
  5989 ;; Registers used:
  5990 ;;		wreg, fsr2l, fsr2h, status,2, status,0, cstack
  5991 ;; Tracked objects:
  5992 ;;		On entry : 0/0
  5993 ;;		On exit  : 0/0
  5994 ;;		Unchanged: 0/0
  5995 ;; Data sizes:     COMRAM   BANK0   BANK1   BANK2   BANK3   BANK4   BANK5   BANK6   BANK7   BANK8   BANK9  BANK10  BANK1
      +1  BANK12  BANK13  BANK14  BANK15  BANK16  BANK17  BANK18  BANK19  BANK20  BANK21  BANK22  BANK23  BANK24  BANK25  BANK2
      +6  BANK27  BANK28  BANK29  BANK30  BANK31
  5996 ;;      Params:         2       0       0       0       0       0       0       0       0       0       0       0       
      +0       0       0       0       0       0       0       0       0       0       0       0       0       0       0       
      +0       0       0       0       0       0
  5997 ;;      Locals:         0       0       0       0       0       0       0       0       0       0       0       0       
      +0       0       0       0       0       0       0       0       0       0       0       0       0       0       0       
      +0       0       0       0       0       0
  5998 ;;      Temps:          0       0       0       0       0       0       0       0       0       0       0       0       
      +0       0       0       0       0       0       0       0       0       0       0       0       0       0       0       
      +0       0       0       0       0       0
  5999 ;;      Totals:         2       0       0       0       0       0       0       0       0       0       0       0       
      +0       0       0       0       0       0       0       0       0       0       0       0       0       0       0       
      +0       0       0       0       0       0
  6000 ;;Total ram usage:        2 bytes
  6001 ;; Hardware stack levels used:    1
  6002 ;; Hardware stack levels required when called:    5
  6003 ;; This function calls:
  6004 ;;		_updateDispVal
  6005 ;; This function is called by:
  6006 ;;		_SysInit
  6007 ;; This function uses a non-reentrant model
  6008 ;;
  6009                           
  6010                           	psect	text28
  6011  004DD6                     __ptext28:
  6012                           	callstack 0
  6013  004DD6                     _setupDisp:
  6014                           	callstack 24
  6015  004DD6                     
  6016                           ;/home/dev-user/Projects/Personal/PIC/LibOutputDevices.X/disp_7seg4dig.c: 4: STATUS_T se
      +                          tupDisp(uint16_t initVal);/home/dev-user/Projects/Personal/PIC/LibOutputDevices.X/disp_7
      +                          seg4dig.c: 5: {;/home/dev-user/Projects/Personal/PIC/LibOutputDevices.X/disp_7seg4dig.c:
      +                           8:     LATCbits.LATC0 = 0;
  6017  004DD6  90BC               	bcf	188,0,c	;volatile
  6018                           
  6019                           ;/home/dev-user/Projects/Personal/PIC/LibOutputDevices.X/disp_7seg4dig.c: 9:     LATCbit
      +                          s.LATC1 = 0;
  6020  004DD8  92BC               	bcf	188,1,c	;volatile
  6021                           
  6022                           ;/home/dev-user/Projects/Personal/PIC/LibOutputDevices.X/disp_7seg4dig.c: 10:     LATCbi
      +                          ts.LATC2 = 0;
  6023  004DDA  94BC               	bcf	188,2,c	;volatile
  6024                           
  6025                           ;/home/dev-user/Projects/Personal/PIC/LibOutputDevices.X/disp_7seg4dig.c: 11:     LATCbi
      +                          ts.LATC3 = 0;
  6026  004DDC  96BC               	bcf	188,3,c	;volatile
  6027                           
  6028                           ;/home/dev-user/Projects/Personal/PIC/LibOutputDevices.X/disp_7seg4dig.c: 14:     TRISCb
      +                          its.TRISC0 = 0;
  6029  004DDE  90C4               	bcf	196,0,c	;volatile
  6030                           
  6031                           ;/home/dev-user/Projects/Personal/PIC/LibOutputDevices.X/disp_7seg4dig.c: 15:     TRISCb
      +                          its.TRISC1 = 0;
  6032  004DE0  92C4               	bcf	196,1,c	;volatile
  6033                           
  6034                           ;/home/dev-user/Projects/Personal/PIC/LibOutputDevices.X/disp_7seg4dig.c: 16:     TRISCb
      +                          its.TRISC2 = 0;
  6035  004DE2  94C4               	bcf	196,2,c	;volatile
  6036                           
  6037                           ;/home/dev-user/Projects/Personal/PIC/LibOutputDevices.X/disp_7seg4dig.c: 17:     TRISCb
      +                          its.TRISC3 = 0;
  6038  004DE4  96C4               	bcf	196,3,c	;volatile
  6039                           
  6040                           ;/home/dev-user/Projects/Personal/PIC/LibOutputDevices.X/disp_7seg4dig.c: 19:     LATD =
      +                           0xFF;
  6041  004DE6  68BD               	setf	189,c	;volatile
  6042  004DE8                     
  6043                           ;/home/dev-user/Projects/Personal/PIC/LibOutputDevices.X/disp_7seg4dig.c: 20:     TRISD 
      +                          = 0x00;
  6044  004DE8  0E00               	movlw	0
  6045  004DEA  6EC5               	movwf	197,c	;volatile
  6046                           
  6047                           ;/home/dev-user/Projects/Personal/PIC/LibOutputDevices.X/disp_7seg4dig.c: 22:     dig_id
      +                          x = 0;
  6048  004DEC  0E00               	movlw	0
  6049  004DEE  6E48               	movwf	_dig_idx^0,c
  6050                           
  6051                           ;/home/dev-user/Projects/Personal/PIC/LibOutputDevices.X/disp_7seg4dig.c: 23:     update
      +                          _disp_trigger = 0;
  6052  004DF0  0E00               	movlw	0
  6053  004DF2  0100               	movlb	0	; () banked
  6054  004DF4  6FC5               	movwf	_update_disp_trigger& (0+255),b
  6055  004DF6                     
  6056                           ; BSR set to: 0
  6057                           ;/home/dev-user/Projects/Personal/PIC/LibOutputDevices.X/disp_7seg4dig.c: 25:     update
      +                          DispVal(initVal,4);
  6058  004DF6  C021  F018         	movff	setupDisp@initVal,updateDispVal@newVal
  6059  004DFA  C022  F019         	movff	setupDisp@initVal+1,updateDispVal@newVal+1
  6060  004DFE  0E04               	movlw	4
  6061  004E00  6E1A               	movwf	updateDispVal@newDP^0,c
  6062  004E02  EC22  F015         	call	_updateDispVal	;wreg free
  6063  004E06                     
  6064                           ;/home/dev-user/Projects/Personal/PIC/LibOutputDevices.X/disp_7seg4dig.c: 27:     return
      +                           STAT_SUCCESS;
  6065  004E06  0E00               	movlw	0
  6066  004E08  0012               	return		;funcret
  6067  004E0A                     __end_of_setupDisp:
  6068                           	callstack 0
  6069                           
  6070 ;; *************** function _updateDispVal *****************
  6071 ;; Defined at:
  6072 ;;		line 30 in file "/home/dev-user/Projects/Personal/PIC/LibOutputDevices.X/disp_7seg4dig.c"
  6073 ;; Parameters:    Size  Location     Type
  6074 ;;  newVal          2   23[COMRAM] unsigned short 
  6075 ;;  newDP           1   25[COMRAM] unsigned char 
  6076 ;; Auto vars:     Size  Location     Type
  6077 ;;  tmpVal          2   30[COMRAM] unsigned short 
  6078 ;;  dig_2_on        1   29[COMRAM] _Bool 
  6079 ;;  dig_1_on        1   28[COMRAM] _Bool 
  6080 ;;  dig_3_on        1   27[COMRAM] _Bool 
  6081 ;;  dig_0_on        1   26[COMRAM] _Bool 
  6082 ;; Return value:  Size  Location     Type
  6083 ;;                  1    wreg      enum E16287
  6084 ;; Registers used:
  6085 ;;		wreg, fsr2l, fsr2h, status,2, status,0, cstack
  6086 ;; Tracked objects:
  6087 ;;		On entry : 0/0
  6088 ;;		On exit  : 0/0
  6089 ;;		Unchanged: 0/0
  6090 ;; Data sizes:     COMRAM   BANK0   BANK1   BANK2   BANK3   BANK4   BANK5   BANK6   BANK7   BANK8   BANK9  BANK10  BANK1
      +1  BANK12  BANK13  BANK14  BANK15  BANK16  BANK17  BANK18  BANK19  BANK20  BANK21  BANK22  BANK23  BANK24  BANK25  BANK2
      +6  BANK27  BANK28  BANK29  BANK30  BANK31
  6091 ;;      Params:         3       0       0       0       0       0       0       0       0       0       0       0       
      +0       0       0       0       0       0       0       0       0       0       0       0       0       0       0       
      +0       0       0       0       0       0
  6092 ;;      Locals:         6       0       0       0       0       0       0       0       0       0       0       0       
      +0       0       0       0       0       0       0       0       0       0       0       0       0       0       0       
      +0       0       0       0       0       0
  6093 ;;      Temps:          0       0       0       0       0       0       0       0       0       0       0       0       
      +0       0       0       0       0       0       0       0       0       0       0       0       0       0       0       
      +0       0       0       0       0       0
  6094 ;;      Totals:         9       0       0       0       0       0       0       0       0       0       0       0       
      +0       0       0       0       0       0       0       0       0       0       0       0       0       0       0       
      +0       0       0       0       0       0
  6095 ;;Total ram usage:        9 bytes
  6096 ;; Hardware stack levels used:    1
  6097 ;; Hardware stack levels required when called:    4
  6098 ;; This function calls:
  6099 ;;		___lwdiv
  6100 ;;		___lwmod
  6101 ;; This function is called by:
  6102 ;;		_setupDisp
  6103 ;; This function uses a non-reentrant model
  6104 ;;
  6105                           
  6106                           	psect	text29
  6107  002A44                     __ptext29:
  6108                           	callstack 0
  6109  002A44                     _updateDispVal:
  6110                           	callstack 24
  6111  002A44                     
  6112                           ;/home/dev-user/Projects/Personal/PIC/LibOutputDevices.X/disp_7seg4dig.c: 30: STATUS_T u
      +                          pdateDispVal(uint16_t newVal, uint8_t newDP);/home/dev-user/Projects/Personal/PIC/LibOut
      +                          putDevices.X/disp_7seg4dig.c: 31: {;/home/dev-user/Projects/Personal/PIC/LibOutputDevice
      +                          s.X/disp_7seg4dig.c: 32:     _Bool dig_0_on = 0;
  6113  002A44  0E00               	movlw	0
  6114  002A46  6E1B               	movwf	updateDispVal@dig_0_on^0,c
  6115                           
  6116                           ;/home/dev-user/Projects/Personal/PIC/LibOutputDevices.X/disp_7seg4dig.c: 33:     _Bool 
      +                          dig_1_on = 0;
  6117  002A48  0E00               	movlw	0
  6118  002A4A  6E1D               	movwf	updateDispVal@dig_1_on^0,c
  6119                           
  6120                           ;/home/dev-user/Projects/Personal/PIC/LibOutputDevices.X/disp_7seg4dig.c: 34:     _Bool 
      +                          dig_2_on = 0;
  6121  002A4C  0E00               	movlw	0
  6122  002A4E  6E1E               	movwf	updateDispVal@dig_2_on^0,c
  6123                           
  6124                           ;/home/dev-user/Projects/Personal/PIC/LibOutputDevices.X/disp_7seg4dig.c: 35:     _Bool 
      +                          dig_3_on = 0;
  6125  002A50  0E00               	movlw	0
  6126  002A52  6E1C               	movwf	updateDispVal@dig_3_on^0,c
  6127  002A54                     
  6128                           ;/home/dev-user/Projects/Personal/PIC/LibOutputDevices.X/disp_7seg4dig.c: 37:     uint16
      +                          _t tmpVal = newVal / 1000;
  6129  002A54  C018  F011         	movff	updateDispVal@newVal,___lwdiv@dividend
  6130  002A58  C019  F012         	movff	updateDispVal@newVal+1,___lwdiv@dividend+1
  6131  002A5C  0E03               	movlw	3
  6132  002A5E  6E14               	movwf	(___lwdiv@divisor+1)^0,c
  6133  002A60  0EE8               	movlw	232
  6134  002A62  6E13               	movwf	___lwdiv@divisor^0,c
  6135  002A64  EC29  F024         	call	___lwdiv	;wreg free
  6136  002A68  C011  F01F         	movff	?___lwdiv,updateDispVal@tmpVal
  6137  002A6C  C012  F020         	movff	?___lwdiv+1,updateDispVal@tmpVal+1
  6138  002A70                     
  6139                           ;/home/dev-user/Projects/Personal/PIC/LibOutputDevices.X/disp_7seg4dig.c: 38:     if(tmp
      +                          Val > 0){
  6140  002A70  501F               	movf	updateDispVal@tmpVal^0,w,c
  6141  002A72  1020               	iorwf	(updateDispVal@tmpVal+1)^0,w,c
  6142  002A74  B4D8               	btfsc	status,2,c
  6143  002A76  EF3F  F015         	goto	u5651
  6144  002A7A  EF41  F015         	goto	u5650
  6145  002A7E                     u5651:
  6146  002A7E  EF4D  F015         	goto	l5879
  6147  002A82                     u5650:
  6148  002A82                     
  6149                           ;/home/dev-user/Projects/Personal/PIC/LibOutputDevices.X/disp_7seg4dig.c: 39:         di
      +                          g_disp_val[3] = dispChars[tmpVal];
  6150  002A82  0ECA               	movlw	low _dispChars
  6151  002A84  241F               	addwf	updateDispVal@tmpVal^0,w,c
  6152  002A86  6ED9               	movwf	fsr2l,c
  6153  002A88  0E01               	movlw	high _dispChars
  6154  002A8A  2020               	addwfc	(updateDispVal@tmpVal+1)^0,w,c
  6155  002A8C  6EDA               	movwf	fsr2h,c
  6156  002A8E  50DF               	movf	indf2,w,c
  6157  002A90  6E41               	movwf	(_dig_disp_val+3)^0,c
  6158  002A92                     l5877:
  6159                           
  6160                           ;/home/dev-user/Projects/Personal/PIC/LibOutputDevices.X/disp_7seg4dig.c: 40:         di
      +                          g_3_on = 1;
  6161  002A92  0E01               	movlw	1
  6162  002A94  6E1C               	movwf	updateDispVal@dig_3_on^0,c
  6163                           
  6164                           ;/home/dev-user/Projects/Personal/PIC/LibOutputDevices.X/disp_7seg4dig.c: 41:     } else
      +                           if (newDP == 3) {
  6165  002A96  EF5B  F015         	goto	l5885
  6166  002A9A                     l5879:
  6167  002A9A  0E03               	movlw	3
  6168  002A9C  181A               	xorwf	updateDispVal@newDP^0,w,c
  6169  002A9E  A4D8               	btfss	status,2,c
  6170  002AA0  EF54  F015         	goto	u5661
  6171  002AA4  EF56  F015         	goto	u5660
  6172  002AA8                     u5661:
  6173  002AA8  EF5A  F015         	goto	l604
  6174  002AAC                     u5660:
  6175  002AAC                     
  6176                           ;/home/dev-user/Projects/Personal/PIC/LibOutputDevices.X/disp_7seg4dig.c: 42:         di
      +                          g_disp_val[3] = dispChars[0];
  6177  002AAC  C1CA  F041         	movff	_dispChars,_dig_disp_val+3
  6178  002AB0  EF49  F015         	goto	l5877
  6179  002AB4                     l604:
  6180                           
  6181                           ;/home/dev-user/Projects/Personal/PIC/LibOutputDevices.X/disp_7seg4dig.c: 45:         di
      +                          g_disp_val[3] = 0xFF;
  6182  002AB4  6841               	setf	(_dig_disp_val+3)^0,c
  6183  002AB6                     l5885:
  6184                           
  6185                           ;/home/dev-user/Projects/Personal/PIC/LibOutputDevices.X/disp_7seg4dig.c: 47:     if(dig
      +                          _3_on && newDP == 3)
  6186  002AB6  501C               	movf	updateDispVal@dig_3_on^0,w,c
  6187  002AB8  B4D8               	btfsc	status,2,c
  6188  002ABA  EF61  F015         	goto	u5671
  6189  002ABE  EF63  F015         	goto	u5670
  6190  002AC2                     u5671:
  6191  002AC2  EF6D  F015         	goto	l5891
  6192  002AC6                     u5670:
  6193  002AC6  0E03               	movlw	3
  6194  002AC8  181A               	xorwf	updateDispVal@newDP^0,w,c
  6195  002ACA  A4D8               	btfss	status,2,c
  6196  002ACC  EF6A  F015         	goto	u5681
  6197  002AD0  EF6C  F015         	goto	u5680
  6198  002AD4                     u5681:
  6199  002AD4  EF6D  F015         	goto	l5891
  6200  002AD8                     u5680:
  6201  002AD8                     
  6202                           ;/home/dev-user/Projects/Personal/PIC/LibOutputDevices.X/disp_7seg4dig.c: 48:         di
      +                          g_disp_val[3] &= 0x7F;;
  6203  002AD8  9E41               	bcf	(_dig_disp_val+3)^0,7,c
  6204  002ADA                     l5891:
  6205                           
  6206                           ;/home/dev-user/Projects/Personal/PIC/LibOutputDevices.X/disp_7seg4dig.c: 49:     newVal
      +                           = newVal % 1000;
  6207  002ADA  C018  F011         	movff	updateDispVal@newVal,___lwmod@dividend
  6208  002ADE  C019  F012         	movff	updateDispVal@newVal+1,___lwmod@dividend+1
  6209  002AE2  0E03               	movlw	3
  6210  002AE4  6E14               	movwf	(___lwmod@divisor+1)^0,c
  6211  002AE6  0EE8               	movlw	232
  6212  002AE8  6E13               	movwf	___lwmod@divisor^0,c
  6213  002AEA  EC09  F025         	call	___lwmod	;wreg free
  6214  002AEE  C011  F018         	movff	?___lwmod,updateDispVal@newVal
  6215  002AF2  C012  F019         	movff	?___lwmod+1,updateDispVal@newVal+1
  6216  002AF6                     
  6217                           ;/home/dev-user/Projects/Personal/PIC/LibOutputDevices.X/disp_7seg4dig.c: 51:     tmpVal
      +                           = newVal / 100;
  6218  002AF6  C018  F011         	movff	updateDispVal@newVal,___lwdiv@dividend
  6219  002AFA  C019  F012         	movff	updateDispVal@newVal+1,___lwdiv@dividend+1
  6220  002AFE  0E00               	movlw	0
  6221  002B00  6E14               	movwf	(___lwdiv@divisor+1)^0,c
  6222  002B02  0E64               	movlw	100
  6223  002B04  6E13               	movwf	___lwdiv@divisor^0,c
  6224  002B06  EC29  F024         	call	___lwdiv	;wreg free
  6225  002B0A  C011  F01F         	movff	?___lwdiv,updateDispVal@tmpVal
  6226  002B0E  C012  F020         	movff	?___lwdiv+1,updateDispVal@tmpVal+1
  6227  002B12                     
  6228                           ;/home/dev-user/Projects/Personal/PIC/LibOutputDevices.X/disp_7seg4dig.c: 52:     if(tmp
      +                          Val > 0){
  6229  002B12  501F               	movf	updateDispVal@tmpVal^0,w,c
  6230  002B14  1020               	iorwf	(updateDispVal@tmpVal+1)^0,w,c
  6231  002B16  B4D8               	btfsc	status,2,c
  6232  002B18  EF90  F015         	goto	u5691
  6233  002B1C  EF92  F015         	goto	u5690
  6234  002B20                     u5691:
  6235  002B20  EF9E  F015         	goto	l5901
  6236  002B24                     u5690:
  6237  002B24                     
  6238                           ;/home/dev-user/Projects/Personal/PIC/LibOutputDevices.X/disp_7seg4dig.c: 53:         di
      +                          g_disp_val[2] = dispChars[tmpVal];
  6239  002B24  0ECA               	movlw	low _dispChars
  6240  002B26  241F               	addwf	updateDispVal@tmpVal^0,w,c
  6241  002B28  6ED9               	movwf	fsr2l,c
  6242  002B2A  0E01               	movlw	high _dispChars
  6243  002B2C  2020               	addwfc	(updateDispVal@tmpVal+1)^0,w,c
  6244  002B2E  6EDA               	movwf	fsr2h,c
  6245  002B30  50DF               	movf	indf2,w,c
  6246  002B32  6E40               	movwf	(_dig_disp_val+2)^0,c
  6247  002B34                     l5899:
  6248                           
  6249                           ;/home/dev-user/Projects/Personal/PIC/LibOutputDevices.X/disp_7seg4dig.c: 54:         di
      +                          g_2_on = 1;
  6250  002B34  0E01               	movlw	1
  6251  002B36  6E1E               	movwf	updateDispVal@dig_2_on^0,c
  6252                           
  6253                           ;/home/dev-user/Projects/Personal/PIC/LibOutputDevices.X/disp_7seg4dig.c: 55:     } else
      +                           {
  6254  002B38  EFB6  F015         	goto	l5913
  6255  002B3C                     l5901:
  6256                           
  6257                           ;/home/dev-user/Projects/Personal/PIC/LibOutputDevices.X/disp_7seg4dig.c: 56:         if
      +                          (dig_3_on){
  6258  002B3C  501C               	movf	updateDispVal@dig_3_on^0,w,c
  6259  002B3E  B4D8               	btfsc	status,2,c
  6260  002B40  EFA4  F015         	goto	u5701
  6261  002B44  EFA6  F015         	goto	u5700
  6262  002B48                     u5701:
  6263  002B48  EFAA  F015         	goto	l5907
  6264  002B4C                     u5700:
  6265  002B4C                     l5903:
  6266                           
  6267                           ;/home/dev-user/Projects/Personal/PIC/LibOutputDevices.X/disp_7seg4dig.c: 57:           
      +                            dig_disp_val[2] = dispChars[0];
  6268  002B4C  C1CA  F040         	movff	_dispChars,_dig_disp_val+2
  6269  002B50  EF9A  F015         	goto	l5899
  6270  002B54                     l5907:
  6271  002B54  0E02               	movlw	2
  6272  002B56  181A               	xorwf	updateDispVal@newDP^0,w,c
  6273  002B58  A4D8               	btfss	status,2,c
  6274  002B5A  EFB1  F015         	goto	u5711
  6275  002B5E  EFB3  F015         	goto	u5710
  6276  002B62                     u5711:
  6277  002B62  EFB5  F015         	goto	l611
  6278  002B66                     u5710:
  6279  002B66  EFA6  F015         	goto	l5903
  6280  002B6A                     l611:
  6281                           
  6282                           ;/home/dev-user/Projects/Personal/PIC/LibOutputDevices.X/disp_7seg4dig.c: 63:           
      +                            dig_disp_val[2] = 0xFF;
  6283  002B6A  6840               	setf	(_dig_disp_val+2)^0,c
  6284  002B6C                     l5913:
  6285                           
  6286                           ;/home/dev-user/Projects/Personal/PIC/LibOutputDevices.X/disp_7seg4dig.c: 66:     if(dig
      +                          _2_on && newDP == 2)
  6287  002B6C  501E               	movf	updateDispVal@dig_2_on^0,w,c
  6288  002B6E  B4D8               	btfsc	status,2,c
  6289  002B70  EFBC  F015         	goto	u5721
  6290  002B74  EFBE  F015         	goto	u5720
  6291  002B78                     u5721:
  6292  002B78  EFC8  F015         	goto	l5919
  6293  002B7C                     u5720:
  6294  002B7C  0E02               	movlw	2
  6295  002B7E  181A               	xorwf	updateDispVal@newDP^0,w,c
  6296  002B80  A4D8               	btfss	status,2,c
  6297  002B82  EFC5  F015         	goto	u5731
  6298  002B86  EFC7  F015         	goto	u5730
  6299  002B8A                     u5731:
  6300  002B8A  EFC8  F015         	goto	l5919
  6301  002B8E                     u5730:
  6302  002B8E                     
  6303                           ;/home/dev-user/Projects/Personal/PIC/LibOutputDevices.X/disp_7seg4dig.c: 67:         di
      +                          g_disp_val[2] &= 0x7F;;
  6304  002B8E  9E40               	bcf	(_dig_disp_val+2)^0,7,c
  6305  002B90                     l5919:
  6306                           
  6307                           ;/home/dev-user/Projects/Personal/PIC/LibOutputDevices.X/disp_7seg4dig.c: 68:     newVal
      +                           = newVal % 100;
  6308  002B90  C018  F011         	movff	updateDispVal@newVal,___lwmod@dividend
  6309  002B94  C019  F012         	movff	updateDispVal@newVal+1,___lwmod@dividend+1
  6310  002B98  0E00               	movlw	0
  6311  002B9A  6E14               	movwf	(___lwmod@divisor+1)^0,c
  6312  002B9C  0E64               	movlw	100
  6313  002B9E  6E13               	movwf	___lwmod@divisor^0,c
  6314  002BA0  EC09  F025         	call	___lwmod	;wreg free
  6315  002BA4  C011  F018         	movff	?___lwmod,updateDispVal@newVal
  6316  002BA8  C012  F019         	movff	?___lwmod+1,updateDispVal@newVal+1
  6317  002BAC                     
  6318                           ;/home/dev-user/Projects/Personal/PIC/LibOutputDevices.X/disp_7seg4dig.c: 70:     tmpVal
      +                           = newVal / 10;
  6319  002BAC  C018  F011         	movff	updateDispVal@newVal,___lwdiv@dividend
  6320  002BB0  C019  F012         	movff	updateDispVal@newVal+1,___lwdiv@dividend+1
  6321  002BB4  0E00               	movlw	0
  6322  002BB6  6E14               	movwf	(___lwdiv@divisor+1)^0,c
  6323  002BB8  0E0A               	movlw	10
  6324  002BBA  6E13               	movwf	___lwdiv@divisor^0,c
  6325  002BBC  EC29  F024         	call	___lwdiv	;wreg free
  6326  002BC0  C011  F01F         	movff	?___lwdiv,updateDispVal@tmpVal
  6327  002BC4  C012  F020         	movff	?___lwdiv+1,updateDispVal@tmpVal+1
  6328  002BC8                     
  6329                           ;/home/dev-user/Projects/Personal/PIC/LibOutputDevices.X/disp_7seg4dig.c: 71:     if(tmp
      +                          Val > 0){
  6330  002BC8  501F               	movf	updateDispVal@tmpVal^0,w,c
  6331  002BCA  1020               	iorwf	(updateDispVal@tmpVal+1)^0,w,c
  6332  002BCC  B4D8               	btfsc	status,2,c
  6333  002BCE  EFEB  F015         	goto	u5741
  6334  002BD2  EFED  F015         	goto	u5740
  6335  002BD6                     u5741:
  6336  002BD6  EFF9  F015         	goto	l5929
  6337  002BDA                     u5740:
  6338  002BDA                     
  6339                           ;/home/dev-user/Projects/Personal/PIC/LibOutputDevices.X/disp_7seg4dig.c: 72:         di
      +                          g_disp_val[1] = dispChars[tmpVal];
  6340  002BDA  0ECA               	movlw	low _dispChars
  6341  002BDC  241F               	addwf	updateDispVal@tmpVal^0,w,c
  6342  002BDE  6ED9               	movwf	fsr2l,c
  6343  002BE0  0E01               	movlw	high _dispChars
  6344  002BE2  2020               	addwfc	(updateDispVal@tmpVal+1)^0,w,c
  6345  002BE4  6EDA               	movwf	fsr2h,c
  6346  002BE6  50DF               	movf	indf2,w,c
  6347  002BE8  6E3F               	movwf	(_dig_disp_val+1)^0,c
  6348  002BEA                     l5927:
  6349                           
  6350                           ;/home/dev-user/Projects/Personal/PIC/LibOutputDevices.X/disp_7seg4dig.c: 73:         di
      +                          g_1_on = 1;
  6351  002BEA  0E01               	movlw	1
  6352  002BEC  6E1D               	movwf	updateDispVal@dig_1_on^0,c
  6353                           
  6354                           ;/home/dev-user/Projects/Personal/PIC/LibOutputDevices.X/disp_7seg4dig.c: 74:     } else
      +                           {
  6355  002BEE  EF10  F016         	goto	l5941
  6356  002BF2                     l5929:
  6357                           
  6358                           ;/home/dev-user/Projects/Personal/PIC/LibOutputDevices.X/disp_7seg4dig.c: 75:         if
      +                          (dig_2_on){
  6359  002BF2  501E               	movf	updateDispVal@dig_2_on^0,w,c
  6360  002BF4  B4D8               	btfsc	status,2,c
  6361  002BF6  EFFF  F015         	goto	u5751
  6362  002BFA  EF01  F016         	goto	u5750
  6363  002BFE                     u5751:
  6364  002BFE  EF05  F016         	goto	l5935
  6365  002C02                     u5750:
  6366  002C02                     l5931:
  6367                           
  6368                           ;/home/dev-user/Projects/Personal/PIC/LibOutputDevices.X/disp_7seg4dig.c: 76:           
      +                            dig_disp_val[1] = dispChars[0];
  6369  002C02  C1CA  F03F         	movff	_dispChars,_dig_disp_val+1
  6370  002C06  EFF5  F015         	goto	l5927
  6371  002C0A                     l5935:
  6372  002C0A  041A               	decf	updateDispVal@newDP^0,w,c
  6373  002C0C  A4D8               	btfss	status,2,c
  6374  002C0E  EF0B  F016         	goto	u5761
  6375  002C12  EF0D  F016         	goto	u5760
  6376  002C16                     u5761:
  6377  002C16  EF0F  F016         	goto	l618
  6378  002C1A                     u5760:
  6379  002C1A  EF01  F016         	goto	l5931
  6380  002C1E                     l618:
  6381                           
  6382                           ;/home/dev-user/Projects/Personal/PIC/LibOutputDevices.X/disp_7seg4dig.c: 82:           
      +                            dig_disp_val[1] = 0xFF;
  6383  002C1E  683F               	setf	(_dig_disp_val+1)^0,c
  6384  002C20                     l5941:
  6385                           
  6386                           ;/home/dev-user/Projects/Personal/PIC/LibOutputDevices.X/disp_7seg4dig.c: 85:     if(dig
      +                          _1_on && newDP == 1)
  6387  002C20  501D               	movf	updateDispVal@dig_1_on^0,w,c
  6388  002C22  B4D8               	btfsc	status,2,c
  6389  002C24  EF16  F016         	goto	u5771
  6390  002C28  EF18  F016         	goto	u5770
  6391  002C2C                     u5771:
  6392  002C2C  EF21  F016         	goto	l5947
  6393  002C30                     u5770:
  6394  002C30  041A               	decf	updateDispVal@newDP^0,w,c
  6395  002C32  A4D8               	btfss	status,2,c
  6396  002C34  EF1E  F016         	goto	u5781
  6397  002C38  EF20  F016         	goto	u5780
  6398  002C3C                     u5781:
  6399  002C3C  EF21  F016         	goto	l5947
  6400  002C40                     u5780:
  6401  002C40                     
  6402                           ;/home/dev-user/Projects/Personal/PIC/LibOutputDevices.X/disp_7seg4dig.c: 86:         di
      +                          g_disp_val[1] &= 0x7F;;
  6403  002C40  9E3F               	bcf	(_dig_disp_val+1)^0,7,c
  6404  002C42                     l5947:
  6405                           
  6406                           ;/home/dev-user/Projects/Personal/PIC/LibOutputDevices.X/disp_7seg4dig.c: 87:     newVal
      +                           = newVal % 10;
  6407  002C42  C018  F011         	movff	updateDispVal@newVal,___lwmod@dividend
  6408  002C46  C019  F012         	movff	updateDispVal@newVal+1,___lwmod@dividend+1
  6409  002C4A  0E00               	movlw	0
  6410  002C4C  6E14               	movwf	(___lwmod@divisor+1)^0,c
  6411  002C4E  0E0A               	movlw	10
  6412  002C50  6E13               	movwf	___lwmod@divisor^0,c
  6413  002C52  EC09  F025         	call	___lwmod	;wreg free
  6414  002C56  C011  F018         	movff	?___lwmod,updateDispVal@newVal
  6415  002C5A  C012  F019         	movff	?___lwmod+1,updateDispVal@newVal+1
  6416  002C5E                     
  6417                           ;/home/dev-user/Projects/Personal/PIC/LibOutputDevices.X/disp_7seg4dig.c: 89:     tmpVal
      +                           = newVal;
  6418  002C5E  C018  F01F         	movff	updateDispVal@newVal,updateDispVal@tmpVal
  6419  002C62  C019  F020         	movff	updateDispVal@newVal+1,updateDispVal@tmpVal+1
  6420  002C66                     
  6421                           ;/home/dev-user/Projects/Personal/PIC/LibOutputDevices.X/disp_7seg4dig.c: 90:     if(tmp
      +                          Val > 0){
  6422  002C66  501F               	movf	updateDispVal@tmpVal^0,w,c
  6423  002C68  1020               	iorwf	(updateDispVal@tmpVal+1)^0,w,c
  6424  002C6A  B4D8               	btfsc	status,2,c
  6425  002C6C  EF3A  F016         	goto	u5791
  6426  002C70  EF3C  F016         	goto	u5790
  6427  002C74                     u5791:
  6428  002C74  EF48  F016         	goto	l5957
  6429  002C78                     u5790:
  6430  002C78                     
  6431                           ;/home/dev-user/Projects/Personal/PIC/LibOutputDevices.X/disp_7seg4dig.c: 91:         di
      +                          g_disp_val[0] = dispChars[tmpVal];
  6432  002C78  0ECA               	movlw	low _dispChars
  6433  002C7A  241F               	addwf	updateDispVal@tmpVal^0,w,c
  6434  002C7C  6ED9               	movwf	fsr2l,c
  6435  002C7E  0E01               	movlw	high _dispChars
  6436  002C80  2020               	addwfc	(updateDispVal@tmpVal+1)^0,w,c
  6437  002C82  6EDA               	movwf	fsr2h,c
  6438  002C84  50DF               	movf	indf2,w,c
  6439  002C86  6E3E               	movwf	_dig_disp_val^0,c
  6440  002C88                     l5955:
  6441                           
  6442                           ;/home/dev-user/Projects/Personal/PIC/LibOutputDevices.X/disp_7seg4dig.c: 92:         di
      +                          g_0_on = 1;
  6443  002C88  0E01               	movlw	1
  6444  002C8A  6E1B               	movwf	updateDispVal@dig_0_on^0,c
  6445                           
  6446                           ;/home/dev-user/Projects/Personal/PIC/LibOutputDevices.X/disp_7seg4dig.c: 93:     } else
      +                           {
  6447  002C8C  EF6A  F016         	goto	l5975
  6448  002C90                     l5957:
  6449                           
  6450                           ;/home/dev-user/Projects/Personal/PIC/LibOutputDevices.X/disp_7seg4dig.c: 94:         if
      +                          (dig_1_on){
  6451  002C90  501D               	movf	updateDispVal@dig_1_on^0,w,c
  6452  002C92  B4D8               	btfsc	status,2,c
  6453  002C94  EF4E  F016         	goto	u5801
  6454  002C98  EF50  F016         	goto	u5800
  6455  002C9C                     u5801:
  6456  002C9C  EF54  F016         	goto	l5963
  6457  002CA0                     u5800:
  6458  002CA0                     l5959:
  6459                           
  6460                           ;/home/dev-user/Projects/Personal/PIC/LibOutputDevices.X/disp_7seg4dig.c: 95:           
      +                            dig_disp_val[0] = dispChars[0];
  6461  002CA0  C1CA  F03E         	movff	_dispChars,_dig_disp_val
  6462  002CA4  EF44  F016         	goto	l5955
  6463  002CA8                     l5963:
  6464  002CA8  501A               	movf	updateDispVal@newDP^0,w,c
  6465  002CAA  A4D8               	btfss	status,2,c
  6466  002CAC  EF5A  F016         	goto	u5811
  6467  002CB0  EF5C  F016         	goto	u5810
  6468  002CB4                     u5811:
  6469  002CB4  EF5E  F016         	goto	l5969
  6470  002CB8                     u5810:
  6471  002CB8  EF50  F016         	goto	l5959
  6472  002CBC                     l5969:
  6473  002CBC  5018               	movf	updateDispVal@newVal^0,w,c
  6474  002CBE  1019               	iorwf	(updateDispVal@newVal+1)^0,w,c
  6475  002CC0  A4D8               	btfss	status,2,c
  6476  002CC2  EF65  F016         	goto	u5821
  6477  002CC6  EF67  F016         	goto	u5820
  6478  002CCA                     u5821:
  6479  002CCA  EF69  F016         	goto	l627
  6480  002CCE                     u5820:
  6481  002CCE  EF50  F016         	goto	l5959
  6482  002CD2                     l627:
  6483                           
  6484                           ;/home/dev-user/Projects/Personal/PIC/LibOutputDevices.X/disp_7seg4dig.c: 104:          
      +                             dig_disp_val[0] = 0xFF;
  6485  002CD2  683E               	setf	_dig_disp_val^0,c
  6486  002CD4                     l5975:
  6487                           
  6488                           ;/home/dev-user/Projects/Personal/PIC/LibOutputDevices.X/disp_7seg4dig.c: 107:     if(di
      +                          g_0_on && newDP == 0)
  6489  002CD4  501B               	movf	updateDispVal@dig_0_on^0,w,c
  6490  002CD6  B4D8               	btfsc	status,2,c
  6491  002CD8  EF70  F016         	goto	u5831
  6492  002CDC  EF72  F016         	goto	u5830
  6493  002CE0                     u5831:
  6494  002CE0  EF7B  F016         	goto	l630
  6495  002CE4                     u5830:
  6496  002CE4  501A               	movf	updateDispVal@newDP^0,w,c
  6497  002CE6  A4D8               	btfss	status,2,c
  6498  002CE8  EF78  F016         	goto	u5841
  6499  002CEC  EF7A  F016         	goto	u5840
  6500  002CF0                     u5841:
  6501  002CF0  EF7B  F016         	goto	l630
  6502  002CF4                     u5840:
  6503  002CF4                     
  6504                           ;/home/dev-user/Projects/Personal/PIC/LibOutputDevices.X/disp_7seg4dig.c: 108:         d
      +                          ig_disp_val[0] &= 0x7F;;
  6505  002CF4  9E3E               	bcf	_dig_disp_val^0,7,c
  6506  002CF6                     l630:
  6507  002CF6  0012               	return		;funcret
  6508  002CF8                     __end_of_updateDispVal:
  6509                           	callstack 0
  6510                           
  6511 ;; *************** function ___lwmod *****************
  6512 ;; Defined at:
  6513 ;;		line 7 in file "/opt/microchip/xc8/v2.30/pic/sources/c99/common/lwmod.c"
  6514 ;; Parameters:    Size  Location     Type
  6515 ;;  dividend        2   16[COMRAM] unsigned int 
  6516 ;;  divisor         2   18[COMRAM] unsigned int 
  6517 ;; Auto vars:     Size  Location     Type
  6518 ;;  counter         1   20[COMRAM] unsigned char 
  6519 ;; Return value:  Size  Location     Type
  6520 ;;                  2   16[COMRAM] unsigned int 
  6521 ;; Registers used:
  6522 ;;		wreg, status,2, status,0
  6523 ;; Tracked objects:
  6524 ;;		On entry : 0/0
  6525 ;;		On exit  : 0/0
  6526 ;;		Unchanged: 0/0
  6527 ;; Data sizes:     COMRAM   BANK0   BANK1   BANK2   BANK3   BANK4   BANK5   BANK6   BANK7   BANK8   BANK9  BANK10  BANK1
      +1  BANK12  BANK13  BANK14  BANK15  BANK16  BANK17  BANK18  BANK19  BANK20  BANK21  BANK22  BANK23  BANK24  BANK25  BANK2
      +6  BANK27  BANK28  BANK29  BANK30  BANK31
  6528 ;;      Params:         4       0       0       0       0       0       0       0       0       0       0       0       
      +0       0       0       0       0       0       0       0       0       0       0       0       0       0       0       
      +0       0       0       0       0       0
  6529 ;;      Locals:         1       0       0       0       0       0       0       0       0       0       0       0       
      +0       0       0       0       0       0       0       0       0       0       0       0       0       0       0       
      +0       0       0       0       0       0
  6530 ;;      Temps:          0       0       0       0       0       0       0       0       0       0       0       0       
      +0       0       0       0       0       0       0       0       0       0       0       0       0       0       0       
      +0       0       0       0       0       0
  6531 ;;      Totals:         5       0       0       0       0       0       0       0       0       0       0       0       
      +0       0       0       0       0       0       0       0       0       0       0       0       0       0       0       
      +0       0       0       0       0       0
  6532 ;;Total ram usage:        5 bytes
  6533 ;; Hardware stack levels used:    1
  6534 ;; Hardware stack levels required when called:    3
  6535 ;; This function calls:
  6536 ;;		Nothing
  6537 ;; This function is called by:
  6538 ;;		_updateDispVal
  6539 ;; This function uses a non-reentrant model
  6540 ;;
  6541                           
  6542                           	psect	text30
  6543  004A12                     __ptext30:
  6544                           	callstack 0
  6545  004A12                     ___lwmod:
  6546                           	callstack 24
  6547  004A12  5013               	movf	___lwmod@divisor^0,w,c
  6548  004A14  1014               	iorwf	(___lwmod@divisor+1)^0,w,c
  6549  004A16  B4D8               	btfsc	status,2,c
  6550  004A18  EF10  F025         	goto	u5241
  6551  004A1C  EF12  F025         	goto	u5240
  6552  004A20                     u5241:
  6553  004A20  EF36  F025         	goto	l1666
  6554  004A24                     u5240:
  6555  004A24  0E01               	movlw	1
  6556  004A26  6E15               	movwf	___lwmod@counter^0,c
  6557  004A28  EF1A  F025         	goto	l5689
  6558  004A2C                     l5687:
  6559  004A2C  90D8               	bcf	status,0,c
  6560  004A2E  3613               	rlcf	___lwmod@divisor^0,f,c
  6561  004A30  3614               	rlcf	(___lwmod@divisor+1)^0,f,c
  6562  004A32  2A15               	incf	___lwmod@counter^0,f,c
  6563  004A34                     l5689:
  6564  004A34  AE14               	btfss	(___lwmod@divisor+1)^0,7,c
  6565  004A36  EF1F  F025         	goto	u5251
  6566  004A3A  EF21  F025         	goto	u5250
  6567  004A3E                     u5251:
  6568  004A3E  EF16  F025         	goto	l5687
  6569  004A42                     u5250:
  6570  004A42                     l5691:
  6571  004A42  5013               	movf	___lwmod@divisor^0,w,c
  6572  004A44  5C11               	subwf	___lwmod@dividend^0,w,c
  6573  004A46  5014               	movf	(___lwmod@divisor+1)^0,w,c
  6574  004A48  5812               	subwfb	(___lwmod@dividend+1)^0,w,c
  6575  004A4A  A0D8               	btfss	status,0,c
  6576  004A4C  EF2A  F025         	goto	u5261
  6577  004A50  EF2C  F025         	goto	u5260
  6578  004A54                     u5261:
  6579  004A54  EF30  F025         	goto	l5695
  6580  004A58                     u5260:
  6581  004A58  5013               	movf	___lwmod@divisor^0,w,c
  6582  004A5A  5E11               	subwf	___lwmod@dividend^0,f,c
  6583  004A5C  5014               	movf	(___lwmod@divisor+1)^0,w,c
  6584  004A5E  5A12               	subwfb	(___lwmod@dividend+1)^0,f,c
  6585  004A60                     l5695:
  6586  004A60  90D8               	bcf	status,0,c
  6587  004A62  3214               	rrcf	(___lwmod@divisor+1)^0,f,c
  6588  004A64  3213               	rrcf	___lwmod@divisor^0,f,c
  6589  004A66  2E15               	decfsz	___lwmod@counter^0,f,c
  6590  004A68  EF21  F025         	goto	l5691
  6591  004A6C                     l1666:
  6592  004A6C  C011  F011         	movff	___lwmod@dividend,?___lwmod
  6593  004A70  C012  F012         	movff	___lwmod@dividend+1,?___lwmod+1
  6594  004A74  0012               	return		;funcret
  6595  004A76                     __end_of___lwmod:
  6596                           	callstack 0
  6597                           
  6598 ;; *************** function ___lwdiv *****************
  6599 ;; Defined at:
  6600 ;;		line 7 in file "/opt/microchip/xc8/v2.30/pic/sources/c99/common/lwdiv.c"
  6601 ;; Parameters:    Size  Location     Type
  6602 ;;  dividend        2   16[COMRAM] unsigned int 
  6603 ;;  divisor         2   18[COMRAM] unsigned int 
  6604 ;; Auto vars:     Size  Location     Type
  6605 ;;  quotient        2   21[COMRAM] unsigned int 
  6606 ;;  counter         1   20[COMRAM] unsigned char 
  6607 ;; Return value:  Size  Location     Type
  6608 ;;                  2   16[COMRAM] unsigned int 
  6609 ;; Registers used:
  6610 ;;		wreg, status,2, status,0
  6611 ;; Tracked objects:
  6612 ;;		On entry : 0/0
  6613 ;;		On exit  : 0/0
  6614 ;;		Unchanged: 0/0
  6615 ;; Data sizes:     COMRAM   BANK0   BANK1   BANK2   BANK3   BANK4   BANK5   BANK6   BANK7   BANK8   BANK9  BANK10  BANK1
      +1  BANK12  BANK13  BANK14  BANK15  BANK16  BANK17  BANK18  BANK19  BANK20  BANK21  BANK22  BANK23  BANK24  BANK25  BANK2
      +6  BANK27  BANK28  BANK29  BANK30  BANK31
  6616 ;;      Params:         4       0       0       0       0       0       0       0       0       0       0       0       
      +0       0       0       0       0       0       0       0       0       0       0       0       0       0       0       
      +0       0       0       0       0       0
  6617 ;;      Locals:         3       0       0       0       0       0       0       0       0       0       0       0       
      +0       0       0       0       0       0       0       0       0       0       0       0       0       0       0       
      +0       0       0       0       0       0
  6618 ;;      Temps:          0       0       0       0       0       0       0       0       0       0       0       0       
      +0       0       0       0       0       0       0       0       0       0       0       0       0       0       0       
      +0       0       0       0       0       0
  6619 ;;      Totals:         7       0       0       0       0       0       0       0       0       0       0       0       
      +0       0       0       0       0       0       0       0       0       0       0       0       0       0       0       
      +0       0       0       0       0       0
  6620 ;;Total ram usage:        7 bytes
  6621 ;; Hardware stack levels used:    1
  6622 ;; Hardware stack levels required when called:    3
  6623 ;; This function calls:
  6624 ;;		Nothing
  6625 ;; This function is called by:
  6626 ;;		_updateDispVal
  6627 ;; This function uses a non-reentrant model
  6628 ;;
  6629                           
  6630                           	psect	text31
  6631  004852                     __ptext31:
  6632                           	callstack 0
  6633  004852                     ___lwdiv:
  6634                           	callstack 24
  6635  004852  0E00               	movlw	0
  6636  004854  6E17               	movwf	(___lwdiv@quotient+1)^0,c
  6637  004856  0E00               	movlw	0
  6638  004858  6E16               	movwf	___lwdiv@quotient^0,c
  6639  00485A  5013               	movf	___lwdiv@divisor^0,w,c
  6640  00485C  1014               	iorwf	(___lwdiv@divisor+1)^0,w,c
  6641  00485E  B4D8               	btfsc	status,2,c
  6642  004860  EF34  F024         	goto	u5211
  6643  004864  EF36  F024         	goto	u5210
  6644  004868                     u5211:
  6645  004868  EF5E  F024         	goto	l1656
  6646  00486C                     u5210:
  6647  00486C  0E01               	movlw	1
  6648  00486E  6E15               	movwf	___lwdiv@counter^0,c
  6649  004870  EF3E  F024         	goto	l5669
  6650  004874                     l5667:
  6651  004874  90D8               	bcf	status,0,c
  6652  004876  3613               	rlcf	___lwdiv@divisor^0,f,c
  6653  004878  3614               	rlcf	(___lwdiv@divisor+1)^0,f,c
  6654  00487A  2A15               	incf	___lwdiv@counter^0,f,c
  6655  00487C                     l5669:
  6656  00487C  AE14               	btfss	(___lwdiv@divisor+1)^0,7,c
  6657  00487E  EF43  F024         	goto	u5221
  6658  004882  EF45  F024         	goto	u5220
  6659  004886                     u5221:
  6660  004886  EF3A  F024         	goto	l5667
  6661  00488A                     u5220:
  6662  00488A                     l5671:
  6663  00488A  90D8               	bcf	status,0,c
  6664  00488C  3616               	rlcf	___lwdiv@quotient^0,f,c
  6665  00488E  3617               	rlcf	(___lwdiv@quotient+1)^0,f,c
  6666  004890  5013               	movf	___lwdiv@divisor^0,w,c
  6667  004892  5C11               	subwf	___lwdiv@dividend^0,w,c
  6668  004894  5014               	movf	(___lwdiv@divisor+1)^0,w,c
  6669  004896  5812               	subwfb	(___lwdiv@dividend+1)^0,w,c
  6670  004898  A0D8               	btfss	status,0,c
  6671  00489A  EF51  F024         	goto	u5231
  6672  00489E  EF53  F024         	goto	u5230
  6673  0048A2                     u5231:
  6674  0048A2  EF58  F024         	goto	l5679
  6675  0048A6                     u5230:
  6676  0048A6  5013               	movf	___lwdiv@divisor^0,w,c
  6677  0048A8  5E11               	subwf	___lwdiv@dividend^0,f,c
  6678  0048AA  5014               	movf	(___lwdiv@divisor+1)^0,w,c
  6679  0048AC  5A12               	subwfb	(___lwdiv@dividend+1)^0,f,c
  6680  0048AE  8016               	bsf	___lwdiv@quotient^0,0,c
  6681  0048B0                     l5679:
  6682  0048B0  90D8               	bcf	status,0,c
  6683  0048B2  3214               	rrcf	(___lwdiv@divisor+1)^0,f,c
  6684  0048B4  3213               	rrcf	___lwdiv@divisor^0,f,c
  6685  0048B6  2E15               	decfsz	___lwdiv@counter^0,f,c
  6686  0048B8  EF45  F024         	goto	l5671
  6687  0048BC                     l1656:
  6688  0048BC  C016  F011         	movff	___lwdiv@quotient,?___lwdiv
  6689  0048C0  C017  F012         	movff	___lwdiv@quotient+1,?___lwdiv+1
  6690  0048C4  0012               	return		;funcret
  6691  0048C6                     __end_of___lwdiv:
  6692                           	callstack 0
  6693                           
  6694 ;; *************** function _make_all_digital *****************
  6695 ;; Defined at:
  6696 ;;		line 85 in file "/home/dev-user/Projects/Personal/PIC/PIC18Test1.X/System.c"
  6697 ;; Parameters:    Size  Location     Type
  6698 ;;		None
  6699 ;; Auto vars:     Size  Location     Type
  6700 ;;		None
  6701 ;; Return value:  Size  Location     Type
  6702 ;;                  1    wreg      enum E16361
  6703 ;; Registers used:
  6704 ;;		wreg, status,2
  6705 ;; Tracked objects:
  6706 ;;		On entry : 0/0
  6707 ;;		On exit  : 0/0
  6708 ;;		Unchanged: 0/0
  6709 ;; Data sizes:     COMRAM   BANK0   BANK1   BANK2   BANK3   BANK4   BANK5   BANK6   BANK7   BANK8   BANK9  BANK10  BANK1
      +1  BANK12  BANK13  BANK14  BANK15  BANK16  BANK17  BANK18  BANK19  BANK20  BANK21  BANK22  BANK23  BANK24  BANK25  BANK2
      +6  BANK27  BANK28  BANK29  BANK30  BANK31
  6710 ;;      Params:         0       0       0       0       0       0       0       0       0       0       0       0       
      +0       0       0       0       0       0       0       0       0       0       0       0       0       0       0       
      +0       0       0       0       0       0
  6711 ;;      Locals:         0       0       0       0       0       0       0       0       0       0       0       0       
      +0       0       0       0       0       0       0       0       0       0       0       0       0       0       0       
      +0       0       0       0       0       0
  6712 ;;      Temps:          0       0       0       0       0       0       0       0       0       0       0       0       
      +0       0       0       0       0       0       0       0       0       0       0       0       0       0       0       
      +0       0       0       0       0       0
  6713 ;;      Totals:         0       0       0       0       0       0       0       0       0       0       0       0       
      +0       0       0       0       0       0       0       0       0       0       0       0       0       0       0       
      +0       0       0       0       0       0
  6714 ;;Total ram usage:        0 bytes
  6715 ;; Hardware stack levels used:    1
  6716 ;; Hardware stack levels required when called:    3
  6717 ;; This function calls:
  6718 ;;		Nothing
  6719 ;; This function is called by:
  6720 ;;		_SysInit
  6721 ;; This function uses a non-reentrant model
  6722 ;;
  6723                           
  6724                           	psect	text32
  6725  004F2A                     __ptext32:
  6726                           	callstack 0
  6727  004F2A                     _make_all_digital:
  6728                           	callstack 26
  6729  004F2A                     
  6730                           ;/home/dev-user/Projects/Personal/PIC/PIC18Test1.X/System.c: 87:     ANSELA = 0;
  6731  004F2A  0E00               	movlw	0
  6732  004F2C  013A               	movlb	58	; () banked
  6733  004F2E  6F40               	movwf	64,b	;volatile
  6734                           
  6735                           ;/home/dev-user/Projects/Personal/PIC/PIC18Test1.X/System.c: 88:     ANSELB = 0;
  6736  004F30  0E00               	movlw	0
  6737  004F32  6F50               	movwf	80,b	;volatile
  6738                           
  6739                           ;/home/dev-user/Projects/Personal/PIC/PIC18Test1.X/System.c: 89:     ANSELC = 0;
  6740  004F34  0E00               	movlw	0
  6741  004F36  6F60               	movwf	96,b	;volatile
  6742                           
  6743                           ;/home/dev-user/Projects/Personal/PIC/PIC18Test1.X/System.c: 90:     ANSELD = 0;
  6744  004F38  0E00               	movlw	0
  6745  004F3A  6F70               	movwf	112,b	;volatile
  6746                           
  6747                           ;/home/dev-user/Projects/Personal/PIC/PIC18Test1.X/System.c: 91:     ANSELE = 0;
  6748  004F3C  0E00               	movlw	0
  6749  004F3E  6F80               	movwf	128,b	;volatile
  6750  004F40                     
  6751                           ; BSR set to: 58
  6752  004F40  0012               	return		;funcret
  6753  004F42                     __end_of_make_all_digital:
  6754                           	callstack 0
  6755                           
  6756 ;; *************** function _UART1Setup *****************
  6757 ;; Defined at:
  6758 ;;		line 4 in file "/home/dev-user/Projects/Personal/PIC/LibPeripherals.X/uart.c"
  6759 ;; Parameters:    Size  Location     Type
  6760 ;;  set_baud        4   29[COMRAM] unsigned long 
  6761 ;;  use_tx          1   33[COMRAM] _Bool 
  6762 ;;  use_rx          1   34[COMRAM] _Bool 
  6763 ;; Auto vars:     Size  Location     Type
  6764 ;;  i               1   41[COMRAM] unsigned char 
  6765 ;;  i               2   39[COMRAM] unsigned short 
  6766 ;;  regVal          4   42[COMRAM] unsigned long 
  6767 ;; Return value:  Size  Location     Type
  6768 ;;                  1    wreg      enum E16361
  6769 ;; Registers used:
  6770 ;;		wreg, fsr2l, fsr2h, status,2, status,0, cstack
  6771 ;; Tracked objects:
  6772 ;;		On entry : 0/0
  6773 ;;		On exit  : 0/0
  6774 ;;		Unchanged: 0/0
  6775 ;; Data sizes:     COMRAM   BANK0   BANK1   BANK2   BANK3   BANK4   BANK5   BANK6   BANK7   BANK8   BANK9  BANK10  BANK1
      +1  BANK12  BANK13  BANK14  BANK15  BANK16  BANK17  BANK18  BANK19  BANK20  BANK21  BANK22  BANK23  BANK24  BANK25  BANK2
      +6  BANK27  BANK28  BANK29  BANK30  BANK31
  6776 ;;      Params:         6       0       0       0       0       0       0       0       0       0       0       0       
      +0       0       0       0       0       0       0       0       0       0       0       0       0       0       0       
      +0       0       0       0       0       0
  6777 ;;      Locals:         7       0       0       0       0       0       0       0       0       0       0       0       
      +0       0       0       0       0       0       0       0       0       0       0       0       0       0       0       
      +0       0       0       0       0       0
  6778 ;;      Temps:          4       0       0       0       0       0       0       0       0       0       0       0       
      +0       0       0       0       0       0       0       0       0       0       0       0       0       0       0       
      +0       0       0       0       0       0
  6779 ;;      Totals:        17       0       0       0       0       0       0       0       0       0       0       0       
      +0       0       0       0       0       0       0       0       0       0       0       0       0       0       0       
      +0       0       0       0       0       0
  6780 ;;Total ram usage:       17 bytes
  6781 ;; Hardware stack levels used:    1
  6782 ;; Hardware stack levels required when called:    4
  6783 ;; This function calls:
  6784 ;;		___lldiv
  6785 ;; This function is called by:
  6786 ;;		_SysInit
  6787 ;; This function uses a non-reentrant model
  6788 ;;
  6789                           
  6790                           	psect	text33
  6791  00317E                     __ptext33:
  6792                           	callstack 0
  6793  00317E                     _UART1Setup:
  6794                           	callstack 25
  6795  00317E                     
  6796                           ;/home/dev-user/Projects/Personal/PIC/LibPeripherals.X/uart.c: 4: STATUS_T UART1Setup(ui
      +                          nt32_t set_baud, _Bool use_tx, _Bool use_rx);/home/dev-user/Projects/Personal/PIC/LibPer
      +                          ipherals.X/uart.c: 5: {;/home/dev-user/Projects/Personal/PIC/LibPeripherals.X/uart.c: 7:
      +                               U1RXPPS = 0x17;
  6797  00317E  0E17               	movlw	23
  6798  003180  013A               	movlb	58	; () banked
  6799  003182  6FE5               	movwf	229,b	;volatile
  6800  003184                     
  6801                           ; BSR set to: 58
  6802                           ;/home/dev-user/Projects/Personal/PIC/LibPeripherals.X/uart.c: 8:     TRISCbits.TRISC7 =
      +                           1;
  6803  003184  8EC4               	bsf	196,7,c	;volatile
  6804                           
  6805                           ;/home/dev-user/Projects/Personal/PIC/LibPeripherals.X/uart.c: 10:     RC6PPS = 0x13;
  6806  003186  0E13               	movlw	19
  6807  003188  6F16               	movwf	22,b	;volatile
  6808  00318A                     
  6809                           ; BSR set to: 58
  6810                           ;/home/dev-user/Projects/Personal/PIC/LibPeripherals.X/uart.c: 11:     TRISCbits.TRISC6 
      +                          = 1;
  6811  00318A  8CC4               	bsf	196,6,c	;volatile
  6812  00318C                     
  6813                           ; BSR set to: 58
  6814                           ;/home/dev-user/Projects/Personal/PIC/LibPeripherals.X/uart.c: 14:     U1CON1bits.ON = 0
      +                          ;
  6815  00318C  013D               	movlb	61	; () banked
  6816  00318E  9FF3               	bcf	243,7,b	;volatile
  6817  003190                     
  6818                           ; BSR set to: 61
  6819                           ;/home/dev-user/Projects/Personal/PIC/LibPeripherals.X/uart.c: 15:     U1CON0bits.RXEN =
      +                           0;
  6820  003190  99F2               	bcf	242,4,b	;volatile
  6821  003192                     
  6822                           ; BSR set to: 61
  6823                           ;/home/dev-user/Projects/Personal/PIC/LibPeripherals.X/uart.c: 16:     U1CON0bits.TXEN =
      +                           0;
  6824  003192  9BF2               	bcf	242,5,b	;volatile
  6825                           
  6826                           ;/home/dev-user/Projects/Personal/PIC/LibPeripherals.X/uart.c: 18:     U1CON0bits.MODE =
      +                           0b0000;
  6827  003194  0EF0               	movlw	-16
  6828  003196  17F2               	andwf	242,f,b	;volatile
  6829                           
  6830                           ;/home/dev-user/Projects/Personal/PIC/LibPeripherals.X/uart.c: 19:     U1CON2 = 0x00;
  6831  003198  0E00               	movlw	0
  6832  00319A  6FF4               	movwf	244,b	;volatile
  6833                           
  6834                           ;/home/dev-user/Projects/Personal/PIC/LibPeripherals.X/uart.c: 34:     uint32_t regVal =
      +                           64000000/4;
  6835  00319C  0E00               	movlw	0
  6836  00319E  6E2B               	movwf	UART1Setup@regVal^0,c
  6837  0031A0  0E24               	movlw	36
  6838  0031A2  6E2C               	movwf	(UART1Setup@regVal+1)^0,c
  6839  0031A4  0EF4               	movlw	244
  6840  0031A6  6E2D               	movwf	(UART1Setup@regVal+2)^0,c
  6841  0031A8  0E00               	movlw	0
  6842  0031AA  6E2E               	movwf	(UART1Setup@regVal+3)^0,c
  6843  0031AC                     
  6844                           ; BSR set to: 61
  6845                           ;/home/dev-user/Projects/Personal/PIC/LibPeripherals.X/uart.c: 35:     regVal = regVal /
      +                           set_baud;
  6846  0031AC  C02B  F011         	movff	UART1Setup@regVal,___lldiv@dividend
  6847  0031B0  C02C  F012         	movff	UART1Setup@regVal+1,___lldiv@dividend+1
  6848  0031B4  C02D  F013         	movff	UART1Setup@regVal+2,___lldiv@dividend+2
  6849  0031B8  C02E  F014         	movff	UART1Setup@regVal+3,___lldiv@dividend+3
  6850  0031BC  C01E  F015         	movff	UART1Setup@set_baud,___lldiv@divisor
  6851  0031C0  C01F  F016         	movff	UART1Setup@set_baud+1,___lldiv@divisor+1
  6852  0031C4  C020  F017         	movff	UART1Setup@set_baud+2,___lldiv@divisor+2
  6853  0031C8  C021  F018         	movff	UART1Setup@set_baud+3,___lldiv@divisor+3
  6854  0031CC  ECC0  F022         	call	___lldiv	;wreg free
  6855  0031D0  C011  F02B         	movff	?___lldiv,UART1Setup@regVal
  6856  0031D4  C012  F02C         	movff	?___lldiv+1,UART1Setup@regVal+1
  6857  0031D8  C013  F02D         	movff	?___lldiv+2,UART1Setup@regVal+2
  6858  0031DC  C014  F02E         	movff	?___lldiv+3,UART1Setup@regVal+3
  6859  0031E0                     
  6860                           ;/home/dev-user/Projects/Personal/PIC/LibPeripherals.X/uart.c: 36:     regVal = regVal -
      +                           1;
  6861  0031E0  0EFF               	movlw	255
  6862  0031E2  242B               	addwf	UART1Setup@regVal^0,w,c
  6863  0031E4  6E2B               	movwf	UART1Setup@regVal^0,c
  6864  0031E6  0EFF               	movlw	255
  6865  0031E8  202C               	addwfc	(UART1Setup@regVal+1)^0,w,c
  6866  0031EA  6E2C               	movwf	(UART1Setup@regVal+1)^0,c
  6867  0031EC  0EFF               	movlw	255
  6868  0031EE  202D               	addwfc	(UART1Setup@regVal+2)^0,w,c
  6869  0031F0  6E2D               	movwf	(UART1Setup@regVal+2)^0,c
  6870  0031F2  0EFF               	movlw	255
  6871  0031F4  202E               	addwfc	(UART1Setup@regVal+3)^0,w,c
  6872  0031F6  6E2E               	movwf	(UART1Setup@regVal+3)^0,c
  6873  0031F8                     
  6874                           ;/home/dev-user/Projects/Personal/PIC/LibPeripherals.X/uart.c: 37:     if(regVal <= 0xFF
      +                          FF){
  6875  0031F8  502E               	movf	(UART1Setup@regVal+3)^0,w,c
  6876  0031FA  E106               	bnz	u6101
  6877  0031FC  042D               	decf	(UART1Setup@regVal+2)^0,w,c
  6878  0031FE  B0D8               	btfsc	status,0,c
  6879  003200  EF04  F019         	goto	u6101
  6880  003204  EF06  F019         	goto	u6100
  6881  003208                     u6101:
  6882  003208  EF0A  F019         	goto	l6265
  6883  00320C                     u6100:
  6884  00320C                     
  6885                           ;/home/dev-user/Projects/Personal/PIC/LibPeripherals.X/uart.c: 38:         U1CON0bits.BR
      +                          GS = 1;
  6886  00320C  013D               	movlb	61	; () banked
  6887  00320E  8FF2               	bsf	242,7,b	;volatile
  6888                           
  6889                           ;/home/dev-user/Projects/Personal/PIC/LibPeripherals.X/uart.c: 39:     } else {
  6890  003210  EF46  F019         	goto	l540
  6891  003214                     l6265:
  6892                           
  6893                           ;/home/dev-user/Projects/Personal/PIC/LibPeripherals.X/uart.c: 41:         regVal = (reg
      +                          Val+1)/4;
  6894  003214  0E01               	movlw	1
  6895  003216  242B               	addwf	UART1Setup@regVal^0,w,c
  6896  003218  6E24               	movwf	??_UART1Setup^0,c
  6897  00321A  0E00               	movlw	0
  6898  00321C  202C               	addwfc	(UART1Setup@regVal+1)^0,w,c
  6899  00321E  6E25               	movwf	(??_UART1Setup+1)^0,c
  6900  003220  0E00               	movlw	0
  6901  003222  202D               	addwfc	(UART1Setup@regVal+2)^0,w,c
  6902  003224  6E26               	movwf	(??_UART1Setup+2)^0,c
  6903  003226  0E00               	movlw	0
  6904  003228  202E               	addwfc	(UART1Setup@regVal+3)^0,w,c
  6905  00322A  6E27               	movwf	(??_UART1Setup+3)^0,c
  6906  00322C  0E03               	movlw	3
  6907  00322E  EF1E  F019         	goto	u6110
  6908  003232                     u6115:
  6909  003232  90D8               	bcf	status,0,c
  6910  003234  3227               	rrcf	(??_UART1Setup+3)^0,f,c
  6911  003236  3226               	rrcf	(??_UART1Setup+2)^0,f,c
  6912  003238  3225               	rrcf	(??_UART1Setup+1)^0,f,c
  6913  00323A  3224               	rrcf	??_UART1Setup^0,f,c
  6914  00323C                     u6110:
  6915  00323C  2EE8               	decfsz	wreg,f,c
  6916  00323E  EF19  F019         	goto	u6115
  6917  003242  C024  F02B         	movff	??_UART1Setup,UART1Setup@regVal
  6918  003246  C025  F02C         	movff	??_UART1Setup+1,UART1Setup@regVal+1
  6919  00324A  C026  F02D         	movff	??_UART1Setup+2,UART1Setup@regVal+2
  6920  00324E  C027  F02E         	movff	??_UART1Setup+3,UART1Setup@regVal+3
  6921                           
  6922                           ;/home/dev-user/Projects/Personal/PIC/LibPeripherals.X/uart.c: 42:         regVal = regV
      +                          al - 1;
  6923  003252  0EFF               	movlw	255
  6924  003254  242B               	addwf	UART1Setup@regVal^0,w,c
  6925  003256  6E2B               	movwf	UART1Setup@regVal^0,c
  6926  003258  0EFF               	movlw	255
  6927  00325A  202C               	addwfc	(UART1Setup@regVal+1)^0,w,c
  6928  00325C  6E2C               	movwf	(UART1Setup@regVal+1)^0,c
  6929  00325E  0EFF               	movlw	255
  6930  003260  202D               	addwfc	(UART1Setup@regVal+2)^0,w,c
  6931  003262  6E2D               	movwf	(UART1Setup@regVal+2)^0,c
  6932  003264  0EFF               	movlw	255
  6933  003266  202E               	addwfc	(UART1Setup@regVal+3)^0,w,c
  6934  003268  6E2E               	movwf	(UART1Setup@regVal+3)^0,c
  6935                           
  6936                           ;/home/dev-user/Projects/Personal/PIC/LibPeripherals.X/uart.c: 43:         if(regVal <= 
      +                          0xFFFF){
  6937  00326A  502E               	movf	(UART1Setup@regVal+3)^0,w,c
  6938  00326C  E106               	bnz	u6121
  6939  00326E  042D               	decf	(UART1Setup@regVal+2)^0,w,c
  6940  003270  B0D8               	btfsc	status,0,c
  6941  003272  EF3D  F019         	goto	u6121
  6942  003276  EF3F  F019         	goto	u6120
  6943  00327A                     u6121:
  6944  00327A  EF43  F019         	goto	l6269
  6945  00327E                     u6120:
  6946  00327E                     
  6947                           ;/home/dev-user/Projects/Personal/PIC/LibPeripherals.X/uart.c: 44:             U1CON0bit
      +                          s.BRGS = 0;
  6948  00327E  013D               	movlb	61	; () banked
  6949  003280  9FF2               	bcf	242,7,b	;volatile
  6950                           
  6951                           ;/home/dev-user/Projects/Personal/PIC/LibPeripherals.X/uart.c: 45:         } else {
  6952  003282  EF46  F019         	goto	l540
  6953  003286                     l6269:
  6954                           
  6955                           ;/home/dev-user/Projects/Personal/PIC/LibPeripherals.X/uart.c: 47:             return ST
      +                          AT_FAIL;
  6956  003286  0EFE               	movlw	254
  6957  003288  EFBE  F019         	goto	l543
  6958  00328C                     l540:
  6959                           
  6960                           ; BSR set to: 61
  6961                           ;/home/dev-user/Projects/Personal/PIC/LibPeripherals.X/uart.c: 50:     U1BRGH = (uint8_t
      +                          )(0xFF & (regVal>>8));
  6962  00328C  0060  F0B3  FDF6   	movff	UART1Setup@regVal+1,15862	;volatile
  6963                           
  6964                           ;/home/dev-user/Projects/Personal/PIC/LibPeripherals.X/uart.c: 51:     U1BRGL = (uint8_t
      +                          )(0xFF & regVal);
  6965  003292  0060  F0AF  FDF5   	movff	UART1Setup@regVal,15861	;volatile
  6966                           
  6967                           ;/home/dev-user/Projects/Personal/PIC/LibPeripherals.X/uart.c: 53:     U1CON1bits.WUE = 
      +                          0;
  6968  003298  99F3               	bcf	243,4,b	;volatile
  6969                           
  6970                           ;/home/dev-user/Projects/Personal/PIC/LibPeripherals.X/uart.c: 54:     U1CON0bits.ABDEN 
      +                          = 0;
  6971  00329A  9DF2               	bcf	242,6,b	;volatile
  6972  00329C                     
  6973                           ; BSR set to: 61
  6974                           ;/home/dev-user/Projects/Personal/PIC/LibPeripherals.X/uart.c: 56:     if(use_tx){
  6975  00329C  5022               	movf	UART1Setup@use_tx^0,w,c
  6976  00329E  B4D8               	btfsc	status,2,c
  6977  0032A0  EF54  F019         	goto	u6131
  6978  0032A4  EF56  F019         	goto	u6130
  6979  0032A8                     u6131:
  6980  0032A8  EF76  F019         	goto	l6289
  6981  0032AC                     u6130:
  6982  0032AC                     
  6983                           ; BSR set to: 61
  6984                           ;/home/dev-user/Projects/Personal/PIC/LibPeripherals.X/uart.c: 58:         uart1_tx_buff
      +                          _tail = 0;
  6985  0032AC  0E00               	movlw	0
  6986  0032AE  6E4F               	movwf	_uart1_tx_buff_tail^0,c
  6987                           
  6988                           ;/home/dev-user/Projects/Personal/PIC/LibPeripherals.X/uart.c: 59:         uart1_tx_buff
      +                          _head = 0;
  6989  0032B0  0E00               	movlw	0
  6990  0032B2  6E4E               	movwf	_uart1_tx_buff_head^0,c
  6991                           
  6992                           ;/home/dev-user/Projects/Personal/PIC/LibPeripherals.X/uart.c: 60:         uart1_tx_buff
      +                          _full = 0;
  6993  0032B4  0E00               	movlw	0
  6994  0032B6  6E4D               	movwf	_uart1_tx_buff_full^0,c
  6995                           
  6996                           ;/home/dev-user/Projects/Personal/PIC/LibPeripherals.X/uart.c: 61:         for(uint16_t 
      +                          i = 0; i < 256; i++){
  6997  0032B8  0E00               	movlw	0
  6998  0032BA  6E29               	movwf	(UART1Setup@i+1)^0,c
  6999  0032BC  0E00               	movlw	0
  7000  0032BE  6E28               	movwf	UART1Setup@i^0,c
  7001  0032C0                     l6281:
  7002                           
  7003                           ;/home/dev-user/Projects/Personal/PIC/LibPeripherals.X/uart.c: 62:             uart1_tx_
      +                          buff[i] = 0;
  7004  0032C0  0E00               	movlw	low _uart1_tx_buff
  7005  0032C2  2428               	addwf	UART1Setup@i^0,w,c
  7006  0032C4  6ED9               	movwf	fsr2l,c
  7007  0032C6  0E03               	movlw	high _uart1_tx_buff
  7008  0032C8  2029               	addwfc	(UART1Setup@i+1)^0,w,c
  7009  0032CA  6EDA               	movwf	fsr2h,c
  7010  0032CC  0E00               	movlw	0
  7011  0032CE  6EDF               	movwf	indf2,c
  7012  0032D0                     
  7013                           ;/home/dev-user/Projects/Personal/PIC/LibPeripherals.X/uart.c: 63:         }
  7014  0032D0  4A28               	infsnz	UART1Setup@i^0,f,c
  7015  0032D2  2A29               	incf	(UART1Setup@i+1)^0,f,c
  7016  0032D4  0429               	decf	(UART1Setup@i+1)^0,w,c
  7017  0032D6  A0D8               	btfss	status,0,c
  7018  0032D8  EF70  F019         	goto	u6141
  7019  0032DC  EF72  F019         	goto	u6140
  7020  0032E0                     u6141:
  7021  0032E0  EF60  F019         	goto	l6281
  7022  0032E4                     u6140:
  7023  0032E4                     
  7024                           ;/home/dev-user/Projects/Personal/PIC/LibPeripherals.X/uart.c: 64:         uart1_tx_sys_
      +                          active = 1;
  7025  0032E4  0E01               	movlw	1
  7026  0032E6  6E4C               	movwf	_uart1_tx_sys_active^0,c
  7027                           
  7028                           ;/home/dev-user/Projects/Personal/PIC/LibPeripherals.X/uart.c: 65:     } else {
  7029  0032E8  EF78  F019         	goto	l547
  7030  0032EC                     l6289:
  7031                           
  7032                           ; BSR set to: 61
  7033                           ;/home/dev-user/Projects/Personal/PIC/LibPeripherals.X/uart.c: 66:         uart1_tx_sys_
      +                          active = 0;
  7034  0032EC  0E00               	movlw	0
  7035  0032EE  6E4C               	movwf	_uart1_tx_sys_active^0,c
  7036  0032F0                     l547:
  7037                           
  7038                           ;/home/dev-user/Projects/Personal/PIC/LibPeripherals.X/uart.c: 69:     if(use_rx){
  7039  0032F0  5023               	movf	UART1Setup@use_rx^0,w,c
  7040  0032F2  B4D8               	btfsc	status,2,c
  7041  0032F4  EF7E  F019         	goto	u6151
  7042  0032F8  EF80  F019         	goto	u6150
  7043  0032FC                     u6151:
  7044  0032FC  EFA9  F019         	goto	l6311
  7045  003300                     u6150:
  7046  003300                     
  7047                           ;/home/dev-user/Projects/Personal/PIC/LibPeripherals.X/uart.c: 71:         U1CON0bits.RX
      +                          EN = 1;
  7048  003300  013D               	movlb	61	; () banked
  7049  003302  89F2               	bsf	242,4,b	;volatile
  7050  003304                     
  7051                           ; BSR set to: 61
  7052                           ;/home/dev-user/Projects/Personal/PIC/LibPeripherals.X/uart.c: 72:         for(uint8_t i
      +                           = 0; i < 64; i++){
  7053  003304  0E00               	movlw	0
  7054  003306  6E2A               	movwf	UART1Setup@i_1058^0,c
  7055  003308                     l6299:
  7056                           
  7057                           ;/home/dev-user/Projects/Personal/PIC/LibPeripherals.X/uart.c: 73:             uart1_rx_
      +                          buff_isr[i] = 0;
  7058  003308  0E40               	movlw	low _uart1_rx_buff_isr
  7059  00330A  242A               	addwf	UART1Setup@i_1058^0,w,c
  7060  00330C  6ED9               	movwf	fsr2l,c
  7061  00330E  6ADA               	clrf	fsr2h,c
  7062  003310  0E01               	movlw	high _uart1_rx_buff_isr
  7063  003312  22DA               	addwfc	fsr2h,f,c
  7064  003314  0E00               	movlw	0
  7065  003316  6EDF               	movwf	indf2,c
  7066                           
  7067                           ;/home/dev-user/Projects/Personal/PIC/LibPeripherals.X/uart.c: 74:             uart1_rx_
      +                          buff_use[i] = 0;
  7068  003318  0E40               	movlw	low _uart1_rx_buff_use
  7069  00331A  242A               	addwf	UART1Setup@i_1058^0,w,c
  7070  00331C  6ED9               	movwf	fsr2l,c
  7071  00331E  6ADA               	clrf	fsr2h,c
  7072  003320  0E02               	movlw	high _uart1_rx_buff_use
  7073  003322  22DA               	addwfc	fsr2h,f,c
  7074  003324  0E00               	movlw	0
  7075  003326  6EDF               	movwf	indf2,c
  7076  003328                     
  7077                           ;/home/dev-user/Projects/Personal/PIC/LibPeripherals.X/uart.c: 75:         }
  7078  003328  2A2A               	incf	UART1Setup@i_1058^0,f,c
  7079  00332A  0E3F               	movlw	63
  7080  00332C  642A               	cpfsgt	UART1Setup@i_1058^0,c
  7081  00332E  EF9B  F019         	goto	u6161
  7082  003332  EF9D  F019         	goto	u6160
  7083  003336                     u6161:
  7084  003336  EF84  F019         	goto	l6299
  7085  00333A                     u6160:
  7086  00333A                     
  7087                           ;/home/dev-user/Projects/Personal/PIC/LibPeripherals.X/uart.c: 76:         uart1_rx_buff
      +                          _idx = 0;
  7088  00333A  0E00               	movlw	0
  7089  00333C  6E4B               	movwf	_uart1_rx_buff_idx^0,c
  7090                           
  7091                           ;/home/dev-user/Projects/Personal/PIC/LibPeripherals.X/uart.c: 77:         uart1_rx_msg_
      +                          present = 0;
  7092  00333E  0E00               	movlw	0
  7093  003340  0100               	movlb	0	; () banked
  7094  003342  6FC6               	movwf	_uart1_rx_msg_present& (0+255),b
  7095                           
  7096                           ;/home/dev-user/Projects/Personal/PIC/LibPeripherals.X/uart.c: 78:         uart1_rx_sys_
      +                          active = 1;
  7097  003344  0E01               	movlw	1
  7098  003346  6E49               	movwf	_uart1_rx_sys_active^0,c
  7099  003348                     
  7100                           ; BSR set to: 0
  7101                           ;/home/dev-user/Projects/Personal/PIC/LibPeripherals.X/uart.c: 79:         U1RXIF = 0;
  7102  003348  0139               	movlb	57	; () banked
  7103  00334A  97A3               	bcf	163,3,b	;volatile
  7104  00334C                     
  7105                           ; BSR set to: 57
  7106                           ;/home/dev-user/Projects/Personal/PIC/LibPeripherals.X/uart.c: 80:         U1RXIE = 1;
  7107  00334C  8793               	bsf	147,3,b	;volatile
  7108                           
  7109                           ;/home/dev-user/Projects/Personal/PIC/LibPeripherals.X/uart.c: 81:     } else {
  7110  00334E  EFAB  F019         	goto	l551
  7111  003352                     l6311:
  7112                           
  7113                           ;/home/dev-user/Projects/Personal/PIC/LibPeripherals.X/uart.c: 82:         uart1_rx_sys_
      +                          active = 0;
  7114  003352  0E00               	movlw	0
  7115  003354  6E49               	movwf	_uart1_rx_sys_active^0,c
  7116  003356                     l551:
  7117                           
  7118                           ;/home/dev-user/Projects/Personal/PIC/LibPeripherals.X/uart.c: 85:     if(use_tx || use_
      +                          rx)
  7119  003356  5022               	movf	UART1Setup@use_tx^0,w,c
  7120  003358  A4D8               	btfss	status,2,c
  7121  00335A  EFB1  F019         	goto	u6171
  7122  00335E  EFB3  F019         	goto	u6170
  7123  003362                     u6171:
  7124  003362  EFBB  F019         	goto	l554
  7125  003366                     u6170:
  7126  003366  5023               	movf	UART1Setup@use_rx^0,w,c
  7127  003368  B4D8               	btfsc	status,2,c
  7128  00336A  EFB9  F019         	goto	u6181
  7129  00336E  EFBB  F019         	goto	u6180
  7130  003372                     u6181:
  7131  003372  EFBD  F019         	goto	l6315
  7132  003376                     u6180:
  7133  003376                     l554:
  7134                           
  7135                           ;/home/dev-user/Projects/Personal/PIC/LibPeripherals.X/uart.c: 86:         U1CON1bits.ON
      +                           = 1;
  7136  003376  013D               	movlb	61	; () banked
  7137  003378  8FF3               	bsf	243,7,b	;volatile
  7138  00337A                     l6315:
  7139                           
  7140                           ;/home/dev-user/Projects/Personal/PIC/LibPeripherals.X/uart.c: 88:     return STAT_SUCCE
      +                          SS;
  7141  00337A  0E00               	movlw	0
  7142  00337C                     l543:
  7143  00337C  0012               	return		;funcret
  7144  00337E                     __end_of_UART1Setup:
  7145                           	callstack 0
  7146                           
  7147 ;; *************** function _Tmr4Setup *****************
  7148 ;; Defined at:
  7149 ;;		line 231 in file "/home/dev-user/Projects/Personal/PIC/LibPeripherals.X/timers.c"
  7150 ;; Parameters:    Size  Location     Type
  7151 ;;  tmr_freq        4   29[COMRAM] unsigned long 
  7152 ;;  use_int         1   33[COMRAM] _Bool 
  7153 ;; Auto vars:     Size  Location     Type
  7154 ;;  regVal          4   39[COMRAM] unsigned long 
  7155 ;;  prescalarVal    1   38[COMRAM] unsigned char 
  7156 ;; Return value:  Size  Location     Type
  7157 ;;                  1    wreg      enum E16361
  7158 ;; Registers used:
  7159 ;;		wreg, status,2, status,0, cstack
  7160 ;; Tracked objects:
  7161 ;;		On entry : 0/0
  7162 ;;		On exit  : 0/0
  7163 ;;		Unchanged: 0/0
  7164 ;; Data sizes:     COMRAM   BANK0   BANK1   BANK2   BANK3   BANK4   BANK5   BANK6   BANK7   BANK8   BANK9  BANK10  BANK1
      +1  BANK12  BANK13  BANK14  BANK15  BANK16  BANK17  BANK18  BANK19  BANK20  BANK21  BANK22  BANK23  BANK24  BANK25  BANK2
      +6  BANK27  BANK28  BANK29  BANK30  BANK31
  7165 ;;      Params:         5       0       0       0       0       0       0       0       0       0       0       0       
      +0       0       0       0       0       0       0       0       0       0       0       0       0       0       0       
      +0       0       0       0       0       0
  7166 ;;      Locals:         5       0       0       0       0       0       0       0       0       0       0       0       
      +0       0       0       0       0       0       0       0       0       0       0       0       0       0       0       
      +0       0       0       0       0       0
  7167 ;;      Temps:          4       0       0       0       0       0       0       0       0       0       0       0       
      +0       0       0       0       0       0       0       0       0       0       0       0       0       0       0       
      +0       0       0       0       0       0
  7168 ;;      Totals:        14       0       0       0       0       0       0       0       0       0       0       0       
      +0       0       0       0       0       0       0       0       0       0       0       0       0       0       0       
      +0       0       0       0       0       0
  7169 ;;Total ram usage:       14 bytes
  7170 ;; Hardware stack levels used:    1
  7171 ;; Hardware stack levels required when called:    4
  7172 ;; This function calls:
  7173 ;;		_Tmr4Disable
  7174 ;;		___lldiv
  7175 ;; This function is called by:
  7176 ;;		_SysInit
  7177 ;; This function uses a non-reentrant model
  7178 ;;
  7179                           
  7180                           	psect	text34
  7181  003DF6                     __ptext34:
  7182                           	callstack 0
  7183  003DF6                     _Tmr4Setup:
  7184                           	callstack 25
  7185  003DF6                     
  7186                           ;/home/dev-user/Projects/Personal/PIC/LibPeripherals.X/timers.c: 231: STATUS_T Tmr4Setup
      +                          (uint32_t tmr_freq, _Bool use_int);/home/dev-user/Projects/Personal/PIC/LibPeripherals.X
      +                          /timers.c: 232: {;/home/dev-user/Projects/Personal/PIC/LibPeripherals.X/timers.c: 233:  
      +                             Tmr4Disable();
  7187  003DF6  ECBB  F027         	call	_Tmr4Disable	;wreg free
  7188  003DFA                     
  7189                           ;/home/dev-user/Projects/Personal/PIC/LibPeripherals.X/timers.c: 234:     T4CLKCON = 0x0
      +                          1;
  7190  003DFA  0E01               	movlw	1
  7191  003DFC  6EA2               	movwf	162,c	;volatile
  7192  003DFE                     
  7193                           ;/home/dev-user/Projects/Personal/PIC/LibPeripherals.X/timers.c: 235:     T4HLT = 0x00;
  7194  003DFE  0E00               	movlw	0
  7195  003E00  6EA1               	movwf	161,c	;volatile
  7196  003E02                     
  7197                           ;/home/dev-user/Projects/Personal/PIC/LibPeripherals.X/timers.c: 238:     uint8_t presca
      +                          larVal = 0;
  7198  003E02  0E00               	movlw	0
  7199  003E04  6E27               	movwf	Tmr4Setup@prescalarVal^0,c
  7200  003E06                     
  7201                           ;/home/dev-user/Projects/Personal/PIC/LibPeripherals.X/timers.c: 239:     uint32_t regVa
      +                          l = 64000000/4;
  7202  003E06  0E00               	movlw	0
  7203  003E08  6E28               	movwf	Tmr4Setup@regVal^0,c
  7204  003E0A  0E24               	movlw	36
  7205  003E0C  6E29               	movwf	(Tmr4Setup@regVal+1)^0,c
  7206  003E0E  0EF4               	movlw	244
  7207  003E10  6E2A               	movwf	(Tmr4Setup@regVal+2)^0,c
  7208  003E12  0E00               	movlw	0
  7209  003E14  6E2B               	movwf	(Tmr4Setup@regVal+3)^0,c
  7210  003E16                     
  7211                           ;/home/dev-user/Projects/Personal/PIC/LibPeripherals.X/timers.c: 240:     regVal = regVa
      +                          l / tmr_freq;
  7212  003E16  C028  F011         	movff	Tmr4Setup@regVal,___lldiv@dividend
  7213  003E1A  C029  F012         	movff	Tmr4Setup@regVal+1,___lldiv@dividend+1
  7214  003E1E  C02A  F013         	movff	Tmr4Setup@regVal+2,___lldiv@dividend+2
  7215  003E22  C02B  F014         	movff	Tmr4Setup@regVal+3,___lldiv@dividend+3
  7216  003E26  C01E  F015         	movff	Tmr4Setup@tmr_freq,___lldiv@divisor
  7217  003E2A  C01F  F016         	movff	Tmr4Setup@tmr_freq+1,___lldiv@divisor+1
  7218  003E2E  C020  F017         	movff	Tmr4Setup@tmr_freq+2,___lldiv@divisor+2
  7219  003E32  C021  F018         	movff	Tmr4Setup@tmr_freq+3,___lldiv@divisor+3
  7220  003E36  ECC0  F022         	call	___lldiv	;wreg free
  7221  003E3A  C011  F028         	movff	?___lldiv,Tmr4Setup@regVal
  7222  003E3E  C012  F029         	movff	?___lldiv+1,Tmr4Setup@regVal+1
  7223  003E42  C013  F02A         	movff	?___lldiv+2,Tmr4Setup@regVal+2
  7224  003E46  C014  F02B         	movff	?___lldiv+3,Tmr4Setup@regVal+3
  7225                           
  7226                           ;/home/dev-user/Projects/Personal/PIC/LibPeripherals.X/timers.c: 241:     while(regVal >
      +                           255){
  7227  003E4A  EF48  F01F         	goto	l6221
  7228  003E4E                     l6213:
  7229                           
  7230                           ;/home/dev-user/Projects/Personal/PIC/LibPeripherals.X/timers.c: 242:         regVal = r
      +                          egVal >> 1;
  7231  003E4E  C028  F023         	movff	Tmr4Setup@regVal,??_Tmr4Setup
  7232  003E52  C029  F024         	movff	Tmr4Setup@regVal+1,??_Tmr4Setup+1
  7233  003E56  C02A  F025         	movff	Tmr4Setup@regVal+2,??_Tmr4Setup+2
  7234  003E5A  C02B  F026         	movff	Tmr4Setup@regVal+3,??_Tmr4Setup+3
  7235  003E5E  90D8               	bcf	status,0,c
  7236  003E60  3226               	rrcf	(??_Tmr4Setup+3)^0,f,c
  7237  003E62  3225               	rrcf	(??_Tmr4Setup+2)^0,f,c
  7238  003E64  3224               	rrcf	(??_Tmr4Setup+1)^0,f,c
  7239  003E66  3223               	rrcf	??_Tmr4Setup^0,f,c
  7240  003E68  C023  F028         	movff	??_Tmr4Setup,Tmr4Setup@regVal
  7241  003E6C  C024  F029         	movff	??_Tmr4Setup+1,Tmr4Setup@regVal+1
  7242  003E70  C025  F02A         	movff	??_Tmr4Setup+2,Tmr4Setup@regVal+2
  7243  003E74  C026  F02B         	movff	??_Tmr4Setup+3,Tmr4Setup@regVal+3
  7244                           
  7245                           ;/home/dev-user/Projects/Personal/PIC/LibPeripherals.X/timers.c: 243:         prescalarV
      +                          al++;
  7246  003E78  2A27               	incf	Tmr4Setup@prescalarVal^0,f,c
  7247  003E7A                     
  7248                           ;/home/dev-user/Projects/Personal/PIC/LibPeripherals.X/timers.c: 244:         if(prescal
      +                          arVal > 7){
  7249  003E7A  0E07               	movlw	7
  7250  003E7C  6427               	cpfsgt	Tmr4Setup@prescalarVal^0,c
  7251  003E7E  EF43  F01F         	goto	u6071
  7252  003E82  EF45  F01F         	goto	u6070
  7253  003E86                     u6071:
  7254  003E86  EF48  F01F         	goto	l6221
  7255  003E8A                     u6070:
  7256  003E8A                     
  7257                           ;/home/dev-user/Projects/Personal/PIC/LibPeripherals.X/timers.c: 245:             return
      +                           STAT_FAIL;
  7258  003E8A  0EFE               	movlw	254
  7259  003E8C  EF66  F01F         	goto	l448
  7260  003E90                     l6221:
  7261                           
  7262                           ;/home/dev-user/Projects/Personal/PIC/LibPeripherals.X/timers.c: 241:     while(regVal >
      +                           255){
  7263  003E90  502B               	movf	(Tmr4Setup@regVal+3)^0,w,c
  7264  003E92  102A               	iorwf	(Tmr4Setup@regVal+2)^0,w,c
  7265  003E94  E106               	bnz	u6081
  7266  003E96  0429               	decf	(Tmr4Setup@regVal+1)^0,w,c
  7267  003E98  B0D8               	btfsc	status,0,c
  7268  003E9A  EF51  F01F         	goto	u6081
  7269  003E9E  EF53  F01F         	goto	u6080
  7270  003EA2                     u6081:
  7271  003EA2  EF27  F01F         	goto	l6213
  7272  003EA6                     u6080:
  7273  003EA6                     
  7274                           ;/home/dev-user/Projects/Personal/PIC/LibPeripherals.X/timers.c: 248:     T4PR = regVal-
      +                          1;
  7275  003EA6  0428               	decf	Tmr4Setup@regVal^0,w,c
  7276  003EA8  6E9F               	movwf	159,c	;volatile
  7277                           
  7278                           ;/home/dev-user/Projects/Personal/PIC/LibPeripherals.X/timers.c: 249:     prescalarVal =
      +                           prescalarVal << 4;
  7279  003EAA  3827               	swapf	Tmr4Setup@prescalarVal^0,w,c
  7280  003EAC  0BF0               	andlw	240
  7281  003EAE  6E27               	movwf	Tmr4Setup@prescalarVal^0,c
  7282                           
  7283                           ;/home/dev-user/Projects/Personal/PIC/LibPeripherals.X/timers.c: 250:     T4CON |= presc
      +                          alarVal;
  7284  003EB0  5027               	movf	Tmr4Setup@prescalarVal^0,w,c	;volatile
  7285  003EB2  12A0               	iorwf	160,f,c	;volatile
  7286  003EB4                     
  7287                           ;/home/dev-user/Projects/Personal/PIC/LibPeripherals.X/timers.c: 252:     if(use_int){
  7288  003EB4  5022               	movf	Tmr4Setup@use_int^0,w,c
  7289  003EB6  B4D8               	btfsc	status,2,c
  7290  003EB8  EF60  F01F         	goto	u6091
  7291  003EBC  EF62  F01F         	goto	u6090
  7292  003EC0                     u6091:
  7293  003EC0  EF65  F01F         	goto	l6229
  7294  003EC4                     u6090:
  7295  003EC4                     
  7296                           ;/home/dev-user/Projects/Personal/PIC/LibPeripherals.X/timers.c: 253:         TMR4IF = 0
      +                          ;
  7297  003EC4  0139               	movlb	57	; () banked
  7298  003EC6  91A7               	bcf	167,0,b	;volatile
  7299                           
  7300                           ;/home/dev-user/Projects/Personal/PIC/LibPeripherals.X/timers.c: 254:         TMR4IE = 1
      +                          ;
  7301  003EC8  8197               	bsf	151,0,b	;volatile
  7302  003ECA                     l6229:
  7303                           
  7304                           ;/home/dev-user/Projects/Personal/PIC/LibPeripherals.X/timers.c: 257:     return STAT_SU
      +                          CCESS;
  7305  003ECA  0E00               	movlw	0
  7306  003ECC                     l448:
  7307  003ECC  0012               	return		;funcret
  7308  003ECE                     __end_of_Tmr4Setup:
  7309                           	callstack 0
  7310                           
  7311 ;; *************** function _Tmr4Disable *****************
  7312 ;; Defined at:
  7313 ;;		line 265 in file "/home/dev-user/Projects/Personal/PIC/LibPeripherals.X/timers.c"
  7314 ;; Parameters:    Size  Location     Type
  7315 ;;		None
  7316 ;; Auto vars:     Size  Location     Type
  7317 ;;		None
  7318 ;; Return value:  Size  Location     Type
  7319 ;;                  1    wreg      void 
  7320 ;; Registers used:
  7321 ;;		None
  7322 ;; Tracked objects:
  7323 ;;		On entry : 0/0
  7324 ;;		On exit  : 0/0
  7325 ;;		Unchanged: 0/0
  7326 ;; Data sizes:     COMRAM   BANK0   BANK1   BANK2   BANK3   BANK4   BANK5   BANK6   BANK7   BANK8   BANK9  BANK10  BANK1
      +1  BANK12  BANK13  BANK14  BANK15  BANK16  BANK17  BANK18  BANK19  BANK20  BANK21  BANK22  BANK23  BANK24  BANK25  BANK2
      +6  BANK27  BANK28  BANK29  BANK30  BANK31
  7327 ;;      Params:         0       0       0       0       0       0       0       0       0       0       0       0       
      +0       0       0       0       0       0       0       0       0       0       0       0       0       0       0       
      +0       0       0       0       0       0
  7328 ;;      Locals:         0       0       0       0       0       0       0       0       0       0       0       0       
      +0       0       0       0       0       0       0       0       0       0       0       0       0       0       0       
      +0       0       0       0       0       0
  7329 ;;      Temps:          0       0       0       0       0       0       0       0       0       0       0       0       
      +0       0       0       0       0       0       0       0       0       0       0       0       0       0       0       
      +0       0       0       0       0       0
  7330 ;;      Totals:         0       0       0       0       0       0       0       0       0       0       0       0       
      +0       0       0       0       0       0       0       0       0       0       0       0       0       0       0       
      +0       0       0       0       0       0
  7331 ;;Total ram usage:        0 bytes
  7332 ;; Hardware stack levels used:    1
  7333 ;; Hardware stack levels required when called:    3
  7334 ;; This function calls:
  7335 ;;		Nothing
  7336 ;; This function is called by:
  7337 ;;		_Tmr4Setup
  7338 ;; This function uses a non-reentrant model
  7339 ;;
  7340                           
  7341                           	psect	text35
  7342  004F76                     __ptext35:
  7343                           	callstack 0
  7344  004F76                     _Tmr4Disable:
  7345                           	callstack 25
  7346  004F76                     
  7347                           ;/home/dev-user/Projects/Personal/PIC/LibPeripherals.X/timers.c: 267:     T4CONbits.ON =
      +                           0;
  7348  004F76  9EA0               	bcf	160,7,c	;volatile
  7349  004F78  0012               	return		;funcret
  7350  004F7A                     __end_of_Tmr4Disable:
  7351                           	callstack 0
  7352                           
  7353 ;; *************** function _Tmr4Enable *****************
  7354 ;; Defined at:
  7355 ;;		line 260 in file "/home/dev-user/Projects/Personal/PIC/LibPeripherals.X/timers.c"
  7356 ;; Parameters:    Size  Location     Type
  7357 ;;		None
  7358 ;; Auto vars:     Size  Location     Type
  7359 ;;		None
  7360 ;; Return value:  Size  Location     Type
  7361 ;;                  1    wreg      void 
  7362 ;; Registers used:
  7363 ;;		None
  7364 ;; Tracked objects:
  7365 ;;		On entry : 0/0
  7366 ;;		On exit  : 0/0
  7367 ;;		Unchanged: 0/0
  7368 ;; Data sizes:     COMRAM   BANK0   BANK1   BANK2   BANK3   BANK4   BANK5   BANK6   BANK7   BANK8   BANK9  BANK10  BANK1
      +1  BANK12  BANK13  BANK14  BANK15  BANK16  BANK17  BANK18  BANK19  BANK20  BANK21  BANK22  BANK23  BANK24  BANK25  BANK2
      +6  BANK27  BANK28  BANK29  BANK30  BANK31
  7369 ;;      Params:         0       0       0       0       0       0       0       0       0       0       0       0       
      +0       0       0       0       0       0       0       0       0       0       0       0       0       0       0       
      +0       0       0       0       0       0
  7370 ;;      Locals:         0       0       0       0       0       0       0       0       0       0       0       0       
      +0       0       0       0       0       0       0       0       0       0       0       0       0       0       0       
      +0       0       0       0       0       0
  7371 ;;      Temps:          0       0       0       0       0       0       0       0       0       0       0       0       
      +0       0       0       0       0       0       0       0       0       0       0       0       0       0       0       
      +0       0       0       0       0       0
  7372 ;;      Totals:         0       0       0       0       0       0       0       0       0       0       0       0       
      +0       0       0       0       0       0       0       0       0       0       0       0       0       0       0       
      +0       0       0       0       0       0
  7373 ;;Total ram usage:        0 bytes
  7374 ;; Hardware stack levels used:    1
  7375 ;; Hardware stack levels required when called:    3
  7376 ;; This function calls:
  7377 ;;		Nothing
  7378 ;; This function is called by:
  7379 ;;		_SysInit
  7380 ;; This function uses a non-reentrant model
  7381 ;;
  7382                           
  7383                           	psect	text36
  7384  004F7A                     __ptext36:
  7385                           	callstack 0
  7386  004F7A                     _Tmr4Enable:
  7387                           	callstack 26
  7388  004F7A                     
  7389                           ;/home/dev-user/Projects/Personal/PIC/LibPeripherals.X/timers.c: 262:     T4CONbits.ON =
      +                           1;
  7390  004F7A  8EA0               	bsf	160,7,c	;volatile
  7391  004F7C  0012               	return		;funcret
  7392  004F7E                     __end_of_Tmr4Enable:
  7393                           	callstack 0
  7394                           
  7395 ;; *************** function _IOExpSetup *****************
  7396 ;; Defined at:
  7397 ;;		line 13 in file "/home/dev-user/Projects/Personal/PIC/LibMisc.X/IOExp_PCA9539A.c"
  7398 ;; Parameters:    Size  Location     Type
  7399 ;;  ioexp_inst      2   44[COMRAM] PTR volatile struct .
  7400 ;;		 -> ioexp1(9), 
  7401 ;;  set_addr        1   46[COMRAM] unsigned char 
  7402 ;;  set_dir         2   47[COMRAM] unsigned short 
  7403 ;;  set_inv         2   49[COMRAM] unsigned short 
  7404 ;;  set_oval        2   51[COMRAM] unsigned short 
  7405 ;; Auto vars:     Size  Location     Type
  7406 ;;		None
  7407 ;; Return value:  Size  Location     Type
  7408 ;;                  1    wreg      enum E16361
  7409 ;; Registers used:
  7410 ;;		wreg, fsr2l, fsr2h, status,2, status,0, cstack
  7411 ;; Tracked objects:
  7412 ;;		On entry : 0/0
  7413 ;;		On exit  : 0/0
  7414 ;;		Unchanged: 0/0
  7415 ;; Data sizes:     COMRAM   BANK0   BANK1   BANK2   BANK3   BANK4   BANK5   BANK6   BANK7   BANK8   BANK9  BANK10  BANK1
      +1  BANK12  BANK13  BANK14  BANK15  BANK16  BANK17  BANK18  BANK19  BANK20  BANK21  BANK22  BANK23  BANK24  BANK25  BANK2
      +6  BANK27  BANK28  BANK29  BANK30  BANK31
  7416 ;;      Params:         9       0       0       0       0       0       0       0       0       0       0       0       
      +0       0       0       0       0       0       0       0       0       0       0       0       0       0       0       
      +0       0       0       0       0       0
  7417 ;;      Locals:         0       0       0       0       0       0       0       0       0       0       0       0       
      +0       0       0       0       0       0       0       0       0       0       0       0       0       0       0       
      +0       0       0       0       0       0
  7418 ;;      Temps:          1       0       0       0       0       0       0       0       0       0       0       0       
      +0       0       0       0       0       0       0       0       0       0       0       0       0       0       0       
      +0       0       0       0       0       0
  7419 ;;      Totals:        10       0       0       0       0       0       0       0       0       0       0       0       
      +0       0       0       0       0       0       0       0       0       0       0       0       0       0       0       
      +0       0       0       0       0       0
  7420 ;;Total ram usage:       10 bytes
  7421 ;; Hardware stack levels used:    1
  7422 ;; Hardware stack levels required when called:    6
  7423 ;; This function calls:
  7424 ;;		_I2C1Enable
  7425 ;;		_I2C1Setup
  7426 ;;		_IOExpUpdateAll
  7427 ;; This function is called by:
  7428 ;;		_SysInit
  7429 ;; This function uses a non-reentrant model
  7430 ;;
  7431                           
  7432                           	psect	text37
  7433  0041FC                     __ptext37:
  7434                           	callstack 0
  7435  0041FC                     _IOExpSetup:
  7436                           	callstack 23
  7437  0041FC                     
  7438                           ;/home/dev-user/Projects/Personal/PIC/LibMisc.X/IOExp_PCA9539A.c: 13: STATUS_T IOExpSetu
      +                          p(IOEXP_PCA9539_T *ioexp_inst, uint8_t set_addr, uint16_t set_dir, uint16_t set_inv, uin
      +                          t16_t set_oval);/home/dev-user/Projects/Personal/PIC/LibMisc.X/IOExp_PCA9539A.c: 14: {;/
      +                          home/dev-user/Projects/Personal/PIC/LibMisc.X/IOExp_PCA9539A.c: 34:     ioexp_inst->Addr
      +                           = set_addr;
  7439  0041FC  0060  F0B7  FFD9   	movff	IOExpSetup@ioexp_inst,fsr2l
  7440  004202  0060  F0BB  FFDA   	movff	IOExpSetup@ioexp_inst+1,fsr2h
  7441  004208  0060  F0BF  FFDF   	movff	IOExpSetup@set_addr,indf2
  7442  00420E                     
  7443                           ;/home/dev-user/Projects/Personal/PIC/LibMisc.X/IOExp_PCA9539A.c: 36:     ioexp_inst->P0
      +                          Dir.val = set_dir & 0x00FF;
  7444  00420E  EE20 F004          	lfsr	2,4
  7445  004212  502D               	movf	IOExpSetup@ioexp_inst^0,w,c
  7446  004214  26D9               	addwf	fsr2l,f,c
  7447  004216  502E               	movf	(IOExpSetup@ioexp_inst+1)^0,w,c
  7448  004218  22DA               	addwfc	fsr2h,f,c
  7449  00421A  0060  F0C3  FFDF   	movff	IOExpSetup@set_dir,indf2
  7450  004220                     
  7451                           ;/home/dev-user/Projects/Personal/PIC/LibMisc.X/IOExp_PCA9539A.c: 37:     ioexp_inst->P0
      +                          Inv.val = set_inv & 0x00FF;
  7452  004220  EE20 F003          	lfsr	2,3
  7453  004224  502D               	movf	IOExpSetup@ioexp_inst^0,w,c
  7454  004226  26D9               	addwf	fsr2l,f,c
  7455  004228  502E               	movf	(IOExpSetup@ioexp_inst+1)^0,w,c
  7456  00422A  22DA               	addwfc	fsr2h,f,c
  7457  00422C  0060  F0CB  FFDF   	movff	IOExpSetup@set_inv,indf2
  7458  004232                     
  7459                           ;/home/dev-user/Projects/Personal/PIC/LibMisc.X/IOExp_PCA9539A.c: 38:     ioexp_inst->P0
      +                          OVal.val = set_oval & 0x00FF;
  7460  004232  EE20 F002          	lfsr	2,2
  7461  004236  502D               	movf	IOExpSetup@ioexp_inst^0,w,c
  7462  004238  26D9               	addwf	fsr2l,f,c
  7463  00423A  502E               	movf	(IOExpSetup@ioexp_inst+1)^0,w,c
  7464  00423C  22DA               	addwfc	fsr2h,f,c
  7465  00423E  0060  F0D3  FFDF   	movff	IOExpSetup@set_oval,indf2
  7466  004244                     
  7467                           ;/home/dev-user/Projects/Personal/PIC/LibMisc.X/IOExp_PCA9539A.c: 40:     ioexp_inst->P1
      +                          Dir.val = set_dir >> 8;
  7468  004244  EE20 F008          	lfsr	2,8
  7469  004248  502D               	movf	IOExpSetup@ioexp_inst^0,w,c
  7470  00424A  26D9               	addwf	fsr2l,f,c
  7471  00424C  502E               	movf	(IOExpSetup@ioexp_inst+1)^0,w,c
  7472  00424E  22DA               	addwfc	fsr2h,f,c
  7473  004250  5031               	movf	(IOExpSetup@set_dir+1)^0,w,c
  7474  004252  6EDF               	movwf	indf2,c
  7475  004254                     
  7476                           ;/home/dev-user/Projects/Personal/PIC/LibMisc.X/IOExp_PCA9539A.c: 41:     ioexp_inst->P1
      +                          Inv.val = set_inv >> 8;
  7477  004254  EE20 F007          	lfsr	2,7
  7478  004258  502D               	movf	IOExpSetup@ioexp_inst^0,w,c
  7479  00425A  26D9               	addwf	fsr2l,f,c
  7480  00425C  502E               	movf	(IOExpSetup@ioexp_inst+1)^0,w,c
  7481  00425E  22DA               	addwfc	fsr2h,f,c
  7482  004260  5033               	movf	(IOExpSetup@set_inv+1)^0,w,c
  7483  004262  6EDF               	movwf	indf2,c
  7484  004264                     
  7485                           ;/home/dev-user/Projects/Personal/PIC/LibMisc.X/IOExp_PCA9539A.c: 42:     ioexp_inst->P1
      +                          OVal.val = set_oval >> 8;
  7486  004264  EE20 F006          	lfsr	2,6
  7487  004268  502D               	movf	IOExpSetup@ioexp_inst^0,w,c
  7488  00426A  26D9               	addwf	fsr2l,f,c
  7489  00426C  502E               	movf	(IOExpSetup@ioexp_inst+1)^0,w,c
  7490  00426E  22DA               	addwfc	fsr2h,f,c
  7491  004270  5035               	movf	(IOExpSetup@set_oval+1)^0,w,c
  7492  004272  6EDF               	movwf	indf2,c
  7493  004274                     
  7494                           ;/home/dev-user/Projects/Personal/PIC/LibMisc.X/IOExp_PCA9539A.c: 51:     if(I2C1Setup(1
      +                          ) != STAT_SUCCESS){
  7495  004274  0E01               	movlw	1
  7496  004276  EC6A  F022         	call	_I2C1Setup
  7497  00427A  0900               	iorlw	0
  7498  00427C  B4D8               	btfsc	status,2,c
  7499  00427E  EF43  F021         	goto	u6191
  7500  004282  EF45  F021         	goto	u6190
  7501  004286                     u6191:
  7502  004286  EF48  F021         	goto	l950
  7503  00428A                     u6190:
  7504  00428A                     
  7505                           ;/home/dev-user/Projects/Personal/PIC/LibMisc.X/IOExp_PCA9539A.c: 52:         return STA
      +                          T_FAIL;
  7506  00428A  0EFE               	movlw	254
  7507  00428C  EF5B  F021         	goto	l951
  7508  004290                     l950:
  7509                           
  7510                           ;/home/dev-user/Projects/Personal/PIC/LibMisc.X/IOExp_PCA9539A.c: 54:     LATBbits.LATB3
      +                           = 0;
  7511  004290  96BB               	bcf	187,3,c	;volatile
  7512                           
  7513                           ;/home/dev-user/Projects/Personal/PIC/LibMisc.X/IOExp_PCA9539A.c: 55:     TRISBbits.TRIS
      +                          B3 = 0;
  7514  004292  96C3               	bcf	195,3,c	;volatile
  7515  004294                     
  7516                           ;/home/dev-user/Projects/Personal/PIC/LibMisc.X/IOExp_PCA9539A.c: 56:     _delay((unsign
      +                          ed long)((5)*(64000000/4000.0)));
  7517  004294  0E68               	movlw	104
  7518  004296  6E36               	movwf	??_IOExpSetup^0,c
  7519  004298  0EE4               	movlw	228
  7520  00429A                     u6627:
  7521  00429A  2EE8               	decfsz	wreg,f,c
  7522  00429C  D7FE               	bra	u6627
  7523  00429E  2E36               	decfsz	??_IOExpSetup^0,f,c
  7524  0042A0  D7FC               	bra	u6627
  7525  0042A2  D000               	nop2	
  7526  0042A4                     
  7527                           ;/home/dev-user/Projects/Personal/PIC/LibMisc.X/IOExp_PCA9539A.c: 57:     I2C1Enable();
  7528  0042A4  ECB8  F027         	call	_I2C1Enable	;wreg free
  7529  0042A8                     
  7530                           ;/home/dev-user/Projects/Personal/PIC/LibMisc.X/IOExp_PCA9539A.c: 58:     LATBbits.LATB3
      +                           = 1;
  7531  0042A8  86BB               	bsf	187,3,c	;volatile
  7532  0042AA                     
  7533                           ;/home/dev-user/Projects/Personal/PIC/LibMisc.X/IOExp_PCA9539A.c: 61:     return IOExpUp
      +                          dateAll(ioexp_inst);
  7534  0042AA  C02D  F01D         	movff	IOExpSetup@ioexp_inst,IOExpUpdateAll@ioexp_inst
  7535  0042AE  C02E  F01E         	movff	IOExpSetup@ioexp_inst+1,IOExpUpdateAll@ioexp_inst+1
  7536  0042B2  EC5E  F023         	call	_IOExpUpdateAll	;wreg free
  7537  0042B6                     l951:
  7538  0042B6  0012               	return		;funcret
  7539  0042B8                     __end_of_IOExpSetup:
  7540                           	callstack 0
  7541                           
  7542 ;; *************** function _IOExpUpdateAll *****************
  7543 ;; Defined at:
  7544 ;;		line 77 in file "/home/dev-user/Projects/Personal/PIC/LibMisc.X/IOExp_PCA9539A.c"
  7545 ;; Parameters:    Size  Location     Type
  7546 ;;  ioexp_inst      2   28[COMRAM] PTR volatile struct .
  7547 ;;		 -> ioexp1(9), 
  7548 ;; Auto vars:     Size  Location     Type
  7549 ;;		None
  7550 ;; Return value:  Size  Location     Type
  7551 ;;                  1    wreg      enum E16287
  7552 ;; Registers used:
  7553 ;;		wreg, fsr2l, fsr2h, status,2, status,0, cstack
  7554 ;; Tracked objects:
  7555 ;;		On entry : 0/0
  7556 ;;		On exit  : 0/0
  7557 ;;		Unchanged: 0/0
  7558 ;; Data sizes:     COMRAM   BANK0   BANK1   BANK2   BANK3   BANK4   BANK5   BANK6   BANK7   BANK8   BANK9  BANK10  BANK1
      +1  BANK12  BANK13  BANK14  BANK15  BANK16  BANK17  BANK18  BANK19  BANK20  BANK21  BANK22  BANK23  BANK24  BANK25  BANK2
      +6  BANK27  BANK28  BANK29  BANK30  BANK31
  7559 ;;      Params:         2       0       0       0       0       0       0       0       0       0       0       0       
      +0       0       0       0       0       0       0       0       0       0       0       0       0       0       0       
      +0       0       0       0       0       0
  7560 ;;      Locals:         0       0       0       0       0       0       0       0       0       0       0       0       
      +0       0       0       0       0       0       0       0       0       0       0       0       0       0       0       
      +0       0       0       0       0       0
  7561 ;;      Temps:          0       0       0       0       0       0       0       0       0       0       0       0       
      +0       0       0       0       0       0       0       0       0       0       0       0       0       0       0       
      +0       0       0       0       0       0
  7562 ;;      Totals:         2       0       0       0       0       0       0       0       0       0       0       0       
      +0       0       0       0       0       0       0       0       0       0       0       0       0       0       0       
      +0       0       0       0       0       0
  7563 ;;Total ram usage:        2 bytes
  7564 ;; Hardware stack levels used:    1
  7565 ;; Hardware stack levels required when called:    5
  7566 ;; This function calls:
  7567 ;;		_IOExpReadIVal
  7568 ;;		_IOExpWriteDir
  7569 ;;		_IOExpWriteInv
  7570 ;;		_IOExpWriteVal
  7571 ;; This function is called by:
  7572 ;;		_IOExpSetup
  7573 ;; This function uses a non-reentrant model
  7574 ;;
  7575                           
  7576                           	psect	text38
  7577  0046BC                     __ptext38:
  7578                           	callstack 0
  7579  0046BC                     _IOExpUpdateAll:
  7580                           	callstack 23
  7581  0046BC                     
  7582                           ;/home/dev-user/Projects/Personal/PIC/LibMisc.X/IOExp_PCA9539A.c: 77: STATUS_T IOExpUpda
      +                          teAll(IOEXP_PCA9539_T *ioexp_inst);/home/dev-user/Projects/Personal/PIC/LibMisc.X/IOExp_
      +                          PCA9539A.c: 78: {;/home/dev-user/Projects/Personal/PIC/LibMisc.X/IOExp_PCA9539A.c: 79:  
      +                              if(IOExpWriteInv(ioexp_inst, BOTH) != STAT_SUCCESS)
  7583  0046BC  C01D  F014         	movff	IOExpUpdateAll@ioexp_inst,IOExpWriteInv@ioexp_inst
  7584  0046C0  C01E  F015         	movff	IOExpUpdateAll@ioexp_inst+1,IOExpWriteInv@ioexp_inst+1
  7585  0046C4  0E02               	movlw	2
  7586  0046C6  6E16               	movwf	IOExpWriteInv@portSel^0,c
  7587  0046C8  EC5C  F021         	call	_IOExpWriteInv	;wreg free
  7588  0046CC  0900               	iorlw	0
  7589  0046CE  B4D8               	btfsc	status,2,c
  7590  0046D0  EF6C  F023         	goto	u5881
  7591  0046D4  EF6E  F023         	goto	u5880
  7592  0046D8                     u5881:
  7593  0046D8  EF71  F023         	goto	l6041
  7594  0046DC                     u5880:
  7595  0046DC                     l6037:
  7596                           
  7597                           ;/home/dev-user/Projects/Personal/PIC/LibMisc.X/IOExp_PCA9539A.c: 80:         return STA
      +                          T_FAIL;
  7598  0046DC  0EFE               	movlw	254
  7599  0046DE  EFA8  F023         	goto	l955
  7600  0046E2                     l6041:
  7601                           
  7602                           ;/home/dev-user/Projects/Personal/PIC/LibMisc.X/IOExp_PCA9539A.c: 82:     if(IOExpWriteV
      +                          al(ioexp_inst, BOTH) != STAT_SUCCESS)
  7603  0046E2  C01D  F014         	movff	IOExpUpdateAll@ioexp_inst,IOExpWriteVal@ioexp_inst
  7604  0046E6  C01E  F015         	movff	IOExpUpdateAll@ioexp_inst+1,IOExpWriteVal@ioexp_inst+1
  7605  0046EA  0E02               	movlw	2
  7606  0046EC  6E16               	movwf	IOExpWriteVal@portSel^0,c
  7607  0046EE  EC10  F022         	call	_IOExpWriteVal	;wreg free
  7608  0046F2  0900               	iorlw	0
  7609  0046F4  B4D8               	btfsc	status,2,c
  7610  0046F6  EF7F  F023         	goto	u5891
  7611  0046FA  EF81  F023         	goto	u5890
  7612  0046FE                     u5891:
  7613  0046FE  EF83  F023         	goto	l6047
  7614  004702                     u5890:
  7615  004702  EF6E  F023         	goto	l6037
  7616  004706                     l6047:
  7617                           
  7618                           ;/home/dev-user/Projects/Personal/PIC/LibMisc.X/IOExp_PCA9539A.c: 85:     if(IOExpWriteD
      +                          ir(ioexp_inst, BOTH) != STAT_SUCCESS)
  7619  004706  C01D  F014         	movff	IOExpUpdateAll@ioexp_inst,IOExpWriteDir@ioexp_inst
  7620  00470A  C01E  F015         	movff	IOExpUpdateAll@ioexp_inst+1,IOExpWriteDir@ioexp_inst+1
  7621  00470E  0E02               	movlw	2
  7622  004710  6E16               	movwf	IOExpWriteDir@portSel^0,c
  7623  004712  ECB6  F021         	call	_IOExpWriteDir	;wreg free
  7624  004716  0900               	iorlw	0
  7625  004718  B4D8               	btfsc	status,2,c
  7626  00471A  EF91  F023         	goto	u5901
  7627  00471E  EF93  F023         	goto	u5900
  7628  004722                     u5901:
  7629  004722  EF95  F023         	goto	l6053
  7630  004726                     u5900:
  7631  004726  EF6E  F023         	goto	l6037
  7632  00472A                     l6053:
  7633                           
  7634                           ;/home/dev-user/Projects/Personal/PIC/LibMisc.X/IOExp_PCA9539A.c: 88:     if(IOExpReadIV
      +                          al(ioexp_inst, BOTH) != STAT_SUCCESS)
  7635  00472A  C01D  F016         	movff	IOExpUpdateAll@ioexp_inst,IOExpReadIVal@ioexp_inst
  7636  00472E  C01E  F017         	movff	IOExpUpdateAll@ioexp_inst+1,IOExpReadIVal@ioexp_inst+1
  7637  004732  0E02               	movlw	2
  7638  004734  6E18               	movwf	IOExpReadIVal@portSel^0,c
  7639  004736  EC24  F01D         	call	_IOExpReadIVal	;wreg free
  7640  00473A  0900               	iorlw	0
  7641  00473C  B4D8               	btfsc	status,2,c
  7642  00473E  EFA3  F023         	goto	u5911
  7643  004742  EFA5  F023         	goto	u5910
  7644  004746                     u5911:
  7645  004746  EFA7  F023         	goto	l6059
  7646  00474A                     u5910:
  7647  00474A  EF6E  F023         	goto	l6037
  7648  00474E                     l6059:
  7649                           
  7650                           ;/home/dev-user/Projects/Personal/PIC/LibMisc.X/IOExp_PCA9539A.c: 91:     return STAT_SU
      +                          CCESS;
  7651  00474E  0E00               	movlw	0
  7652  004750                     l955:
  7653  004750  0012               	return		;funcret
  7654  004752                     __end_of_IOExpUpdateAll:
  7655                           	callstack 0
  7656                           
  7657 ;; *************** function _IOExpWriteInv *****************
  7658 ;; Defined at:
  7659 ;;		line 155 in file "/home/dev-user/Projects/Personal/PIC/LibMisc.X/IOExp_PCA9539A.c"
  7660 ;; Parameters:    Size  Location     Type
  7661 ;;  ioexp_inst      2   19[COMRAM] PTR volatile struct .
  7662 ;;		 -> ioexp1(9), 
  7663 ;;  portSel         1   21[COMRAM] enum E16387
  7664 ;; Auto vars:     Size  Location     Type
  7665 ;;  datVals         2   23[COMRAM] unsigned char [2]
  7666 ;;  wrtCnt          1   25[COMRAM] unsigned char 
  7667 ;;  intAddr         1   22[COMRAM] unsigned char 
  7668 ;; Return value:  Size  Location     Type
  7669 ;;                  1    wreg      enum E16287
  7670 ;; Registers used:
  7671 ;;		wreg, fsr2l, fsr2h, status,2, status,0, cstack
  7672 ;; Tracked objects:
  7673 ;;		On entry : 0/0
  7674 ;;		On exit  : 0/0
  7675 ;;		Unchanged: 0/0
  7676 ;; Data sizes:     COMRAM   BANK0   BANK1   BANK2   BANK3   BANK4   BANK5   BANK6   BANK7   BANK8   BANK9  BANK10  BANK1
      +1  BANK12  BANK13  BANK14  BANK15  BANK16  BANK17  BANK18  BANK19  BANK20  BANK21  BANK22  BANK23  BANK24  BANK25  BANK2
      +6  BANK27  BANK28  BANK29  BANK30  BANK31
  7677 ;;      Params:         3       0       0       0       0       0       0       0       0       0       0       0       
      +0       0       0       0       0       0       0       0       0       0       0       0       0       0       0       
      +0       0       0       0       0       0
  7678 ;;      Locals:         4       0       0       0       0       0       0       0       0       0       0       0       
      +0       0       0       0       0       0       0       0       0       0       0       0       0       0       0       
      +0       0       0       0       0       0
  7679 ;;      Temps:          0       0       0       0       0       0       0       0       0       0       0       0       
      +0       0       0       0       0       0       0       0       0       0       0       0       0       0       0       
      +0       0       0       0       0       0
  7680 ;;      Totals:         7       0       0       0       0       0       0       0       0       0       0       0       
      +0       0       0       0       0       0       0       0       0       0       0       0       0       0       0       
      +0       0       0       0       0       0
  7681 ;;Total ram usage:        7 bytes
  7682 ;; Hardware stack levels used:    1
  7683 ;; Hardware stack levels required when called:    4
  7684 ;; This function calls:
  7685 ;;		_I2C1Write
  7686 ;; This function is called by:
  7687 ;;		_IOExpUpdateAll
  7688 ;; This function uses a non-reentrant model
  7689 ;;
  7690                           
  7691                           	psect	text39
  7692  0042B8                     __ptext39:
  7693                           	callstack 0
  7694  0042B8                     _IOExpWriteInv:
  7695                           	callstack 23
  7696  0042B8                     
  7697                           ;/home/dev-user/Projects/Personal/PIC/LibMisc.X/IOExp_PCA9539A.c: 155: STATUS_T IOExpWri
      +                          teInv(IOEXP_PCA9539_T *ioexp_inst, enum IOEXP_PORTENUM portSel);/home/dev-user/Projects/
      +                          Personal/PIC/LibMisc.X/IOExp_PCA9539A.c: 156: {;/home/dev-user/Projects/Personal/PIC/Lib
      +                          Misc.X/IOExp_PCA9539A.c: 157:     uint8_t wrtCnt = 2;
  7698  0042B8  0E02               	movlw	2
  7699  0042BA  6E1A               	movwf	IOExpWriteInv@wrtCnt^0,c
  7700                           
  7701                           ;/home/dev-user/Projects/Personal/PIC/LibMisc.X/IOExp_PCA9539A.c: 158:     uint8_t intAd
      +                          dr = 0x04;
  7702  0042BC  0E04               	movlw	4
  7703  0042BE  6E17               	movwf	IOExpWriteInv@intAddr^0,c
  7704  0042C0                     
  7705                           ;/home/dev-user/Projects/Personal/PIC/LibMisc.X/IOExp_PCA9539A.c: 159:     uint8_t datVa
      +                          ls[2];;/home/dev-user/Projects/Personal/PIC/LibMisc.X/IOExp_PCA9539A.c: 160:     datVals
      +                          [0] = ioexp_inst->P0Inv.val;
  7706  0042C0  EE20 F003          	lfsr	2,3
  7707  0042C4  5014               	movf	IOExpWriteInv@ioexp_inst^0,w,c
  7708  0042C6  26D9               	addwf	fsr2l,f,c
  7709  0042C8  5015               	movf	(IOExpWriteInv@ioexp_inst+1)^0,w,c
  7710  0042CA  22DA               	addwfc	fsr2h,f,c
  7711  0042CC  50DF               	movf	indf2,w,c
  7712  0042CE  6E18               	movwf	IOExpWriteInv@datVals^0,c
  7713  0042D0                     
  7714                           ;/home/dev-user/Projects/Personal/PIC/LibMisc.X/IOExp_PCA9539A.c: 161:     datVals[1] = 
      +                          ioexp_inst->P1Inv.val;
  7715  0042D0  EE20 F007          	lfsr	2,7
  7716  0042D4  5014               	movf	IOExpWriteInv@ioexp_inst^0,w,c
  7717  0042D6  26D9               	addwf	fsr2l,f,c
  7718  0042D8  5015               	movf	(IOExpWriteInv@ioexp_inst+1)^0,w,c
  7719  0042DA  22DA               	addwfc	fsr2h,f,c
  7720  0042DC  50DF               	movf	indf2,w,c
  7721  0042DE  6E19               	movwf	(IOExpWriteInv@datVals+1)^0,c
  7722  0042E0                     
  7723                           ;/home/dev-user/Projects/Personal/PIC/LibMisc.X/IOExp_PCA9539A.c: 163:     if(portSel ==
      +                           P1){
  7724  0042E0  0416               	decf	IOExpWriteInv@portSel^0,w,c
  7725  0042E2  A4D8               	btfss	status,2,c
  7726  0042E4  EF76  F021         	goto	u5031
  7727  0042E8  EF78  F021         	goto	u5030
  7728  0042EC                     u5031:
  7729  0042EC  EF84  F021         	goto	l5531
  7730  0042F0                     u5030:
  7731  0042F0                     
  7732                           ;/home/dev-user/Projects/Personal/PIC/LibMisc.X/IOExp_PCA9539A.c: 164:         intAddr =
      +                           0x05;
  7733  0042F0  0E05               	movlw	5
  7734  0042F2  6E17               	movwf	IOExpWriteInv@intAddr^0,c
  7735  0042F4                     
  7736                           ;/home/dev-user/Projects/Personal/PIC/LibMisc.X/IOExp_PCA9539A.c: 165:         datVals[0
      +                          ] = ioexp_inst->P1Inv.val;
  7737  0042F4  EE20 F007          	lfsr	2,7
  7738  0042F8  5014               	movf	IOExpWriteInv@ioexp_inst^0,w,c
  7739  0042FA  26D9               	addwf	fsr2l,f,c
  7740  0042FC  5015               	movf	(IOExpWriteInv@ioexp_inst+1)^0,w,c
  7741  0042FE  22DA               	addwfc	fsr2h,f,c
  7742  004300  50DF               	movf	indf2,w,c
  7743  004302  6E18               	movwf	IOExpWriteInv@datVals^0,c
  7744                           
  7745                           ;/home/dev-user/Projects/Personal/PIC/LibMisc.X/IOExp_PCA9539A.c: 166:     } else if(por
      +                          tSel == BOTH){
  7746  004304  EF8F  F021         	goto	l5535
  7747  004308                     l5531:
  7748  004308  0E02               	movlw	2
  7749  00430A  1816               	xorwf	IOExpWriteInv@portSel^0,w,c
  7750  00430C  A4D8               	btfss	status,2,c
  7751  00430E  EF8B  F021         	goto	u5041
  7752  004312  EF8D  F021         	goto	u5040
  7753  004316                     u5041:
  7754  004316  EF8F  F021         	goto	l5535
  7755  00431A                     u5040:
  7756  00431A                     
  7757                           ;/home/dev-user/Projects/Personal/PIC/LibMisc.X/IOExp_PCA9539A.c: 167:         wrtCnt = 
      +                          3;
  7758  00431A  0E03               	movlw	3
  7759  00431C  6E1A               	movwf	IOExpWriteInv@wrtCnt^0,c
  7760  00431E                     l5535:
  7761                           
  7762                           ;/home/dev-user/Projects/Personal/PIC/LibMisc.X/IOExp_PCA9539A.c: 179:     I2C1_buff_out
      +                          [0] = intAddr;
  7763  00431E  C017  F100         	movff	IOExpWriteInv@intAddr,_I2C1_buff_out
  7764  004322                     
  7765                           ;/home/dev-user/Projects/Personal/PIC/LibMisc.X/IOExp_PCA9539A.c: 180:     I2C1_buff_out
      +                          [1] = datVals[0];
  7766  004322  C018  F101         	movff	IOExpWriteInv@datVals,_I2C1_buff_out+1
  7767  004326                     
  7768                           ;/home/dev-user/Projects/Personal/PIC/LibMisc.X/IOExp_PCA9539A.c: 181:     if(wrtCnt == 
      +                          3){
  7769  004326  0E03               	movlw	3
  7770  004328  181A               	xorwf	IOExpWriteInv@wrtCnt^0,w,c
  7771  00432A  A4D8               	btfss	status,2,c
  7772  00432C  EF9A  F021         	goto	u5051
  7773  004330  EF9C  F021         	goto	u5050
  7774  004334                     u5051:
  7775  004334  EF9E  F021         	goto	l5543
  7776  004338                     u5050:
  7777  004338                     
  7778                           ;/home/dev-user/Projects/Personal/PIC/LibMisc.X/IOExp_PCA9539A.c: 182:         I2C1_buff
      +                          _out[2] = datVals[1];
  7779  004338  C019  F102         	movff	IOExpWriteInv@datVals+1,_I2C1_buff_out+2
  7780  00433C                     l5543:
  7781                           
  7782                           ;/home/dev-user/Projects/Personal/PIC/LibMisc.X/IOExp_PCA9539A.c: 184:     if(I2C1Write(
      +                          wrtCnt, ioexp_inst->Addr) == wrtCnt)
  7783  00433C  0060  F053  FFD9   	movff	IOExpWriteInv@ioexp_inst,fsr2l
  7784  004342  0060  F057  FFDA   	movff	IOExpWriteInv@ioexp_inst+1,fsr2h
  7785  004348  50DF               	movf	indf2,w,c
  7786  00434A  6E11               	movwf	I2C1Write@devAddr^0,c
  7787  00434C  501A               	movf	IOExpWriteInv@wrtCnt^0,w,c
  7788  00434E  EC6A  F025         	call	_I2C1Write
  7789  004352  181A               	xorwf	IOExpWriteInv@wrtCnt^0,w,c
  7790  004354  A4D8               	btfss	status,2,c
  7791  004356  EFAF  F021         	goto	u5061
  7792  00435A  EFB1  F021         	goto	u5060
  7793  00435E                     u5061:
  7794  00435E  EFB4  F021         	goto	l5549
  7795  004362                     u5060:
  7796  004362                     
  7797                           ;/home/dev-user/Projects/Personal/PIC/LibMisc.X/IOExp_PCA9539A.c: 185:         return ST
      +                          AT_SUCCESS;
  7798  004362  0E00               	movlw	0
  7799  004364  EFB5  F021         	goto	l986
  7800  004368                     l5549:
  7801                           
  7802                           ;/home/dev-user/Projects/Personal/PIC/LibMisc.X/IOExp_PCA9539A.c: 188:     return STAT_F
      +                          AIL;
  7803  004368  0EFE               	movlw	254
  7804  00436A                     l986:
  7805  00436A  0012               	return		;funcret
  7806  00436C                     __end_of_IOExpWriteInv:
  7807                           	callstack 0
  7808                           
  7809 ;; *************** function _IOExpWriteDir *****************
  7810 ;; Defined at:
  7811 ;;		line 119 in file "/home/dev-user/Projects/Personal/PIC/LibMisc.X/IOExp_PCA9539A.c"
  7812 ;; Parameters:    Size  Location     Type
  7813 ;;  ioexp_inst      2   19[COMRAM] PTR volatile struct .
  7814 ;;		 -> ioexp1(9), 
  7815 ;;  portSel         1   21[COMRAM] enum E16387
  7816 ;; Auto vars:     Size  Location     Type
  7817 ;;  datVals         2   23[COMRAM] unsigned char [2]
  7818 ;;  wrtCnt          1   25[COMRAM] unsigned char 
  7819 ;;  intAddr         1   22[COMRAM] unsigned char 
  7820 ;; Return value:  Size  Location     Type
  7821 ;;                  1    wreg      enum E16287
  7822 ;; Registers used:
  7823 ;;		wreg, fsr2l, fsr2h, status,2, status,0, cstack
  7824 ;; Tracked objects:
  7825 ;;		On entry : 0/0
  7826 ;;		On exit  : 0/0
  7827 ;;		Unchanged: 0/0
  7828 ;; Data sizes:     COMRAM   BANK0   BANK1   BANK2   BANK3   BANK4   BANK5   BANK6   BANK7   BANK8   BANK9  BANK10  BANK1
      +1  BANK12  BANK13  BANK14  BANK15  BANK16  BANK17  BANK18  BANK19  BANK20  BANK21  BANK22  BANK23  BANK24  BANK25  BANK2
      +6  BANK27  BANK28  BANK29  BANK30  BANK31
  7829 ;;      Params:         3       0       0       0       0       0       0       0       0       0       0       0       
      +0       0       0       0       0       0       0       0       0       0       0       0       0       0       0       
      +0       0       0       0       0       0
  7830 ;;      Locals:         4       0       0       0       0       0       0       0       0       0       0       0       
      +0       0       0       0       0       0       0       0       0       0       0       0       0       0       0       
      +0       0       0       0       0       0
  7831 ;;      Temps:          0       0       0       0       0       0       0       0       0       0       0       0       
      +0       0       0       0       0       0       0       0       0       0       0       0       0       0       0       
      +0       0       0       0       0       0
  7832 ;;      Totals:         7       0       0       0       0       0       0       0       0       0       0       0       
      +0       0       0       0       0       0       0       0       0       0       0       0       0       0       0       
      +0       0       0       0       0       0
  7833 ;;Total ram usage:        7 bytes
  7834 ;; Hardware stack levels used:    1
  7835 ;; Hardware stack levels required when called:    4
  7836 ;; This function calls:
  7837 ;;		_I2C1Write
  7838 ;; This function is called by:
  7839 ;;		_IOExpUpdateAll
  7840 ;; This function uses a non-reentrant model
  7841 ;;
  7842                           
  7843                           	psect	text40
  7844  00436C                     __ptext40:
  7845                           	callstack 0
  7846  00436C                     _IOExpWriteDir:
  7847                           	callstack 23
  7848  00436C                     
  7849                           ;/home/dev-user/Projects/Personal/PIC/LibMisc.X/IOExp_PCA9539A.c: 119: STATUS_T IOExpWri
      +                          teDir(IOEXP_PCA9539_T *ioexp_inst, enum IOEXP_PORTENUM portSel);/home/dev-user/Projects/
      +                          Personal/PIC/LibMisc.X/IOExp_PCA9539A.c: 120: {;/home/dev-user/Projects/Personal/PIC/Lib
      +                          Misc.X/IOExp_PCA9539A.c: 121:     uint8_t wrtCnt = 2;
  7850  00436C  0E02               	movlw	2
  7851  00436E  6E1A               	movwf	IOExpWriteDir@wrtCnt^0,c
  7852                           
  7853                           ;/home/dev-user/Projects/Personal/PIC/LibMisc.X/IOExp_PCA9539A.c: 122:     uint8_t intAd
      +                          dr = 0x06;
  7854  004370  0E06               	movlw	6
  7855  004372  6E17               	movwf	IOExpWriteDir@intAddr^0,c
  7856  004374                     
  7857                           ;/home/dev-user/Projects/Personal/PIC/LibMisc.X/IOExp_PCA9539A.c: 123:     uint8_t datVa
      +                          ls[2];;/home/dev-user/Projects/Personal/PIC/LibMisc.X/IOExp_PCA9539A.c: 124:     datVals
      +                          [0] = ioexp_inst->P0Dir.val;
  7858  004374  EE20 F004          	lfsr	2,4
  7859  004378  5014               	movf	IOExpWriteDir@ioexp_inst^0,w,c
  7860  00437A  26D9               	addwf	fsr2l,f,c
  7861  00437C  5015               	movf	(IOExpWriteDir@ioexp_inst+1)^0,w,c
  7862  00437E  22DA               	addwfc	fsr2h,f,c
  7863  004380  50DF               	movf	indf2,w,c
  7864  004382  6E18               	movwf	IOExpWriteDir@datVals^0,c
  7865  004384                     
  7866                           ;/home/dev-user/Projects/Personal/PIC/LibMisc.X/IOExp_PCA9539A.c: 125:     datVals[1] = 
      +                          ioexp_inst->P1Dir.val;
  7867  004384  EE20 F008          	lfsr	2,8
  7868  004388  5014               	movf	IOExpWriteDir@ioexp_inst^0,w,c
  7869  00438A  26D9               	addwf	fsr2l,f,c
  7870  00438C  5015               	movf	(IOExpWriteDir@ioexp_inst+1)^0,w,c
  7871  00438E  22DA               	addwfc	fsr2h,f,c
  7872  004390  50DF               	movf	indf2,w,c
  7873  004392  6E19               	movwf	(IOExpWriteDir@datVals+1)^0,c
  7874  004394                     
  7875                           ;/home/dev-user/Projects/Personal/PIC/LibMisc.X/IOExp_PCA9539A.c: 127:     if(portSel ==
      +                           P1){
  7876  004394  0416               	decf	IOExpWriteDir@portSel^0,w,c
  7877  004396  A4D8               	btfss	status,2,c
  7878  004398  EFD0  F021         	goto	u5111
  7879  00439C  EFD2  F021         	goto	u5110
  7880  0043A0                     u5111:
  7881  0043A0  EFDE  F021         	goto	l5599
  7882  0043A4                     u5110:
  7883  0043A4                     
  7884                           ;/home/dev-user/Projects/Personal/PIC/LibMisc.X/IOExp_PCA9539A.c: 128:         intAddr =
      +                           0x07;
  7885  0043A4  0E07               	movlw	7
  7886  0043A6  6E17               	movwf	IOExpWriteDir@intAddr^0,c
  7887  0043A8                     
  7888                           ;/home/dev-user/Projects/Personal/PIC/LibMisc.X/IOExp_PCA9539A.c: 129:         datVals[0
      +                          ] = ioexp_inst->P1Dir.val;
  7889  0043A8  EE20 F008          	lfsr	2,8
  7890  0043AC  5014               	movf	IOExpWriteDir@ioexp_inst^0,w,c
  7891  0043AE  26D9               	addwf	fsr2l,f,c
  7892  0043B0  5015               	movf	(IOExpWriteDir@ioexp_inst+1)^0,w,c
  7893  0043B2  22DA               	addwfc	fsr2h,f,c
  7894  0043B4  50DF               	movf	indf2,w,c
  7895  0043B6  6E18               	movwf	IOExpWriteDir@datVals^0,c
  7896                           
  7897                           ;/home/dev-user/Projects/Personal/PIC/LibMisc.X/IOExp_PCA9539A.c: 130:     } else if(por
      +                          tSel == BOTH){
  7898  0043B8  EFE9  F021         	goto	l5603
  7899  0043BC                     l5599:
  7900  0043BC  0E02               	movlw	2
  7901  0043BE  1816               	xorwf	IOExpWriteDir@portSel^0,w,c
  7902  0043C0  A4D8               	btfss	status,2,c
  7903  0043C2  EFE5  F021         	goto	u5121
  7904  0043C6  EFE7  F021         	goto	u5120
  7905  0043CA                     u5121:
  7906  0043CA  EFE9  F021         	goto	l5603
  7907  0043CE                     u5120:
  7908  0043CE                     
  7909                           ;/home/dev-user/Projects/Personal/PIC/LibMisc.X/IOExp_PCA9539A.c: 131:         wrtCnt = 
      +                          3;
  7910  0043CE  0E03               	movlw	3
  7911  0043D0  6E1A               	movwf	IOExpWriteDir@wrtCnt^0,c
  7912  0043D2                     l5603:
  7913                           
  7914                           ;/home/dev-user/Projects/Personal/PIC/LibMisc.X/IOExp_PCA9539A.c: 143:     I2C1_buff_out
      +                          [0] = intAddr;
  7915  0043D2  C017  F100         	movff	IOExpWriteDir@intAddr,_I2C1_buff_out
  7916  0043D6                     
  7917                           ;/home/dev-user/Projects/Personal/PIC/LibMisc.X/IOExp_PCA9539A.c: 144:     I2C1_buff_out
      +                          [1] = datVals[0];
  7918  0043D6  C018  F101         	movff	IOExpWriteDir@datVals,_I2C1_buff_out+1
  7919  0043DA                     
  7920                           ;/home/dev-user/Projects/Personal/PIC/LibMisc.X/IOExp_PCA9539A.c: 145:     if(wrtCnt == 
      +                          3){
  7921  0043DA  0E03               	movlw	3
  7922  0043DC  181A               	xorwf	IOExpWriteDir@wrtCnt^0,w,c
  7923  0043DE  A4D8               	btfss	status,2,c
  7924  0043E0  EFF4  F021         	goto	u5131
  7925  0043E4  EFF6  F021         	goto	u5130
  7926  0043E8                     u5131:
  7927  0043E8  EFF8  F021         	goto	l5611
  7928  0043EC                     u5130:
  7929  0043EC                     
  7930                           ;/home/dev-user/Projects/Personal/PIC/LibMisc.X/IOExp_PCA9539A.c: 146:         I2C1_buff
      +                          _out[2] = datVals[1];
  7931  0043EC  C019  F102         	movff	IOExpWriteDir@datVals+1,_I2C1_buff_out+2
  7932  0043F0                     l5611:
  7933                           
  7934                           ;/home/dev-user/Projects/Personal/PIC/LibMisc.X/IOExp_PCA9539A.c: 148:     if(I2C1Write(
      +                          wrtCnt, ioexp_inst->Addr) == wrtCnt)
  7935  0043F0  0060  F053  FFD9   	movff	IOExpWriteDir@ioexp_inst,fsr2l
  7936  0043F6  0060  F057  FFDA   	movff	IOExpWriteDir@ioexp_inst+1,fsr2h
  7937  0043FC  50DF               	movf	indf2,w,c
  7938  0043FE  6E11               	movwf	I2C1Write@devAddr^0,c
  7939  004400  501A               	movf	IOExpWriteDir@wrtCnt^0,w,c
  7940  004402  EC6A  F025         	call	_I2C1Write
  7941  004406  181A               	xorwf	IOExpWriteDir@wrtCnt^0,w,c
  7942  004408  A4D8               	btfss	status,2,c
  7943  00440A  EF09  F022         	goto	u5141
  7944  00440E  EF0B  F022         	goto	u5140
  7945  004412                     u5141:
  7946  004412  EF0E  F022         	goto	l5617
  7947  004416                     u5140:
  7948  004416                     
  7949                           ;/home/dev-user/Projects/Personal/PIC/LibMisc.X/IOExp_PCA9539A.c: 149:         return ST
      +                          AT_SUCCESS;
  7950  004416  0E00               	movlw	0
  7951  004418  EF0F  F022         	goto	l978
  7952  00441C                     l5617:
  7953                           
  7954                           ;/home/dev-user/Projects/Personal/PIC/LibMisc.X/IOExp_PCA9539A.c: 152:     return STAT_F
      +                          AIL;
  7955  00441C  0EFE               	movlw	254
  7956  00441E                     l978:
  7957  00441E  0012               	return		;funcret
  7958  004420                     __end_of_IOExpWriteDir:
  7959                           	callstack 0
  7960                           
  7961 ;; *************** function _I2C1Setup *****************
  7962 ;; Defined at:
  7963 ;;		line 4 in file "/home/dev-user/Projects/Personal/PIC/LibPeripherals.X/i2c.c"
  7964 ;; Parameters:    Size  Location     Type
  7965 ;;  high_speed      1    wreg     _Bool 
  7966 ;; Auto vars:     Size  Location     Type
  7967 ;;  high_speed      1   43[COMRAM] _Bool 
  7968 ;; Return value:  Size  Location     Type
  7969 ;;                  1    wreg      enum E16287
  7970 ;; Registers used:
  7971 ;;		wreg, status,2, status,0, cstack
  7972 ;; Tracked objects:
  7973 ;;		On entry : 0/0
  7974 ;;		On exit  : 0/0
  7975 ;;		Unchanged: 0/0
  7976 ;; Data sizes:     COMRAM   BANK0   BANK1   BANK2   BANK3   BANK4   BANK5   BANK6   BANK7   BANK8   BANK9  BANK10  BANK1
      +1  BANK12  BANK13  BANK14  BANK15  BANK16  BANK17  BANK18  BANK19  BANK20  BANK21  BANK22  BANK23  BANK24  BANK25  BANK2
      +6  BANK27  BANK28  BANK29  BANK30  BANK31
  7977 ;;      Params:         0       0       0       0       0       0       0       0       0       0       0       0       
      +0       0       0       0       0       0       0       0       0       0       0       0       0       0       0       
      +0       0       0       0       0       0
  7978 ;;      Locals:         1       0       0       0       0       0       0       0       0       0       0       0       
      +0       0       0       0       0       0       0       0       0       0       0       0       0       0       0       
      +0       0       0       0       0       0
  7979 ;;      Temps:          0       0       0       0       0       0       0       0       0       0       0       0       
      +0       0       0       0       0       0       0       0       0       0       0       0       0       0       0       
      +0       0       0       0       0       0
  7980 ;;      Totals:         1       0       0       0       0       0       0       0       0       0       0       0       
      +0       0       0       0       0       0       0       0       0       0       0       0       0       0       0       
      +0       0       0       0       0       0
  7981 ;;Total ram usage:        1 bytes
  7982 ;; Hardware stack levels used:    1
  7983 ;; Hardware stack levels required when called:    5
  7984 ;; This function calls:
  7985 ;;		_I2C1Disable
  7986 ;;		_Tmr6Enable
  7987 ;;		_Tmr6Setup
  7988 ;; This function is called by:
  7989 ;;		_IOExpSetup
  7990 ;; This function uses a non-reentrant model
  7991 ;;
  7992                           
  7993                           	psect	text41
  7994  0044D4                     __ptext41:
  7995                           	callstack 0
  7996  0044D4                     _I2C1Setup:
  7997                           	callstack 23
  7998                           
  7999                           ;incstack = 0
  8000                           ;I2C1Setup@high_speed stored from wreg
  8001  0044D4  6E2C               	movwf	I2C1Setup@high_speed^0,c
  8002  0044D6                     
  8003                           ;/home/dev-user/Projects/Personal/PIC/LibPeripherals.X/i2c.c: 4: STATUS_T I2C1Setup(_Boo
      +                          l high_speed);/home/dev-user/Projects/Personal/PIC/LibPeripherals.X/i2c.c: 5: {;/home/de
      +                          v-user/Projects/Personal/PIC/LibPeripherals.X/i2c.c: 6:     I2C1Disable();
  8004  0044D6  ECB3  F027         	call	_I2C1Disable	;wreg free
  8005  0044DA                     
  8006                           ;/home/dev-user/Projects/Personal/PIC/LibPeripherals.X/i2c.c: 8:     RB4PPS = 0x21;
  8007  0044DA  0E21               	movlw	33
  8008  0044DC  013A               	movlb	58	; () banked
  8009  0044DE  6F0C               	movwf	12,b	;volatile
  8010  0044E0                     
  8011                           ; BSR set to: 58
  8012                           ;/home/dev-user/Projects/Personal/PIC/LibPeripherals.X/i2c.c: 9:     RB5PPS = 0x22;
  8013  0044E0  0E22               	movlw	34
  8014  0044E2  6F0D               	movwf	13,b	;volatile
  8015  0044E4                     
  8016                           ; BSR set to: 58
  8017                           ;/home/dev-user/Projects/Personal/PIC/LibPeripherals.X/i2c.c: 10:     I2C1SCLPPS = 0x0C;
  8018  0044E4  0E0C               	movlw	12
  8019  0044E6  6FE1               	movwf	225,b	;volatile
  8020  0044E8                     
  8021                           ; BSR set to: 58
  8022                           ;/home/dev-user/Projects/Personal/PIC/LibPeripherals.X/i2c.c: 11:     I2C1SDAPPS = 0x0D;
  8023  0044E8  0E0D               	movlw	13
  8024  0044EA  6FE2               	movwf	226,b	;volatile
  8025  0044EC                     
  8026                           ; BSR set to: 58
  8027                           ;/home/dev-user/Projects/Personal/PIC/LibPeripherals.X/i2c.c: 12:     ODCONBbits.ODCB4 =
      +                           1;
  8028  0044EC  8952               	bsf	82,4,b	;volatile
  8029  0044EE                     
  8030                           ; BSR set to: 58
  8031                           ;/home/dev-user/Projects/Personal/PIC/LibPeripherals.X/i2c.c: 13:     ODCONBbits.ODCB5 =
      +                           1;
  8032  0044EE  8B52               	bsf	82,5,b	;volatile
  8033  0044F0                     
  8034                           ; BSR set to: 58
  8035                           ;/home/dev-user/Projects/Personal/PIC/LibPeripherals.X/i2c.c: 14:     TRISBbits.TRISB4 =
      +                           0;
  8036  0044F0  98C3               	bcf	195,4,c	;volatile
  8037  0044F2                     
  8038                           ; BSR set to: 58
  8039                           ;/home/dev-user/Projects/Personal/PIC/LibPeripherals.X/i2c.c: 15:     TRISBbits.TRISB5 =
      +                           0;
  8040  0044F2  9AC3               	bcf	195,5,c	;volatile
  8041  0044F4                     
  8042                           ; BSR set to: 58
  8043                           ;/home/dev-user/Projects/Personal/PIC/LibPeripherals.X/i2c.c: 17:     I2C1CON0 = 0x04;
  8044  0044F4  0E04               	movlw	4
  8045  0044F6  013D               	movlb	61	; () banked
  8046  0044F8  6F73               	movwf	115,b	;volatile
  8047  0044FA                     
  8048                           ; BSR set to: 61
  8049                           ;/home/dev-user/Projects/Personal/PIC/LibPeripherals.X/i2c.c: 18:     I2C1CON1 = 0x80;
  8050  0044FA  0E80               	movlw	128
  8051  0044FC  6F74               	movwf	116,b	;volatile
  8052  0044FE                     
  8053                           ; BSR set to: 61
  8054                           ;/home/dev-user/Projects/Personal/PIC/LibPeripherals.X/i2c.c: 19:     I2C1CON2 = 0x08;
  8055  0044FE  0E08               	movlw	8
  8056  004500  6F75               	movwf	117,b	;volatile
  8057  004502                     
  8058                           ; BSR set to: 61
  8059                           ;/home/dev-user/Projects/Personal/PIC/LibPeripherals.X/i2c.c: 20:     I2C1CLK = 0x08;
  8060  004502  0E08               	movlw	8
  8061  004504  6F7B               	movwf	123,b	;volatile
  8062  004506                     
  8063                           ; BSR set to: 61
  8064                           ;/home/dev-user/Projects/Personal/PIC/LibPeripherals.X/i2c.c: 22:     I2C1_use_highspeed
      +                           = high_speed;
  8065  004506  C02C  F0C4         	movff	I2C1Setup@high_speed,_I2C1_use_highspeed
  8066  00450A                     
  8067                           ; BSR set to: 61
  8068                           ;/home/dev-user/Projects/Personal/PIC/LibPeripherals.X/i2c.c: 23:     if(high_speed){
  8069  00450A  502C               	movf	I2C1Setup@high_speed^0,w,c
  8070  00450C  B4D8               	btfsc	status,2,c
  8071  00450E  EF8B  F022         	goto	u5851
  8072  004512  EF8D  F022         	goto	u5850
  8073  004516                     u5851:
  8074  004516  EFA8  F022         	goto	l6021
  8075  00451A                     u5850:
  8076  00451A                     
  8077                           ; BSR set to: 61
  8078                           ;/home/dev-user/Projects/Personal/PIC/LibPeripherals.X/i2c.c: 24:         if(Tmr6Setup(2
      +                          000000,0) == STAT_SUCCESS){
  8079  00451A  0E80               	movlw	128
  8080  00451C  6E1E               	movwf	Tmr6Setup@tmr_freq^0,c
  8081  00451E  0E84               	movlw	132
  8082  004520  6E1F               	movwf	(Tmr6Setup@tmr_freq+1)^0,c
  8083  004522  0E1E               	movlw	30
  8084  004524  6E20               	movwf	(Tmr6Setup@tmr_freq+2)^0,c
  8085  004526  0E00               	movlw	0
  8086  004528  6E21               	movwf	(Tmr6Setup@tmr_freq+3)^0,c
  8087  00452A  0E00               	movlw	0
  8088  00452C  6E22               	movwf	Tmr6Setup@use_int^0,c
  8089  00452E  EC67  F01F         	call	_Tmr6Setup	;wreg free
  8090  004532  0900               	iorlw	0
  8091  004534  A4D8               	btfss	status,2,c
  8092  004536  EF9F  F022         	goto	u5861
  8093  00453A  EFA1  F022         	goto	u5860
  8094  00453E                     u5861:
  8095  00453E  EFA5  F022         	goto	l6017
  8096  004542                     u5860:
  8097  004542                     l6015:
  8098                           
  8099                           ;/home/dev-user/Projects/Personal/PIC/LibPeripherals.X/i2c.c: 25:             Tmr6Enable
      +                          ();
  8100  004542  ECBF  F027         	call	_Tmr6Enable	;wreg free
  8101                           
  8102                           ;/home/dev-user/Projects/Personal/PIC/LibPeripherals.X/i2c.c: 26:         } else return 
      +                          STAT_FAIL;
  8103  004546  EFBE  F022         	goto	l6029
  8104  00454A                     l6017:
  8105  00454A  0EFE               	movlw	254
  8106  00454C  EFBF  F022         	goto	l1104
  8107  004550                     l6021:
  8108                           
  8109                           ; BSR set to: 61
  8110                           ;/home/dev-user/Projects/Personal/PIC/LibPeripherals.X/i2c.c: 28:         if(Tmr6Setup(5
      +                          00000,0) == STAT_SUCCESS){
  8111  004550  0E20               	movlw	32
  8112  004552  6E1E               	movwf	Tmr6Setup@tmr_freq^0,c
  8113  004554  0EA1               	movlw	161
  8114  004556  6E1F               	movwf	(Tmr6Setup@tmr_freq+1)^0,c
  8115  004558  0E07               	movlw	7
  8116  00455A  6E20               	movwf	(Tmr6Setup@tmr_freq+2)^0,c
  8117  00455C  0E00               	movlw	0
  8118  00455E  6E21               	movwf	(Tmr6Setup@tmr_freq+3)^0,c
  8119  004560  0E00               	movlw	0
  8120  004562  6E22               	movwf	Tmr6Setup@use_int^0,c
  8121  004564  EC67  F01F         	call	_Tmr6Setup	;wreg free
  8122  004568  0900               	iorlw	0
  8123  00456A  A4D8               	btfss	status,2,c
  8124  00456C  EFBA  F022         	goto	u5871
  8125  004570  EFBC  F022         	goto	u5870
  8126  004574                     u5871:
  8127  004574  EFA5  F022         	goto	l6017
  8128  004578                     u5870:
  8129  004578  EFA1  F022         	goto	l6015
  8130  00457C                     l6029:
  8131                           
  8132                           ;/home/dev-user/Projects/Personal/PIC/LibPeripherals.X/i2c.c: 33:     return STAT_SUCCES
      +                          S;
  8133  00457C  0E00               	movlw	0
  8134  00457E                     l1104:
  8135  00457E  0012               	return		;funcret
  8136  004580                     __end_of_I2C1Setup:
  8137                           	callstack 0
  8138                           
  8139 ;; *************** function _Tmr6Setup *****************
  8140 ;; Defined at:
  8141 ;;		line 272 in file "/home/dev-user/Projects/Personal/PIC/LibPeripherals.X/timers.c"
  8142 ;; Parameters:    Size  Location     Type
  8143 ;;  tmr_freq        4   29[COMRAM] unsigned long 
  8144 ;;  use_int         1   33[COMRAM] _Bool 
  8145 ;; Auto vars:     Size  Location     Type
  8146 ;;  regVal          4   39[COMRAM] unsigned long 
  8147 ;;  prescalarVal    1   38[COMRAM] unsigned char 
  8148 ;; Return value:  Size  Location     Type
  8149 ;;                  1    wreg      enum E16287
  8150 ;; Registers used:
  8151 ;;		wreg, status,2, status,0, cstack
  8152 ;; Tracked objects:
  8153 ;;		On entry : 0/0
  8154 ;;		On exit  : 0/0
  8155 ;;		Unchanged: 0/0
  8156 ;; Data sizes:     COMRAM   BANK0   BANK1   BANK2   BANK3   BANK4   BANK5   BANK6   BANK7   BANK8   BANK9  BANK10  BANK1
      +1  BANK12  BANK13  BANK14  BANK15  BANK16  BANK17  BANK18  BANK19  BANK20  BANK21  BANK22  BANK23  BANK24  BANK25  BANK2
      +6  BANK27  BANK28  BANK29  BANK30  BANK31
  8157 ;;      Params:         5       0       0       0       0       0       0       0       0       0       0       0       
      +0       0       0       0       0       0       0       0       0       0       0       0       0       0       0       
      +0       0       0       0       0       0
  8158 ;;      Locals:         5       0       0       0       0       0       0       0       0       0       0       0       
      +0       0       0       0       0       0       0       0       0       0       0       0       0       0       0       
      +0       0       0       0       0       0
  8159 ;;      Temps:          4       0       0       0       0       0       0       0       0       0       0       0       
      +0       0       0       0       0       0       0       0       0       0       0       0       0       0       0       
      +0       0       0       0       0       0
  8160 ;;      Totals:        14       0       0       0       0       0       0       0       0       0       0       0       
      +0       0       0       0       0       0       0       0       0       0       0       0       0       0       0       
      +0       0       0       0       0       0
  8161 ;;Total ram usage:       14 bytes
  8162 ;; Hardware stack levels used:    1
  8163 ;; Hardware stack levels required when called:    4
  8164 ;; This function calls:
  8165 ;;		_Tmr6Disable
  8166 ;;		___lldiv
  8167 ;; This function is called by:
  8168 ;;		_I2C1Setup
  8169 ;; This function uses a non-reentrant model
  8170 ;;
  8171                           
  8172                           	psect	text42
  8173  003ECE                     __ptext42:
  8174                           	callstack 0
  8175  003ECE                     _Tmr6Setup:
  8176                           	callstack 23
  8177  003ECE                     
  8178                           ;/home/dev-user/Projects/Personal/PIC/LibPeripherals.X/timers.c: 272: STATUS_T Tmr6Setup
      +                          (uint32_t tmr_freq, _Bool use_int);/home/dev-user/Projects/Personal/PIC/LibPeripherals.X
      +                          /timers.c: 273: {;/home/dev-user/Projects/Personal/PIC/LibPeripherals.X/timers.c: 274:  
      +                             Tmr6Disable();
  8179  003ECE  ECC1  F027         	call	_Tmr6Disable	;wreg free
  8180  003ED2                     
  8181                           ;/home/dev-user/Projects/Personal/PIC/LibPeripherals.X/timers.c: 275:     T6CLKCON = 0x0
      +                          1;
  8182  003ED2  0E01               	movlw	1
  8183  003ED4  6E96               	movwf	150,c	;volatile
  8184  003ED6                     
  8185                           ;/home/dev-user/Projects/Personal/PIC/LibPeripherals.X/timers.c: 276:     T6HLT = 0x00;
  8186  003ED6  0E00               	movlw	0
  8187  003ED8  6E95               	movwf	149,c	;volatile
  8188  003EDA                     
  8189                           ;/home/dev-user/Projects/Personal/PIC/LibPeripherals.X/timers.c: 279:     uint8_t presca
      +                          larVal = 0;
  8190  003EDA  0E00               	movlw	0
  8191  003EDC  6E27               	movwf	Tmr6Setup@prescalarVal^0,c
  8192  003EDE                     
  8193                           ;/home/dev-user/Projects/Personal/PIC/LibPeripherals.X/timers.c: 280:     uint32_t regVa
      +                          l = 64000000/4;
  8194  003EDE  0E00               	movlw	0
  8195  003EE0  6E28               	movwf	Tmr6Setup@regVal^0,c
  8196  003EE2  0E24               	movlw	36
  8197  003EE4  6E29               	movwf	(Tmr6Setup@regVal+1)^0,c
  8198  003EE6  0EF4               	movlw	244
  8199  003EE8  6E2A               	movwf	(Tmr6Setup@regVal+2)^0,c
  8200  003EEA  0E00               	movlw	0
  8201  003EEC  6E2B               	movwf	(Tmr6Setup@regVal+3)^0,c
  8202  003EEE                     
  8203                           ;/home/dev-user/Projects/Personal/PIC/LibPeripherals.X/timers.c: 281:     regVal = regVa
      +                          l / tmr_freq;
  8204  003EEE  C028  F011         	movff	Tmr6Setup@regVal,___lldiv@dividend
  8205  003EF2  C029  F012         	movff	Tmr6Setup@regVal+1,___lldiv@dividend+1
  8206  003EF6  C02A  F013         	movff	Tmr6Setup@regVal+2,___lldiv@dividend+2
  8207  003EFA  C02B  F014         	movff	Tmr6Setup@regVal+3,___lldiv@dividend+3
  8208  003EFE  C01E  F015         	movff	Tmr6Setup@tmr_freq,___lldiv@divisor
  8209  003F02  C01F  F016         	movff	Tmr6Setup@tmr_freq+1,___lldiv@divisor+1
  8210  003F06  C020  F017         	movff	Tmr6Setup@tmr_freq+2,___lldiv@divisor+2
  8211  003F0A  C021  F018         	movff	Tmr6Setup@tmr_freq+3,___lldiv@divisor+3
  8212  003F0E  ECC0  F022         	call	___lldiv	;wreg free
  8213  003F12  C011  F028         	movff	?___lldiv,Tmr6Setup@regVal
  8214  003F16  C012  F029         	movff	?___lldiv+1,Tmr6Setup@regVal+1
  8215  003F1A  C013  F02A         	movff	?___lldiv+2,Tmr6Setup@regVal+2
  8216  003F1E  C014  F02B         	movff	?___lldiv+3,Tmr6Setup@regVal+3
  8217                           
  8218                           ;/home/dev-user/Projects/Personal/PIC/LibPeripherals.X/timers.c: 282:     while(regVal >
      +                           255){
  8219  003F22  EFB4  F01F         	goto	l5505
  8220  003F26                     l5497:
  8221                           
  8222                           ;/home/dev-user/Projects/Personal/PIC/LibPeripherals.X/timers.c: 283:         regVal = r
      +                          egVal >> 1;
  8223  003F26  C028  F023         	movff	Tmr6Setup@regVal,??_Tmr6Setup
  8224  003F2A  C029  F024         	movff	Tmr6Setup@regVal+1,??_Tmr6Setup+1
  8225  003F2E  C02A  F025         	movff	Tmr6Setup@regVal+2,??_Tmr6Setup+2
  8226  003F32  C02B  F026         	movff	Tmr6Setup@regVal+3,??_Tmr6Setup+3
  8227  003F36  90D8               	bcf	status,0,c
  8228  003F38  3226               	rrcf	(??_Tmr6Setup+3)^0,f,c
  8229  003F3A  3225               	rrcf	(??_Tmr6Setup+2)^0,f,c
  8230  003F3C  3224               	rrcf	(??_Tmr6Setup+1)^0,f,c
  8231  003F3E  3223               	rrcf	??_Tmr6Setup^0,f,c
  8232  003F40  C023  F028         	movff	??_Tmr6Setup,Tmr6Setup@regVal
  8233  003F44  C024  F029         	movff	??_Tmr6Setup+1,Tmr6Setup@regVal+1
  8234  003F48  C025  F02A         	movff	??_Tmr6Setup+2,Tmr6Setup@regVal+2
  8235  003F4C  C026  F02B         	movff	??_Tmr6Setup+3,Tmr6Setup@regVal+3
  8236                           
  8237                           ;/home/dev-user/Projects/Personal/PIC/LibPeripherals.X/timers.c: 284:         prescalarV
      +                          al++;
  8238  003F50  2A27               	incf	Tmr6Setup@prescalarVal^0,f,c
  8239  003F52                     
  8240                           ;/home/dev-user/Projects/Personal/PIC/LibPeripherals.X/timers.c: 285:         if(prescal
      +                          arVal > 7){
  8241  003F52  0E07               	movlw	7
  8242  003F54  6427               	cpfsgt	Tmr6Setup@prescalarVal^0,c
  8243  003F56  EFAF  F01F         	goto	u5001
  8244  003F5A  EFB1  F01F         	goto	u5000
  8245  003F5E                     u5001:
  8246  003F5E  EFB4  F01F         	goto	l5505
  8247  003F62                     u5000:
  8248  003F62                     
  8249                           ;/home/dev-user/Projects/Personal/PIC/LibPeripherals.X/timers.c: 286:             return
      +                           STAT_FAIL;
  8250  003F62  0EFE               	movlw	254
  8251  003F64  EFD2  F01F         	goto	l462
  8252  003F68                     l5505:
  8253                           
  8254                           ;/home/dev-user/Projects/Personal/PIC/LibPeripherals.X/timers.c: 282:     while(regVal >
      +                           255){
  8255  003F68  502B               	movf	(Tmr6Setup@regVal+3)^0,w,c
  8256  003F6A  102A               	iorwf	(Tmr6Setup@regVal+2)^0,w,c
  8257  003F6C  E106               	bnz	u5011
  8258  003F6E  0429               	decf	(Tmr6Setup@regVal+1)^0,w,c
  8259  003F70  B0D8               	btfsc	status,0,c
  8260  003F72  EFBD  F01F         	goto	u5011
  8261  003F76  EFBF  F01F         	goto	u5010
  8262  003F7A                     u5011:
  8263  003F7A  EF93  F01F         	goto	l5497
  8264  003F7E                     u5010:
  8265  003F7E                     
  8266                           ;/home/dev-user/Projects/Personal/PIC/LibPeripherals.X/timers.c: 289:     T6PR = regVal-
      +                          1;
  8267  003F7E  0428               	decf	Tmr6Setup@regVal^0,w,c
  8268  003F80  6E93               	movwf	147,c	;volatile
  8269                           
  8270                           ;/home/dev-user/Projects/Personal/PIC/LibPeripherals.X/timers.c: 290:     prescalarVal =
      +                           prescalarVal << 4;
  8271  003F82  3827               	swapf	Tmr6Setup@prescalarVal^0,w,c
  8272  003F84  0BF0               	andlw	240
  8273  003F86  6E27               	movwf	Tmr6Setup@prescalarVal^0,c
  8274                           
  8275                           ;/home/dev-user/Projects/Personal/PIC/LibPeripherals.X/timers.c: 291:     T6CON |= presc
      +                          alarVal;
  8276  003F88  5027               	movf	Tmr6Setup@prescalarVal^0,w,c	;volatile
  8277  003F8A  1294               	iorwf	148,f,c	;volatile
  8278  003F8C                     
  8279                           ;/home/dev-user/Projects/Personal/PIC/LibPeripherals.X/timers.c: 293:     if(use_int){
  8280  003F8C  5022               	movf	Tmr6Setup@use_int^0,w,c
  8281  003F8E  B4D8               	btfsc	status,2,c
  8282  003F90  EFCC  F01F         	goto	u5021
  8283  003F94  EFCE  F01F         	goto	u5020
  8284  003F98                     u5021:
  8285  003F98  EFD1  F01F         	goto	l5513
  8286  003F9C                     u5020:
  8287  003F9C                     
  8288                           ;/home/dev-user/Projects/Personal/PIC/LibPeripherals.X/timers.c: 294:         TMR6IF = 0
      +                          ;
  8289  003F9C  0139               	movlb	57	; () banked
  8290  003F9E  91A9               	bcf	169,0,b	;volatile
  8291                           
  8292                           ;/home/dev-user/Projects/Personal/PIC/LibPeripherals.X/timers.c: 295:         TMR6IE = 1
      +                          ;
  8293  003FA0  8199               	bsf	153,0,b	;volatile
  8294  003FA2                     l5513:
  8295                           
  8296                           ;/home/dev-user/Projects/Personal/PIC/LibPeripherals.X/timers.c: 298:     return STAT_SU
      +                          CCESS;
  8297  003FA2  0E00               	movlw	0
  8298  003FA4                     l462:
  8299  003FA4  0012               	return		;funcret
  8300  003FA6                     __end_of_Tmr6Setup:
  8301                           	callstack 0
  8302                           
  8303 ;; *************** function ___lldiv *****************
  8304 ;; Defined at:
  8305 ;;		line 7 in file "/opt/microchip/xc8/v2.30/pic/sources/c99/common/__lldiv.c"
  8306 ;; Parameters:    Size  Location     Type
  8307 ;;  dividend        4   16[COMRAM] unsigned long 
  8308 ;;  divisor         4   20[COMRAM] unsigned long 
  8309 ;; Auto vars:     Size  Location     Type
  8310 ;;  quotient        4   24[COMRAM] unsigned long 
  8311 ;;  counter         1   28[COMRAM] unsigned char 
  8312 ;; Return value:  Size  Location     Type
  8313 ;;                  4   16[COMRAM] unsigned long 
  8314 ;; Registers used:
  8315 ;;		wreg, status,2, status,0
  8316 ;; Tracked objects:
  8317 ;;		On entry : 0/0
  8318 ;;		On exit  : 0/0
  8319 ;;		Unchanged: 0/0
  8320 ;; Data sizes:     COMRAM   BANK0   BANK1   BANK2   BANK3   BANK4   BANK5   BANK6   BANK7   BANK8   BANK9  BANK10  BANK1
      +1  BANK12  BANK13  BANK14  BANK15  BANK16  BANK17  BANK18  BANK19  BANK20  BANK21  BANK22  BANK23  BANK24  BANK25  BANK2
      +6  BANK27  BANK28  BANK29  BANK30  BANK31
  8321 ;;      Params:         8       0       0       0       0       0       0       0       0       0       0       0       
      +0       0       0       0       0       0       0       0       0       0       0       0       0       0       0       
      +0       0       0       0       0       0
  8322 ;;      Locals:         5       0       0       0       0       0       0       0       0       0       0       0       
      +0       0       0       0       0       0       0       0       0       0       0       0       0       0       0       
      +0       0       0       0       0       0
  8323 ;;      Temps:          0       0       0       0       0       0       0       0       0       0       0       0       
      +0       0       0       0       0       0       0       0       0       0       0       0       0       0       0       
      +0       0       0       0       0       0
  8324 ;;      Totals:        13       0       0       0       0       0       0       0       0       0       0       0       
      +0       0       0       0       0       0       0       0       0       0       0       0       0       0       0       
      +0       0       0       0       0       0
  8325 ;;Total ram usage:       13 bytes
  8326 ;; Hardware stack levels used:    1
  8327 ;; Hardware stack levels required when called:    3
  8328 ;; This function calls:
  8329 ;;		Nothing
  8330 ;; This function is called by:
  8331 ;;		_Tmr4Setup
  8332 ;;		_Tmr6Setup
  8333 ;;		_UART1Setup
  8334 ;; This function uses a non-reentrant model
  8335 ;;
  8336                           
  8337                           	psect	text43
  8338  004580                     __ptext43:
  8339                           	callstack 0
  8340  004580                     ___lldiv:
  8341                           	callstack 25
  8342  004580  0E00               	movlw	0
  8343  004582  6E19               	movwf	___lldiv@quotient^0,c
  8344  004584  0E00               	movlw	0
  8345  004586  6E1A               	movwf	(___lldiv@quotient+1)^0,c
  8346  004588  0E00               	movlw	0
  8347  00458A  6E1B               	movwf	(___lldiv@quotient+2)^0,c
  8348  00458C  0E00               	movlw	0
  8349  00458E  6E1C               	movwf	(___lldiv@quotient+3)^0,c
  8350  004590  5015               	movf	___lldiv@divisor^0,w,c
  8351  004592  1016               	iorwf	(___lldiv@divisor+1)^0,w,c
  8352  004594  1017               	iorwf	(___lldiv@divisor+2)^0,w,c
  8353  004596  1018               	iorwf	(___lldiv@divisor+3)^0,w,c
  8354  004598  B4D8               	btfsc	status,2,c
  8355  00459A  EFD1  F022         	goto	u4751
  8356  00459E  EFD3  F022         	goto	u4750
  8357  0045A2                     u4751:
  8358  0045A2  EF09  F023         	goto	l1192
  8359  0045A6                     u4750:
  8360  0045A6  0E01               	movlw	1
  8361  0045A8  6E1D               	movwf	___lldiv@counter^0,c
  8362  0045AA  EFDD  F022         	goto	l5377
  8363  0045AE                     l5375:
  8364  0045AE  90D8               	bcf	status,0,c
  8365  0045B0  3615               	rlcf	___lldiv@divisor^0,f,c
  8366  0045B2  3616               	rlcf	(___lldiv@divisor+1)^0,f,c
  8367  0045B4  3617               	rlcf	(___lldiv@divisor+2)^0,f,c
  8368  0045B6  3618               	rlcf	(___lldiv@divisor+3)^0,f,c
  8369  0045B8  2A1D               	incf	___lldiv@counter^0,f,c
  8370  0045BA                     l5377:
  8371  0045BA  AE18               	btfss	(___lldiv@divisor+3)^0,7,c
  8372  0045BC  EFE2  F022         	goto	u4761
  8373  0045C0  EFE4  F022         	goto	u4760
  8374  0045C4                     u4761:
  8375  0045C4  EFD7  F022         	goto	l5375
  8376  0045C8                     u4760:
  8377  0045C8                     l5379:
  8378  0045C8  90D8               	bcf	status,0,c
  8379  0045CA  3619               	rlcf	___lldiv@quotient^0,f,c
  8380  0045CC  361A               	rlcf	(___lldiv@quotient+1)^0,f,c
  8381  0045CE  361B               	rlcf	(___lldiv@quotient+2)^0,f,c
  8382  0045D0  361C               	rlcf	(___lldiv@quotient+3)^0,f,c
  8383  0045D2  5015               	movf	___lldiv@divisor^0,w,c
  8384  0045D4  5C11               	subwf	___lldiv@dividend^0,w,c
  8385  0045D6  5016               	movf	(___lldiv@divisor+1)^0,w,c
  8386  0045D8  5812               	subwfb	(___lldiv@dividend+1)^0,w,c
  8387  0045DA  5017               	movf	(___lldiv@divisor+2)^0,w,c
  8388  0045DC  5813               	subwfb	(___lldiv@dividend+2)^0,w,c
  8389  0045DE  5018               	movf	(___lldiv@divisor+3)^0,w,c
  8390  0045E0  5814               	subwfb	(___lldiv@dividend+3)^0,w,c
  8391  0045E2  A0D8               	btfss	status,0,c
  8392  0045E4  EFF6  F022         	goto	u4771
  8393  0045E8  EFF8  F022         	goto	u4770
  8394  0045EC                     u4771:
  8395  0045EC  EF01  F023         	goto	l5387
  8396  0045F0                     u4770:
  8397  0045F0  5015               	movf	___lldiv@divisor^0,w,c
  8398  0045F2  5E11               	subwf	___lldiv@dividend^0,f,c
  8399  0045F4  5016               	movf	(___lldiv@divisor+1)^0,w,c
  8400  0045F6  5A12               	subwfb	(___lldiv@dividend+1)^0,f,c
  8401  0045F8  5017               	movf	(___lldiv@divisor+2)^0,w,c
  8402  0045FA  5A13               	subwfb	(___lldiv@dividend+2)^0,f,c
  8403  0045FC  5018               	movf	(___lldiv@divisor+3)^0,w,c
  8404  0045FE  5A14               	subwfb	(___lldiv@dividend+3)^0,f,c
  8405  004600  8019               	bsf	___lldiv@quotient^0,0,c
  8406  004602                     l5387:
  8407  004602  90D8               	bcf	status,0,c
  8408  004604  3218               	rrcf	(___lldiv@divisor+3)^0,f,c
  8409  004606  3217               	rrcf	(___lldiv@divisor+2)^0,f,c
  8410  004608  3216               	rrcf	(___lldiv@divisor+1)^0,f,c
  8411  00460A  3215               	rrcf	___lldiv@divisor^0,f,c
  8412  00460C  2E1D               	decfsz	___lldiv@counter^0,f,c
  8413  00460E  EFE4  F022         	goto	l5379
  8414  004612                     l1192:
  8415  004612  C019  F011         	movff	___lldiv@quotient,?___lldiv
  8416  004616  C01A  F012         	movff	___lldiv@quotient+1,?___lldiv+1
  8417  00461A  C01B  F013         	movff	___lldiv@quotient+2,?___lldiv+2
  8418  00461E  C01C  F014         	movff	___lldiv@quotient+3,?___lldiv+3
  8419  004622  0012               	return		;funcret
  8420  004624                     __end_of___lldiv:
  8421                           	callstack 0
  8422                           
  8423 ;; *************** function _Tmr6Enable *****************
  8424 ;; Defined at:
  8425 ;;		line 301 in file "/home/dev-user/Projects/Personal/PIC/LibPeripherals.X/timers.c"
  8426 ;; Parameters:    Size  Location     Type
  8427 ;;		None
  8428 ;; Auto vars:     Size  Location     Type
  8429 ;;		None
  8430 ;; Return value:  Size  Location     Type
  8431 ;;                  1    wreg      void 
  8432 ;; Registers used:
  8433 ;;		None
  8434 ;; Tracked objects:
  8435 ;;		On entry : 0/0
  8436 ;;		On exit  : 0/0
  8437 ;;		Unchanged: 0/0
  8438 ;; Data sizes:     COMRAM   BANK0   BANK1   BANK2   BANK3   BANK4   BANK5   BANK6   BANK7   BANK8   BANK9  BANK10  BANK1
      +1  BANK12  BANK13  BANK14  BANK15  BANK16  BANK17  BANK18  BANK19  BANK20  BANK21  BANK22  BANK23  BANK24  BANK25  BANK2
      +6  BANK27  BANK28  BANK29  BANK30  BANK31
  8439 ;;      Params:         0       0       0       0       0       0       0       0       0       0       0       0       
      +0       0       0       0       0       0       0       0       0       0       0       0       0       0       0       
      +0       0       0       0       0       0
  8440 ;;      Locals:         0       0       0       0       0       0       0       0       0       0       0       0       
      +0       0       0       0       0       0       0       0       0       0       0       0       0       0       0       
      +0       0       0       0       0       0
  8441 ;;      Temps:          0       0       0       0       0       0       0       0       0       0       0       0       
      +0       0       0       0       0       0       0       0       0       0       0       0       0       0       0       
      +0       0       0       0       0       0
  8442 ;;      Totals:         0       0       0       0       0       0       0       0       0       0       0       0       
      +0       0       0       0       0       0       0       0       0       0       0       0       0       0       0       
      +0       0       0       0       0       0
  8443 ;;Total ram usage:        0 bytes
  8444 ;; Hardware stack levels used:    1
  8445 ;; Hardware stack levels required when called:    3
  8446 ;; This function calls:
  8447 ;;		Nothing
  8448 ;; This function is called by:
  8449 ;;		_I2C1Setup
  8450 ;; This function uses a non-reentrant model
  8451 ;;
  8452                           
  8453                           	psect	text44
  8454  004F7E                     __ptext44:
  8455                           	callstack 0
  8456  004F7E                     _Tmr6Enable:
  8457                           	callstack 24
  8458  004F7E                     
  8459                           ;/home/dev-user/Projects/Personal/PIC/LibPeripherals.X/timers.c: 303:     T6CONbits.ON =
      +                           1;
  8460  004F7E  8E94               	bsf	148,7,c	;volatile
  8461  004F80  0012               	return		;funcret
  8462  004F82                     __end_of_Tmr6Enable:
  8463                           	callstack 0
  8464                           
  8465 ;; *************** function _I2C1Disable *****************
  8466 ;; Defined at:
  8467 ;;		line 46 in file "/home/dev-user/Projects/Personal/PIC/LibPeripherals.X/i2c.c"
  8468 ;; Parameters:    Size  Location     Type
  8469 ;;		None
  8470 ;; Auto vars:     Size  Location     Type
  8471 ;;		None
  8472 ;; Return value:  Size  Location     Type
  8473 ;;                  1    wreg      enum E16287
  8474 ;; Registers used:
  8475 ;;		cstack
  8476 ;; Tracked objects:
  8477 ;;		On entry : 0/0
  8478 ;;		On exit  : 0/0
  8479 ;;		Unchanged: 0/0
  8480 ;; Data sizes:     COMRAM   BANK0   BANK1   BANK2   BANK3   BANK4   BANK5   BANK6   BANK7   BANK8   BANK9  BANK10  BANK1
      +1  BANK12  BANK13  BANK14  BANK15  BANK16  BANK17  BANK18  BANK19  BANK20  BANK21  BANK22  BANK23  BANK24  BANK25  BANK2
      +6  BANK27  BANK28  BANK29  BANK30  BANK31
  8481 ;;      Params:         0       0       0       0       0       0       0       0       0       0       0       0       
      +0       0       0       0       0       0       0       0       0       0       0       0       0       0       0       
      +0       0       0       0       0       0
  8482 ;;      Locals:         0       0       0       0       0       0       0       0       0       0       0       0       
      +0       0       0       0       0       0       0       0       0       0       0       0       0       0       0       
      +0       0       0       0       0       0
  8483 ;;      Temps:          0       0       0       0       0       0       0       0       0       0       0       0       
      +0       0       0       0       0       0       0       0       0       0       0       0       0       0       0       
      +0       0       0       0       0       0
  8484 ;;      Totals:         0       0       0       0       0       0       0       0       0       0       0       0       
      +0       0       0       0       0       0       0       0       0       0       0       0       0       0       0       
      +0       0       0       0       0       0
  8485 ;;Total ram usage:        0 bytes
  8486 ;; Hardware stack levels used:    1
  8487 ;; Hardware stack levels required when called:    4
  8488 ;; This function calls:
  8489 ;;		_Tmr6Disable
  8490 ;; This function is called by:
  8491 ;;		_I2C1Setup
  8492 ;; This function uses a non-reentrant model
  8493 ;;
  8494                           
  8495                           	psect	text45
  8496  004F66                     __ptext45:
  8497                           	callstack 0
  8498  004F66                     _I2C1Disable:
  8499                           	callstack 23
  8500  004F66                     
  8501                           ;/home/dev-user/Projects/Personal/PIC/LibPeripherals.X/i2c.c: 48:     I2C1CON0bits.EN = 
      +                          0;
  8502  004F66  013D               	movlb	61	; () banked
  8503  004F68  9F73               	bcf	115,7,b	;volatile
  8504  004F6A                     
  8505                           ; BSR set to: 61
  8506                           ;/home/dev-user/Projects/Personal/PIC/LibPeripherals.X/i2c.c: 49:     Tmr6Disable();
  8507  004F6A  ECC1  F027         	call	_Tmr6Disable	;wreg free
  8508  004F6E  0012               	return		;funcret
  8509  004F70                     __end_of_I2C1Disable:
  8510                           	callstack 0
  8511                           
  8512 ;; *************** function _Tmr6Disable *****************
  8513 ;; Defined at:
  8514 ;;		line 306 in file "/home/dev-user/Projects/Personal/PIC/LibPeripherals.X/timers.c"
  8515 ;; Parameters:    Size  Location     Type
  8516 ;;		None
  8517 ;; Auto vars:     Size  Location     Type
  8518 ;;		None
  8519 ;; Return value:  Size  Location     Type
  8520 ;;                  1    wreg      void 
  8521 ;; Registers used:
  8522 ;;		None
  8523 ;; Tracked objects:
  8524 ;;		On entry : 0/0
  8525 ;;		On exit  : 0/0
  8526 ;;		Unchanged: 0/0
  8527 ;; Data sizes:     COMRAM   BANK0   BANK1   BANK2   BANK3   BANK4   BANK5   BANK6   BANK7   BANK8   BANK9  BANK10  BANK1
      +1  BANK12  BANK13  BANK14  BANK15  BANK16  BANK17  BANK18  BANK19  BANK20  BANK21  BANK22  BANK23  BANK24  BANK25  BANK2
      +6  BANK27  BANK28  BANK29  BANK30  BANK31
  8528 ;;      Params:         0       0       0       0       0       0       0       0       0       0       0       0       
      +0       0       0       0       0       0       0       0       0       0       0       0       0       0       0       
      +0       0       0       0       0       0
  8529 ;;      Locals:         0       0       0       0       0       0       0       0       0       0       0       0       
      +0       0       0       0       0       0       0       0       0       0       0       0       0       0       0       
      +0       0       0       0       0       0
  8530 ;;      Temps:          0       0       0       0       0       0       0       0       0       0       0       0       
      +0       0       0       0       0       0       0       0       0       0       0       0       0       0       0       
      +0       0       0       0       0       0
  8531 ;;      Totals:         0       0       0       0       0       0       0       0       0       0       0       0       
      +0       0       0       0       0       0       0       0       0       0       0       0       0       0       0       
      +0       0       0       0       0       0
  8532 ;;Total ram usage:        0 bytes
  8533 ;; Hardware stack levels used:    1
  8534 ;; Hardware stack levels required when called:    3
  8535 ;; This function calls:
  8536 ;;		Nothing
  8537 ;; This function is called by:
  8538 ;;		_Tmr6Setup
  8539 ;;		_I2C1Disable
  8540 ;; This function uses a non-reentrant model
  8541 ;;
  8542                           
  8543                           	psect	text46
  8544  004F82                     __ptext46:
  8545                           	callstack 0
  8546  004F82                     _Tmr6Disable:
  8547                           	callstack 23
  8548  004F82                     
  8549                           ;/home/dev-user/Projects/Personal/PIC/LibPeripherals.X/timers.c: 308:     T6CONbits.ON =
      +                           0;
  8550  004F82  9E94               	bcf	148,7,c	;volatile
  8551  004F84  0012               	return		;funcret
  8552  004F86                     __end_of_Tmr6Disable:
  8553                           	callstack 0
  8554                           
  8555 ;; *************** function _I2C1Enable *****************
  8556 ;; Defined at:
  8557 ;;		line 36 in file "/home/dev-user/Projects/Personal/PIC/LibPeripherals.X/i2c.c"
  8558 ;; Parameters:    Size  Location     Type
  8559 ;;		None
  8560 ;; Auto vars:     Size  Location     Type
  8561 ;;		None
  8562 ;; Return value:  Size  Location     Type
  8563 ;;                  1    wreg      enum E16287
  8564 ;; Registers used:
  8565 ;;		None
  8566 ;; Tracked objects:
  8567 ;;		On entry : 0/0
  8568 ;;		On exit  : 0/0
  8569 ;;		Unchanged: 0/0
  8570 ;; Data sizes:     COMRAM   BANK0   BANK1   BANK2   BANK3   BANK4   BANK5   BANK6   BANK7   BANK8   BANK9  BANK10  BANK1
      +1  BANK12  BANK13  BANK14  BANK15  BANK16  BANK17  BANK18  BANK19  BANK20  BANK21  BANK22  BANK23  BANK24  BANK25  BANK2
      +6  BANK27  BANK28  BANK29  BANK30  BANK31
  8571 ;;      Params:         0       0       0       0       0       0       0       0       0       0       0       0       
      +0       0       0       0       0       0       0       0       0       0       0       0       0       0       0       
      +0       0       0       0       0       0
  8572 ;;      Locals:         0       0       0       0       0       0       0       0       0       0       0       0       
      +0       0       0       0       0       0       0       0       0       0       0       0       0       0       0       
      +0       0       0       0       0       0
  8573 ;;      Temps:          0       0       0       0       0       0       0       0       0       0       0       0       
      +0       0       0       0       0       0       0       0       0       0       0       0       0       0       0       
      +0       0       0       0       0       0
  8574 ;;      Totals:         0       0       0       0       0       0       0       0       0       0       0       0       
      +0       0       0       0       0       0       0       0       0       0       0       0       0       0       0       
      +0       0       0       0       0       0
  8575 ;;Total ram usage:        0 bytes
  8576 ;; Hardware stack levels used:    1
  8577 ;; Hardware stack levels required when called:    3
  8578 ;; This function calls:
  8579 ;;		Nothing
  8580 ;; This function is called by:
  8581 ;;		_IOExpSetup
  8582 ;; This function uses a non-reentrant model
  8583 ;;
  8584                           
  8585                           	psect	text47
  8586  004F70                     __ptext47:
  8587                           	callstack 0
  8588  004F70                     _I2C1Enable:
  8589                           	callstack 25
  8590  004F70                     
  8591                           ;/home/dev-user/Projects/Personal/PIC/LibPeripherals.X/i2c.c: 42:     I2C1CON0bits.EN = 
      +                          1;
  8592  004F70  013D               	movlb	61	; () banked
  8593  004F72  8F73               	bsf	115,7,b	;volatile
  8594  004F74                     
  8595                           ; BSR set to: 61
  8596  004F74  0012               	return		;funcret
  8597  004F76                     __end_of_I2C1Enable:
  8598                           	callstack 0
  8599                           
  8600 ;; *************** function _SetupClk *****************
  8601 ;; Defined at:
  8602 ;;		line 3 in file "/home/dev-user/Projects/Personal/PIC/PIC18Test1.X/System.c"
  8603 ;; Parameters:    Size  Location     Type
  8604 ;;		None
  8605 ;; Auto vars:     Size  Location     Type
  8606 ;;		None
  8607 ;; Return value:  Size  Location     Type
  8608 ;;                  1    wreg      void 
  8609 ;; Registers used:
  8610 ;;		wreg, status,2
  8611 ;; Tracked objects:
  8612 ;;		On entry : 0/0
  8613 ;;		On exit  : 0/0
  8614 ;;		Unchanged: 0/0
  8615 ;; Data sizes:     COMRAM   BANK0   BANK1   BANK2   BANK3   BANK4   BANK5   BANK6   BANK7   BANK8   BANK9  BANK10  BANK1
      +1  BANK12  BANK13  BANK14  BANK15  BANK16  BANK17  BANK18  BANK19  BANK20  BANK21  BANK22  BANK23  BANK24  BANK25  BANK2
      +6  BANK27  BANK28  BANK29  BANK30  BANK31
  8616 ;;      Params:         0       0       0       0       0       0       0       0       0       0       0       0       
      +0       0       0       0       0       0       0       0       0       0       0       0       0       0       0       
      +0       0       0       0       0       0
  8617 ;;      Locals:         0       0       0       0       0       0       0       0       0       0       0       0       
      +0       0       0       0       0       0       0       0       0       0       0       0       0       0       0       
      +0       0       0       0       0       0
  8618 ;;      Temps:          0       0       0       0       0       0       0       0       0       0       0       0       
      +0       0       0       0       0       0       0       0       0       0       0       0       0       0       0       
      +0       0       0       0       0       0
  8619 ;;      Totals:         0       0       0       0       0       0       0       0       0       0       0       0       
      +0       0       0       0       0       0       0       0       0       0       0       0       0       0       0       
      +0       0       0       0       0       0
  8620 ;;Total ram usage:        0 bytes
  8621 ;; Hardware stack levels used:    1
  8622 ;; Hardware stack levels required when called:    3
  8623 ;; This function calls:
  8624 ;;		Nothing
  8625 ;; This function is called by:
  8626 ;;		_main
  8627 ;; This function uses a non-reentrant model
  8628 ;;
  8629                           
  8630                           	psect	text48
  8631  004E68                     __ptext48:
  8632                           	callstack 0
  8633  004E68                     _SetupClk:
  8634                           	callstack 27
  8635  004E68                     
  8636                           ;/home/dev-user/Projects/Personal/PIC/PIC18Test1.X/System.c: 5:     OSCCON1 = 0x60;
  8637  004E68  0E60               	movlw	96
  8638  004E6A  0139               	movlb	57	; () banked
  8639  004E6C  6FD9               	movwf	217,b	;volatile
  8640  004E6E                     
  8641                           ; BSR set to: 57
  8642                           ;/home/dev-user/Projects/Personal/PIC/PIC18Test1.X/System.c: 9:         OSCFRQ = 0x08;
  8643  004E6E  0E08               	movlw	8
  8644  004E70  6FDF               	movwf	223,b	;volatile
  8645  004E72                     l97:
  8646                           
  8647                           ; BSR set to: 57
  8648  004E72  BDDC               	btfsc	220,6,b	;volatile
  8649  004E74  EF3E  F027         	goto	u6301
  8650  004E78  EF40  F027         	goto	u6300
  8651  004E7C                     u6301:
  8652  004E7C  EF47  F027         	goto	l102
  8653  004E80                     u6300:
  8654  004E80                     
  8655                           ; BSR set to: 57
  8656  004E80  A1DC               	btfss	220,0,b	;volatile
  8657  004E82  EF45  F027         	goto	u6311
  8658  004E86  EF47  F027         	goto	u6310
  8659  004E8A                     u6311:
  8660  004E8A  EF39  F027         	goto	l97
  8661  004E8E                     u6310:
  8662  004E8E                     l102:
  8663                           
  8664                           ; BSR set to: 57
  8665  004E8E  0012               	return		;funcret
  8666  004E90                     __end_of_SetupClk:
  8667                           	callstack 0
  8668                           
  8669 ;; *************** function _IOExpUpdateOut *****************
  8670 ;; Defined at:
  8671 ;;		line 94 in file "/home/dev-user/Projects/Personal/PIC/LibMisc.X/IOExp_PCA9539A.c"
  8672 ;; Parameters:    Size  Location     Type
  8673 ;;  ioexp_inst      2   26[COMRAM] PTR volatile struct .
  8674 ;;		 -> ioexp1(9), 
  8675 ;;  set_oval        2   28[COMRAM] unsigned short 
  8676 ;; Auto vars:     Size  Location     Type
  8677 ;;		None
  8678 ;; Return value:  Size  Location     Type
  8679 ;;                  1    wreg      enum E16361
  8680 ;; Registers used:
  8681 ;;		wreg, fsr2l, fsr2h, status,2, status,0, cstack
  8682 ;; Tracked objects:
  8683 ;;		On entry : 0/0
  8684 ;;		On exit  : 0/0
  8685 ;;		Unchanged: 0/0
  8686 ;; Data sizes:     COMRAM   BANK0   BANK1   BANK2   BANK3   BANK4   BANK5   BANK6   BANK7   BANK8   BANK9  BANK10  BANK1
      +1  BANK12  BANK13  BANK14  BANK15  BANK16  BANK17  BANK18  BANK19  BANK20  BANK21  BANK22  BANK23  BANK24  BANK25  BANK2
      +6  BANK27  BANK28  BANK29  BANK30  BANK31
  8687 ;;      Params:         4       0       0       0       0       0       0       0       0       0       0       0       
      +0       0       0       0       0       0       0       0       0       0       0       0       0       0       0       
      +0       0       0       0       0       0
  8688 ;;      Locals:         0       0       0       0       0       0       0       0       0       0       0       0       
      +0       0       0       0       0       0       0       0       0       0       0       0       0       0       0       
      +0       0       0       0       0       0
  8689 ;;      Temps:          0       0       0       0       0       0       0       0       0       0       0       0       
      +0       0       0       0       0       0       0       0       0       0       0       0       0       0       0       
      +0       0       0       0       0       0
  8690 ;;      Totals:         4       0       0       0       0       0       0       0       0       0       0       0       
      +0       0       0       0       0       0       0       0       0       0       0       0       0       0       0       
      +0       0       0       0       0       0
  8691 ;;Total ram usage:        4 bytes
  8692 ;; Hardware stack levels used:    1
  8693 ;; Hardware stack levels required when called:    5
  8694 ;; This function calls:
  8695 ;;		_IOExpWriteVal
  8696 ;; This function is called by:
  8697 ;;		_main
  8698 ;; This function uses a non-reentrant model
  8699 ;;
  8700                           
  8701                           	psect	text49
  8702  004E0A                     __ptext49:
  8703                           	callstack 0
  8704  004E0A                     _IOExpUpdateOut:
  8705                           	callstack 25
  8706  004E0A                     
  8707                           ;/home/dev-user/Projects/Personal/PIC/LibMisc.X/IOExp_PCA9539A.c: 94: STATUS_T IOExpUpda
      +                          teOut(IOEXP_PCA9539_T *ioexp_inst, uint16_t set_oval);/home/dev-user/Projects/Personal/P
      +                          IC/LibMisc.X/IOExp_PCA9539A.c: 95: {;/home/dev-user/Projects/Personal/PIC/LibMisc.X/IOEx
      +                          p_PCA9539A.c: 96:     ioexp_inst->P0OVal.val = set_oval & 0x00FF;
  8708  004E0A  EE20 F002          	lfsr	2,2
  8709  004E0E  501B               	movf	IOExpUpdateOut@ioexp_inst^0,w,c
  8710  004E10  26D9               	addwf	fsr2l,f,c
  8711  004E12  501C               	movf	(IOExpUpdateOut@ioexp_inst+1)^0,w,c
  8712  004E14  22DA               	addwfc	fsr2h,f,c
  8713  004E16  0060  F077  FFDF   	movff	IOExpUpdateOut@set_oval,indf2
  8714                           
  8715                           ;/home/dev-user/Projects/Personal/PIC/LibMisc.X/IOExp_PCA9539A.c: 97:     ioexp_inst->P1
      +                          OVal.val = set_oval >> 8;
  8716  004E1C  EE20 F006          	lfsr	2,6
  8717  004E20  501B               	movf	IOExpUpdateOut@ioexp_inst^0,w,c
  8718  004E22  26D9               	addwf	fsr2l,f,c
  8719  004E24  501C               	movf	(IOExpUpdateOut@ioexp_inst+1)^0,w,c
  8720  004E26  22DA               	addwfc	fsr2h,f,c
  8721  004E28  501E               	movf	(IOExpUpdateOut@set_oval+1)^0,w,c
  8722  004E2A  6EDF               	movwf	indf2,c
  8723  004E2C                     
  8724                           ;/home/dev-user/Projects/Personal/PIC/LibMisc.X/IOExp_PCA9539A.c: 99:     return IOExpWr
      +                          iteVal(ioexp_inst, BOTH);;	Return value of _IOExpUpdateOut is never used
  8725  004E2C  C01B  F014         	movff	IOExpUpdateOut@ioexp_inst,IOExpWriteVal@ioexp_inst
  8726  004E30  C01C  F015         	movff	IOExpUpdateOut@ioexp_inst+1,IOExpWriteVal@ioexp_inst+1
  8727  004E34  0E02               	movlw	2
  8728  004E36  6E16               	movwf	IOExpWriteVal@portSel^0,c
  8729  004E38  EC10  F022         	call	_IOExpWriteVal	;wreg free
  8730  004E3C  0012               	return		;funcret
  8731  004E3E                     __end_of_IOExpUpdateOut:
  8732                           	callstack 0
  8733                           
  8734 ;; *************** function _IOExpWriteVal *****************
  8735 ;; Defined at:
  8736 ;;		line 191 in file "/home/dev-user/Projects/Personal/PIC/LibMisc.X/IOExp_PCA9539A.c"
  8737 ;; Parameters:    Size  Location     Type
  8738 ;;  ioexp_inst      2   19[COMRAM] PTR volatile struct .
  8739 ;;		 -> ioexp1(9), 
  8740 ;;  portSel         1   21[COMRAM] enum E16387
  8741 ;; Auto vars:     Size  Location     Type
  8742 ;;  datVals         2   23[COMRAM] unsigned char [2]
  8743 ;;  wrtCnt          1   25[COMRAM] unsigned char 
  8744 ;;  intAddr         1   22[COMRAM] unsigned char 
  8745 ;; Return value:  Size  Location     Type
  8746 ;;                  1    wreg      enum E16287
  8747 ;; Registers used:
  8748 ;;		wreg, fsr2l, fsr2h, status,2, status,0, cstack
  8749 ;; Tracked objects:
  8750 ;;		On entry : 0/0
  8751 ;;		On exit  : 0/0
  8752 ;;		Unchanged: 0/0
  8753 ;; Data sizes:     COMRAM   BANK0   BANK1   BANK2   BANK3   BANK4   BANK5   BANK6   BANK7   BANK8   BANK9  BANK10  BANK1
      +1  BANK12  BANK13  BANK14  BANK15  BANK16  BANK17  BANK18  BANK19  BANK20  BANK21  BANK22  BANK23  BANK24  BANK25  BANK2
      +6  BANK27  BANK28  BANK29  BANK30  BANK31
  8754 ;;      Params:         3       0       0       0       0       0       0       0       0       0       0       0       
      +0       0       0       0       0       0       0       0       0       0       0       0       0       0       0       
      +0       0       0       0       0       0
  8755 ;;      Locals:         4       0       0       0       0       0       0       0       0       0       0       0       
      +0       0       0       0       0       0       0       0       0       0       0       0       0       0       0       
      +0       0       0       0       0       0
  8756 ;;      Temps:          0       0       0       0       0       0       0       0       0       0       0       0       
      +0       0       0       0       0       0       0       0       0       0       0       0       0       0       0       
      +0       0       0       0       0       0
  8757 ;;      Totals:         7       0       0       0       0       0       0       0       0       0       0       0       
      +0       0       0       0       0       0       0       0       0       0       0       0       0       0       0       
      +0       0       0       0       0       0
  8758 ;;Total ram usage:        7 bytes
  8759 ;; Hardware stack levels used:    1
  8760 ;; Hardware stack levels required when called:    4
  8761 ;; This function calls:
  8762 ;;		_I2C1Write
  8763 ;; This function is called by:
  8764 ;;		_IOExpUpdateAll
  8765 ;;		_IOExpUpdateOut
  8766 ;; This function uses a non-reentrant model
  8767 ;;
  8768                           
  8769                           	psect	text50
  8770  004420                     __ptext50:
  8771                           	callstack 0
  8772  004420                     _IOExpWriteVal:
  8773                           	callstack 23
  8774  004420                     
  8775                           ;/home/dev-user/Projects/Personal/PIC/LibMisc.X/IOExp_PCA9539A.c: 191: STATUS_T IOExpWri
      +                          teVal(IOEXP_PCA9539_T *ioexp_inst, enum IOEXP_PORTENUM portSel);/home/dev-user/Projects/
      +                          Personal/PIC/LibMisc.X/IOExp_PCA9539A.c: 192: {;/home/dev-user/Projects/Personal/PIC/Lib
      +                          Misc.X/IOExp_PCA9539A.c: 193:     uint8_t wrtCnt = 2;
  8776  004420  0E02               	movlw	2
  8777  004422  6E1A               	movwf	IOExpWriteVal@wrtCnt^0,c
  8778                           
  8779                           ;/home/dev-user/Projects/Personal/PIC/LibMisc.X/IOExp_PCA9539A.c: 194:     uint8_t intAd
      +                          dr = 0x02;
  8780  004424  0E02               	movlw	2
  8781  004426  6E17               	movwf	IOExpWriteVal@intAddr^0,c
  8782  004428                     
  8783                           ;/home/dev-user/Projects/Personal/PIC/LibMisc.X/IOExp_PCA9539A.c: 195:     uint8_t datVa
      +                          ls[2];;/home/dev-user/Projects/Personal/PIC/LibMisc.X/IOExp_PCA9539A.c: 196:     datVals
      +                          [0] = ioexp_inst->P0OVal.val;
  8784  004428  EE20 F002          	lfsr	2,2
  8785  00442C  5014               	movf	IOExpWriteVal@ioexp_inst^0,w,c
  8786  00442E  26D9               	addwf	fsr2l,f,c
  8787  004430  5015               	movf	(IOExpWriteVal@ioexp_inst+1)^0,w,c
  8788  004432  22DA               	addwfc	fsr2h,f,c
  8789  004434  50DF               	movf	indf2,w,c
  8790  004436  6E18               	movwf	IOExpWriteVal@datVals^0,c
  8791  004438                     
  8792                           ;/home/dev-user/Projects/Personal/PIC/LibMisc.X/IOExp_PCA9539A.c: 197:     datVals[1] = 
      +                          ioexp_inst->P1OVal.val;
  8793  004438  EE20 F006          	lfsr	2,6
  8794  00443C  5014               	movf	IOExpWriteVal@ioexp_inst^0,w,c
  8795  00443E  26D9               	addwf	fsr2l,f,c
  8796  004440  5015               	movf	(IOExpWriteVal@ioexp_inst+1)^0,w,c
  8797  004442  22DA               	addwfc	fsr2h,f,c
  8798  004444  50DF               	movf	indf2,w,c
  8799  004446  6E19               	movwf	(IOExpWriteVal@datVals+1)^0,c
  8800  004448                     
  8801                           ;/home/dev-user/Projects/Personal/PIC/LibMisc.X/IOExp_PCA9539A.c: 199:     if(portSel ==
      +                           P1){
  8802  004448  0416               	decf	IOExpWriteVal@portSel^0,w,c
  8803  00444A  A4D8               	btfss	status,2,c
  8804  00444C  EF2A  F022         	goto	u5071
  8805  004450  EF2C  F022         	goto	u5070
  8806  004454                     u5071:
  8807  004454  EF38  F022         	goto	l5565
  8808  004458                     u5070:
  8809  004458                     
  8810                           ;/home/dev-user/Projects/Personal/PIC/LibMisc.X/IOExp_PCA9539A.c: 200:         intAddr =
      +                           0x03;
  8811  004458  0E03               	movlw	3
  8812  00445A  6E17               	movwf	IOExpWriteVal@intAddr^0,c
  8813  00445C                     
  8814                           ;/home/dev-user/Projects/Personal/PIC/LibMisc.X/IOExp_PCA9539A.c: 201:         datVals[0
      +                          ] = ioexp_inst->P1OVal.val;
  8815  00445C  EE20 F006          	lfsr	2,6
  8816  004460  5014               	movf	IOExpWriteVal@ioexp_inst^0,w,c
  8817  004462  26D9               	addwf	fsr2l,f,c
  8818  004464  5015               	movf	(IOExpWriteVal@ioexp_inst+1)^0,w,c
  8819  004466  22DA               	addwfc	fsr2h,f,c
  8820  004468  50DF               	movf	indf2,w,c
  8821  00446A  6E18               	movwf	IOExpWriteVal@datVals^0,c
  8822                           
  8823                           ;/home/dev-user/Projects/Personal/PIC/LibMisc.X/IOExp_PCA9539A.c: 202:     } else if(por
      +                          tSel == BOTH){
  8824  00446C  EF43  F022         	goto	l5569
  8825  004470                     l5565:
  8826  004470  0E02               	movlw	2
  8827  004472  1816               	xorwf	IOExpWriteVal@portSel^0,w,c
  8828  004474  A4D8               	btfss	status,2,c
  8829  004476  EF3F  F022         	goto	u5081
  8830  00447A  EF41  F022         	goto	u5080
  8831  00447E                     u5081:
  8832  00447E  EF43  F022         	goto	l5569
  8833  004482                     u5080:
  8834  004482                     
  8835                           ;/home/dev-user/Projects/Personal/PIC/LibMisc.X/IOExp_PCA9539A.c: 203:         wrtCnt = 
      +                          3;
  8836  004482  0E03               	movlw	3
  8837  004484  6E1A               	movwf	IOExpWriteVal@wrtCnt^0,c
  8838  004486                     l5569:
  8839                           
  8840                           ;/home/dev-user/Projects/Personal/PIC/LibMisc.X/IOExp_PCA9539A.c: 215:     I2C1_buff_out
      +                          [0] = intAddr;
  8841  004486  C017  F100         	movff	IOExpWriteVal@intAddr,_I2C1_buff_out
  8842  00448A                     
  8843                           ;/home/dev-user/Projects/Personal/PIC/LibMisc.X/IOExp_PCA9539A.c: 216:     I2C1_buff_out
      +                          [1] = datVals[0];
  8844  00448A  C018  F101         	movff	IOExpWriteVal@datVals,_I2C1_buff_out+1
  8845  00448E                     
  8846                           ;/home/dev-user/Projects/Personal/PIC/LibMisc.X/IOExp_PCA9539A.c: 217:     if(wrtCnt == 
      +                          3){
  8847  00448E  0E03               	movlw	3
  8848  004490  181A               	xorwf	IOExpWriteVal@wrtCnt^0,w,c
  8849  004492  A4D8               	btfss	status,2,c
  8850  004494  EF4E  F022         	goto	u5091
  8851  004498  EF50  F022         	goto	u5090
  8852  00449C                     u5091:
  8853  00449C  EF52  F022         	goto	l5577
  8854  0044A0                     u5090:
  8855  0044A0                     
  8856                           ;/home/dev-user/Projects/Personal/PIC/LibMisc.X/IOExp_PCA9539A.c: 218:         I2C1_buff
      +                          _out[2] = datVals[1];
  8857  0044A0  C019  F102         	movff	IOExpWriteVal@datVals+1,_I2C1_buff_out+2
  8858  0044A4                     l5577:
  8859                           
  8860                           ;/home/dev-user/Projects/Personal/PIC/LibMisc.X/IOExp_PCA9539A.c: 221:     if(I2C1Write(
      +                          wrtCnt, ioexp_inst->Addr) == wrtCnt)
  8861  0044A4  0060  F053  FFD9   	movff	IOExpWriteVal@ioexp_inst,fsr2l
  8862  0044AA  0060  F057  FFDA   	movff	IOExpWriteVal@ioexp_inst+1,fsr2h
  8863  0044B0  50DF               	movf	indf2,w,c
  8864  0044B2  6E11               	movwf	I2C1Write@devAddr^0,c
  8865  0044B4  501A               	movf	IOExpWriteVal@wrtCnt^0,w,c
  8866  0044B6  EC6A  F025         	call	_I2C1Write
  8867  0044BA  181A               	xorwf	IOExpWriteVal@wrtCnt^0,w,c
  8868  0044BC  A4D8               	btfss	status,2,c
  8869  0044BE  EF63  F022         	goto	u5101
  8870  0044C2  EF65  F022         	goto	u5100
  8871  0044C6                     u5101:
  8872  0044C6  EF68  F022         	goto	l5583
  8873  0044CA                     u5100:
  8874  0044CA                     
  8875                           ;/home/dev-user/Projects/Personal/PIC/LibMisc.X/IOExp_PCA9539A.c: 222:         return ST
      +                          AT_SUCCESS;
  8876  0044CA  0E00               	movlw	0
  8877  0044CC  EF69  F022         	goto	l994
  8878  0044D0                     l5583:
  8879                           
  8880                           ;/home/dev-user/Projects/Personal/PIC/LibMisc.X/IOExp_PCA9539A.c: 225:     return STAT_F
      +                          AIL;
  8881  0044D0  0EFE               	movlw	254
  8882  0044D2                     l994:
  8883  0044D2  0012               	return		;funcret
  8884  0044D4                     __end_of_IOExpWriteVal:
  8885                           	callstack 0
  8886                           
  8887 ;; *************** function _I2C1Write *****************
  8888 ;; Defined at:
  8889 ;;		line 53 in file "/home/dev-user/Projects/Personal/PIC/LibPeripherals.X/i2c.c"
  8890 ;; Parameters:    Size  Location     Type
  8891 ;;  byteCnt         1    wreg     unsigned char 
  8892 ;;  devAddr         1   16[COMRAM] unsigned char 
  8893 ;; Auto vars:     Size  Location     Type
  8894 ;;  byteCnt         1   17[COMRAM] unsigned char 
  8895 ;;  write_count     1   18[COMRAM] unsigned char 
  8896 ;; Return value:  Size  Location     Type
  8897 ;;                  1    wreg      unsigned char 
  8898 ;; Registers used:
  8899 ;;		wreg, fsr2l, fsr2h, status,2, status,0
  8900 ;; Tracked objects:
  8901 ;;		On entry : 0/0
  8902 ;;		On exit  : 0/0
  8903 ;;		Unchanged: 0/0
  8904 ;; Data sizes:     COMRAM   BANK0   BANK1   BANK2   BANK3   BANK4   BANK5   BANK6   BANK7   BANK8   BANK9  BANK10  BANK1
      +1  BANK12  BANK13  BANK14  BANK15  BANK16  BANK17  BANK18  BANK19  BANK20  BANK21  BANK22  BANK23  BANK24  BANK25  BANK2
      +6  BANK27  BANK28  BANK29  BANK30  BANK31
  8905 ;;      Params:         1       0       0       0       0       0       0       0       0       0       0       0       
      +0       0       0       0       0       0       0       0       0       0       0       0       0       0       0       
      +0       0       0       0       0       0
  8906 ;;      Locals:         2       0       0       0       0       0       0       0       0       0       0       0       
      +0       0       0       0       0       0       0       0       0       0       0       0       0       0       0       
      +0       0       0       0       0       0
  8907 ;;      Temps:          0       0       0       0       0       0       0       0       0       0       0       0       
      +0       0       0       0       0       0       0       0       0       0       0       0       0       0       0       
      +0       0       0       0       0       0
  8908 ;;      Totals:         3       0       0       0       0       0       0       0       0       0       0       0       
      +0       0       0       0       0       0       0       0       0       0       0       0       0       0       0       
      +0       0       0       0       0       0
  8909 ;;Total ram usage:        3 bytes
  8910 ;; Hardware stack levels used:    1
  8911 ;; Hardware stack levels required when called:    3
  8912 ;; This function calls:
  8913 ;;		Nothing
  8914 ;; This function is called by:
  8915 ;;		_IOExpWriteDir
  8916 ;;		_IOExpWriteInv
  8917 ;;		_IOExpWriteVal
  8918 ;; This function uses a non-reentrant model
  8919 ;;
  8920                           
  8921                           	psect	text51
  8922  004AD4                     __ptext51:
  8923                           	callstack 0
  8924  004AD4                     _I2C1Write:
  8925                           	callstack 23
  8926                           
  8927                           ;incstack = 0
  8928                           ;I2C1Write@byteCnt stored from wreg
  8929  004AD4  6E12               	movwf	I2C1Write@byteCnt^0,c
  8930  004AD6                     l1116:
  8931  004AD6  013D               	movlb	61	; () banked
  8932  004AD8  AF77               	btfss	119,7,b	;volatile
  8933  004ADA  EF71  F025         	goto	u4651
  8934  004ADE  EF73  F025         	goto	u4650
  8935  004AE2                     u4651:
  8936  004AE2  EF6B  F025         	goto	l1116
  8937  004AE6                     u4650:
  8938  004AE6                     
  8939                           ; BSR set to: 61
  8940                           ;/home/dev-user/Projects/Personal/PIC/LibPeripherals.X/i2c.c: 62:     I2C1ADB1 = devAddr
      +                           & 0xFE;
  8941  004AE6  5011               	movf	I2C1Write@devAddr^0,w,c
  8942  004AE8  0BFE               	andlw	254
  8943  004AEA  6F6E               	movwf	110,b	;volatile
  8944  004AEC                     
  8945                           ; BSR set to: 61
  8946                           ;/home/dev-user/Projects/Personal/PIC/LibPeripherals.X/i2c.c: 63:     I2C1CNT = byteCnt;
  8947  004AEC  0060  F04B  FD6C   	movff	I2C1Write@byteCnt,15724	;volatile
  8948  004AF2                     
  8949                           ; BSR set to: 61
  8950                           ;/home/dev-user/Projects/Personal/PIC/LibPeripherals.X/i2c.c: 64:     I2C1CON0bits.S = 1
      +                          ;
  8951  004AF2  8B73               	bsf	115,5,b	;volatile
  8952  004AF4                     
  8953                           ; BSR set to: 61
  8954                           ;/home/dev-user/Projects/Personal/PIC/LibPeripherals.X/i2c.c: 65:     for(write_count = 
      +                          0; write_count < byteCnt; write_count++){
  8955  004AF4  0E00               	movlw	0
  8956  004AF6  6E13               	movwf	I2C1Write@write_count^0,c
  8957  004AF8  EF8E  F025         	goto	l5317
  8958  004AFC                     l5313:
  8959                           
  8960                           ; BSR set to: 61
  8961                           ;/home/dev-user/Projects/Personal/PIC/LibPeripherals.X/i2c.c: 66:         I2C1TXB = I2C1
      +                          _buff_out[write_count];
  8962  004AFC  0E00               	movlw	low _I2C1_buff_out
  8963  004AFE  2413               	addwf	I2C1Write@write_count^0,w,c
  8964  004B00  6ED9               	movwf	fsr2l,c
  8965  004B02  6ADA               	clrf	fsr2h,c
  8966  004B04  0E01               	movlw	high _I2C1_buff_out
  8967  004B06  22DA               	addwfc	fsr2h,f,c
  8968  004B08  50DF               	movf	indf2,w,c
  8969  004B0A  6F6B               	movwf	107,b	;volatile
  8970  004B0C                     l1121:
  8971                           
  8972                           ; BSR set to: 61
  8973  004B0C  AB78               	btfss	120,5,b	;volatile
  8974  004B0E  EF8B  F025         	goto	u4661
  8975  004B12  EF8D  F025         	goto	u4660
  8976  004B16                     u4661:
  8977  004B16  EF86  F025         	goto	l1121
  8978  004B1A                     u4660:
  8979  004B1A                     
  8980                           ; BSR set to: 61
  8981                           ;/home/dev-user/Projects/Personal/PIC/LibPeripherals.X/i2c.c: 69:     }
  8982  004B1A  2A13               	incf	I2C1Write@write_count^0,f,c
  8983  004B1C                     l5317:
  8984                           
  8985                           ; BSR set to: 61
  8986  004B1C  5012               	movf	I2C1Write@byteCnt^0,w,c
  8987  004B1E  5C13               	subwf	I2C1Write@write_count^0,w,c
  8988  004B20  A0D8               	btfss	status,0,c
  8989  004B22  EF95  F025         	goto	u4671
  8990  004B26  EF97  F025         	goto	u4670
  8991  004B2A                     u4671:
  8992  004B2A  EF7E  F025         	goto	l5313
  8993  004B2E                     u4670:
  8994  004B2E                     
  8995                           ; BSR set to: 61
  8996                           ;/home/dev-user/Projects/Personal/PIC/LibPeripherals.X/i2c.c: 72:     return write_count
      +                          ;
  8997  004B2E  5013               	movf	I2C1Write@write_count^0,w,c
  8998  004B30                     
  8999                           ; BSR set to: 61
  9000  004B30  0012               	return		;funcret
  9001  004B32                     __end_of_I2C1Write:
  9002                           	callstack 0
  9003                           
  9004 ;; *************** function _IOExpUpdateIn *****************
  9005 ;; Defined at:
  9006 ;;		line 114 in file "/home/dev-user/Projects/Personal/PIC/LibMisc.X/IOExp_PCA9539A.c"
  9007 ;; Parameters:    Size  Location     Type
  9008 ;;  ioexp_inst      2   28[COMRAM] PTR volatile struct .
  9009 ;;		 -> ioexp1(9), 
  9010 ;; Auto vars:     Size  Location     Type
  9011 ;;		None
  9012 ;; Return value:  Size  Location     Type
  9013 ;;                  1    wreg      enum E16361
  9014 ;; Registers used:
  9015 ;;		wreg, fsr2l, fsr2h, status,2, status,0, cstack
  9016 ;; Tracked objects:
  9017 ;;		On entry : 0/0
  9018 ;;		On exit  : 0/0
  9019 ;;		Unchanged: 0/0
  9020 ;; Data sizes:     COMRAM   BANK0   BANK1   BANK2   BANK3   BANK4   BANK5   BANK6   BANK7   BANK8   BANK9  BANK10  BANK1
      +1  BANK12  BANK13  BANK14  BANK15  BANK16  BANK17  BANK18  BANK19  BANK20  BANK21  BANK22  BANK23  BANK24  BANK25  BANK2
      +6  BANK27  BANK28  BANK29  BANK30  BANK31
  9021 ;;      Params:         2       0       0       0       0       0       0       0       0       0       0       0       
      +0       0       0       0       0       0       0       0       0       0       0       0       0       0       0       
      +0       0       0       0       0       0
  9022 ;;      Locals:         0       0       0       0       0       0       0       0       0       0       0       0       
      +0       0       0       0       0       0       0       0       0       0       0       0       0       0       0       
      +0       0       0       0       0       0
  9023 ;;      Temps:          0       0       0       0       0       0       0       0       0       0       0       0       
      +0       0       0       0       0       0       0       0       0       0       0       0       0       0       0       
      +0       0       0       0       0       0
  9024 ;;      Totals:         2       0       0       0       0       0       0       0       0       0       0       0       
      +0       0       0       0       0       0       0       0       0       0       0       0       0       0       0       
      +0       0       0       0       0       0
  9025 ;;Total ram usage:        2 bytes
  9026 ;; Hardware stack levels used:    1
  9027 ;; Hardware stack levels required when called:    5
  9028 ;; This function calls:
  9029 ;;		_IOExpReadIVal
  9030 ;; This function is called by:
  9031 ;;		_main
  9032 ;; This function uses a non-reentrant model
  9033 ;;
  9034                           
  9035                           	psect	text52
  9036  004F42                     __ptext52:
  9037                           	callstack 0
  9038  004F42                     _IOExpUpdateIn:
  9039                           	callstack 25
  9040  004F42                     
  9041                           ;/home/dev-user/Projects/Personal/PIC/LibMisc.X/IOExp_PCA9539A.c: 114: STATUS_T IOExpUpd
      +                          ateIn(IOEXP_PCA9539_T *ioexp_inst);/home/dev-user/Projects/Personal/PIC/LibMisc.X/IOExp_
      +                          PCA9539A.c: 115: {;/home/dev-user/Projects/Personal/PIC/LibMisc.X/IOExp_PCA9539A.c: 116:
      +                               return IOExpReadIVal(ioexp_inst, BOTH);;	Return value of _IOExpUpdateIn is never us
      +                          ed
  9042  004F42  C01D  F016         	movff	IOExpUpdateIn@ioexp_inst,IOExpReadIVal@ioexp_inst
  9043  004F46  C01E  F017         	movff	IOExpUpdateIn@ioexp_inst+1,IOExpReadIVal@ioexp_inst+1
  9044  004F4A  0E02               	movlw	2
  9045  004F4C  6E18               	movwf	IOExpReadIVal@portSel^0,c
  9046  004F4E  EC24  F01D         	call	_IOExpReadIVal	;wreg free
  9047  004F52  0012               	return		;funcret
  9048  004F54                     __end_of_IOExpUpdateIn:
  9049                           	callstack 0
  9050                           
  9051 ;; *************** function _IOExpReadIVal *****************
  9052 ;; Defined at:
  9053 ;;		line 293 in file "/home/dev-user/Projects/Personal/PIC/LibMisc.X/IOExp_PCA9539A.c"
  9054 ;; Parameters:    Size  Location     Type
  9055 ;;  ioexp_inst      2   21[COMRAM] PTR volatile struct .
  9056 ;;		 -> ioexp1(9), 
  9057 ;;  portSel         1   23[COMRAM] enum E16387
  9058 ;; Auto vars:     Size  Location     Type
  9059 ;;  outVals         2   26[COMRAM] unsigned char [2]
  9060 ;;  rdCnt           1   25[COMRAM] unsigned char 
  9061 ;;  intAddr         1   24[COMRAM] unsigned char 
  9062 ;; Return value:  Size  Location     Type
  9063 ;;                  1    wreg      enum E16287
  9064 ;; Registers used:
  9065 ;;		wreg, fsr2l, fsr2h, status,2, status,0, cstack
  9066 ;; Tracked objects:
  9067 ;;		On entry : 0/0
  9068 ;;		On exit  : 0/0
  9069 ;;		Unchanged: 0/0
  9070 ;; Data sizes:     COMRAM   BANK0   BANK1   BANK2   BANK3   BANK4   BANK5   BANK6   BANK7   BANK8   BANK9  BANK10  BANK1
      +1  BANK12  BANK13  BANK14  BANK15  BANK16  BANK17  BANK18  BANK19  BANK20  BANK21  BANK22  BANK23  BANK24  BANK25  BANK2
      +6  BANK27  BANK28  BANK29  BANK30  BANK31
  9071 ;;      Params:         3       0       0       0       0       0       0       0       0       0       0       0       
      +0       0       0       0       0       0       0       0       0       0       0       0       0       0       0       
      +0       0       0       0       0       0
  9072 ;;      Locals:         4       0       0       0       0       0       0       0       0       0       0       0       
      +0       0       0       0       0       0       0       0       0       0       0       0       0       0       0       
      +0       0       0       0       0       0
  9073 ;;      Temps:          0       0       0       0       0       0       0       0       0       0       0       0       
      +0       0       0       0       0       0       0       0       0       0       0       0       0       0       0       
      +0       0       0       0       0       0
  9074 ;;      Totals:         7       0       0       0       0       0       0       0       0       0       0       0       
      +0       0       0       0       0       0       0       0       0       0       0       0       0       0       0       
      +0       0       0       0       0       0
  9075 ;;Total ram usage:        7 bytes
  9076 ;; Hardware stack levels used:    1
  9077 ;; Hardware stack levels required when called:    4
  9078 ;; This function calls:
  9079 ;;		_I2C1WrRd
  9080 ;; This function is called by:
  9081 ;;		_IOExpUpdateAll
  9082 ;;		_IOExpUpdateIn
  9083 ;; This function uses a non-reentrant model
  9084 ;;
  9085                           
  9086                           	psect	text53
  9087  003A48                     __ptext53:
  9088                           	callstack 0
  9089  003A48                     _IOExpReadIVal:
  9090                           	callstack 23
  9091  003A48                     
  9092                           ;/home/dev-user/Projects/Personal/PIC/LibMisc.X/IOExp_PCA9539A.c: 293: STATUS_T IOExpRea
      +                          dIVal(IOEXP_PCA9539_T *ioexp_inst, enum IOEXP_PORTENUM portSel);/home/dev-user/Projects/
      +                          Personal/PIC/LibMisc.X/IOExp_PCA9539A.c: 294: {;/home/dev-user/Projects/Personal/PIC/Lib
      +                          Misc.X/IOExp_PCA9539A.c: 295:     uint8_t rdCnt = 1;
  9093  003A48  0E01               	movlw	1
  9094  003A4A  6E1A               	movwf	IOExpReadIVal@rdCnt^0,c
  9095                           
  9096                           ;/home/dev-user/Projects/Personal/PIC/LibMisc.X/IOExp_PCA9539A.c: 296:     uint8_t intAd
      +                          dr = 0x00;
  9097  003A4C  0E00               	movlw	0
  9098  003A4E  6E19               	movwf	IOExpReadIVal@intAddr^0,c
  9099  003A50                     
  9100                           ;/home/dev-user/Projects/Personal/PIC/LibMisc.X/IOExp_PCA9539A.c: 297:     uint8_t outVa
      +                          ls[2];;/home/dev-user/Projects/Personal/PIC/LibMisc.X/IOExp_PCA9539A.c: 298:     if(port
      +                          Sel == P1) intAddr = 0x01;
  9101  003A50  0418               	decf	IOExpReadIVal@portSel^0,w,c
  9102  003A52  A4D8               	btfss	status,2,c
  9103  003A54  EF2E  F01D         	goto	u5151
  9104  003A58  EF30  F01D         	goto	u5150
  9105  003A5C                     u5151:
  9106  003A5C  EF34  F01D         	goto	l5627
  9107  003A60                     u5150:
  9108  003A60  0E01               	movlw	1
  9109  003A62  6E19               	movwf	IOExpReadIVal@intAddr^0,c
  9110  003A64  EF3F  F01D         	goto	l5631
  9111  003A68                     l5627:
  9112  003A68  0E02               	movlw	2
  9113  003A6A  1818               	xorwf	IOExpReadIVal@portSel^0,w,c
  9114  003A6C  A4D8               	btfss	status,2,c
  9115  003A6E  EF3B  F01D         	goto	u5161
  9116  003A72  EF3D  F01D         	goto	u5160
  9117  003A76                     u5161:
  9118  003A76  EF3F  F01D         	goto	l5631
  9119  003A7A                     u5160:
  9120  003A7A  0E02               	movlw	2
  9121  003A7C  6E1A               	movwf	IOExpReadIVal@rdCnt^0,c
  9122  003A7E                     l5631:
  9123                           
  9124                           ;/home/dev-user/Projects/Personal/PIC/LibMisc.X/IOExp_PCA9539A.c: 308:     I2C1_buff_out
      +                          [0] = intAddr;
  9125  003A7E  C019  F100         	movff	IOExpReadIVal@intAddr,_I2C1_buff_out
  9126  003A82                     
  9127                           ;/home/dev-user/Projects/Personal/PIC/LibMisc.X/IOExp_PCA9539A.c: 309:     if(I2C1WrRd(1
      +                          ,rdCnt,ioexp_inst->Addr) != rdCnt)
  9128  003A82  C01A  F011         	movff	IOExpReadIVal@rdCnt,I2C1WrRd@rdCnt
  9129  003A86  0060  F05B  FFD9   	movff	IOExpReadIVal@ioexp_inst,fsr2l
  9130  003A8C  0060  F05F  FFDA   	movff	IOExpReadIVal@ioexp_inst+1,fsr2h
  9131  003A92  50DF               	movf	indf2,w,c
  9132  003A94  6E12               	movwf	I2C1WrRd@devAddr^0,c
  9133  003A96  0E01               	movlw	1
  9134  003A98  EC3B  F020         	call	_I2C1WrRd
  9135  003A9C  181A               	xorwf	IOExpReadIVal@rdCnt^0,w,c
  9136  003A9E  B4D8               	btfsc	status,2,c
  9137  003AA0  EF54  F01D         	goto	u5171
  9138  003AA4  EF56  F01D         	goto	u5170
  9139  003AA8                     u5171:
  9140  003AA8  EF59  F01D         	goto	l1024
  9141  003AAC                     u5170:
  9142  003AAC                     
  9143                           ;/home/dev-user/Projects/Personal/PIC/LibMisc.X/IOExp_PCA9539A.c: 310:         return ST
      +                          AT_FAIL;
  9144  003AAC  0EFE               	movlw	254
  9145  003AAE  EF9F  F01D         	goto	l1025
  9146  003AB2                     l1024:
  9147                           
  9148                           ;/home/dev-user/Projects/Personal/PIC/LibMisc.X/IOExp_PCA9539A.c: 311:     outVals[0] = 
      +                          I2C1_buff_in[0];
  9149  003AB2  C200  F01B         	movff	_I2C1_buff_in,IOExpReadIVal@outVals
  9150                           
  9151                           ;/home/dev-user/Projects/Personal/PIC/LibMisc.X/IOExp_PCA9539A.c: 312:     outVals[1] = 
      +                          I2C1_buff_in[1];
  9152  003AB6  C201  F01C         	movff	_I2C1_buff_in+1,IOExpReadIVal@outVals+1
  9153  003ABA                     
  9154                           ;/home/dev-user/Projects/Personal/PIC/LibMisc.X/IOExp_PCA9539A.c: 315:     if(portSel ==
      +                           P0) ioexp_inst->P0IVal.val = outVals[0];
  9155  003ABA  5018               	movf	IOExpReadIVal@portSel^0,w,c
  9156  003ABC  A4D8               	btfss	status,2,c
  9157  003ABE  EF63  F01D         	goto	u5181
  9158  003AC2  EF65  F01D         	goto	u5180
  9159  003AC6                     u5181:
  9160  003AC6  EF70  F01D         	goto	l5643
  9161  003ACA                     u5180:
  9162  003ACA  EE20 F001          	lfsr	2,1
  9163  003ACE  5016               	movf	IOExpReadIVal@ioexp_inst^0,w,c
  9164  003AD0  26D9               	addwf	fsr2l,f,c
  9165  003AD2  5017               	movf	(IOExpReadIVal@ioexp_inst+1)^0,w,c
  9166  003AD4  22DA               	addwfc	fsr2h,f,c
  9167  003AD6  0060  F06F  FFDF   	movff	IOExpReadIVal@outVals,indf2
  9168  003ADC  EF9E  F01D         	goto	l5651
  9169  003AE0                     l5643:
  9170  003AE0  0418               	decf	IOExpReadIVal@portSel^0,w,c
  9171  003AE2  A4D8               	btfss	status,2,c
  9172  003AE4  EF76  F01D         	goto	u5191
  9173  003AE8  EF78  F01D         	goto	u5190
  9174  003AEC                     u5191:
  9175  003AEC  EF83  F01D         	goto	l5647
  9176  003AF0                     u5190:
  9177  003AF0  EE20 F005          	lfsr	2,5
  9178  003AF4  5016               	movf	IOExpReadIVal@ioexp_inst^0,w,c
  9179  003AF6  26D9               	addwf	fsr2l,f,c
  9180  003AF8  5017               	movf	(IOExpReadIVal@ioexp_inst+1)^0,w,c
  9181  003AFA  22DA               	addwfc	fsr2h,f,c
  9182  003AFC  0060  F06F  FFDF   	movff	IOExpReadIVal@outVals,indf2
  9183  003B02  EF9E  F01D         	goto	l5651
  9184  003B06                     l5647:
  9185  003B06  0E02               	movlw	2
  9186  003B08  1818               	xorwf	IOExpReadIVal@portSel^0,w,c
  9187  003B0A  A4D8               	btfss	status,2,c
  9188  003B0C  EF8A  F01D         	goto	u5201
  9189  003B10  EF8C  F01D         	goto	u5200
  9190  003B14                     u5201:
  9191  003B14  EF9E  F01D         	goto	l5651
  9192  003B18                     u5200:
  9193  003B18                     
  9194                           ;/home/dev-user/Projects/Personal/PIC/LibMisc.X/IOExp_PCA9539A.c: 318:         ioexp_ins
      +                          t->P0IVal.val = outVals[0];
  9195  003B18  EE20 F001          	lfsr	2,1
  9196  003B1C  5016               	movf	IOExpReadIVal@ioexp_inst^0,w,c
  9197  003B1E  26D9               	addwf	fsr2l,f,c
  9198  003B20  5017               	movf	(IOExpReadIVal@ioexp_inst+1)^0,w,c
  9199  003B22  22DA               	addwfc	fsr2h,f,c
  9200  003B24  0060  F06F  FFDF   	movff	IOExpReadIVal@outVals,indf2
  9201                           
  9202                           ;/home/dev-user/Projects/Personal/PIC/LibMisc.X/IOExp_PCA9539A.c: 319:         ioexp_ins
      +                          t->P1IVal.val = outVals[1];
  9203  003B2A  EE20 F005          	lfsr	2,5
  9204  003B2E  5016               	movf	IOExpReadIVal@ioexp_inst^0,w,c
  9205  003B30  26D9               	addwf	fsr2l,f,c
  9206  003B32  5017               	movf	(IOExpReadIVal@ioexp_inst+1)^0,w,c
  9207  003B34  22DA               	addwfc	fsr2h,f,c
  9208  003B36  0060  F073  FFDF   	movff	IOExpReadIVal@outVals+1,indf2
  9209  003B3C                     l5651:
  9210                           
  9211                           ;/home/dev-user/Projects/Personal/PIC/LibMisc.X/IOExp_PCA9539A.c: 322:     return STAT_S
      +                          UCCESS;
  9212  003B3C  0E00               	movlw	0
  9213  003B3E                     l1025:
  9214  003B3E  0012               	return		;funcret
  9215  003B40                     __end_of_IOExpReadIVal:
  9216                           	callstack 0
  9217                           
  9218 ;; *************** function _I2C1WrRd *****************
  9219 ;; Defined at:
  9220 ;;		line 91 in file "/home/dev-user/Projects/Personal/PIC/LibPeripherals.X/i2c.c"
  9221 ;; Parameters:    Size  Location     Type
  9222 ;;  wrCnt           1    wreg     unsigned char 
  9223 ;;  rdCnt           1   16[COMRAM] unsigned char 
  9224 ;;  devAddr         1   17[COMRAM] unsigned char 
  9225 ;; Auto vars:     Size  Location     Type
  9226 ;;  wrCnt           1   18[COMRAM] unsigned char 
  9227 ;;  read_count      1   20[COMRAM] unsigned char 
  9228 ;;  write_count     1   19[COMRAM] unsigned char 
  9229 ;; Return value:  Size  Location     Type
  9230 ;;                  1    wreg      unsigned char 
  9231 ;; Registers used:
  9232 ;;		wreg, fsr2l, fsr2h, status,2, status,0
  9233 ;; Tracked objects:
  9234 ;;		On entry : 0/0
  9235 ;;		On exit  : 0/0
  9236 ;;		Unchanged: 0/0
  9237 ;; Data sizes:     COMRAM   BANK0   BANK1   BANK2   BANK3   BANK4   BANK5   BANK6   BANK7   BANK8   BANK9  BANK10  BANK1
      +1  BANK12  BANK13  BANK14  BANK15  BANK16  BANK17  BANK18  BANK19  BANK20  BANK21  BANK22  BANK23  BANK24  BANK25  BANK2
      +6  BANK27  BANK28  BANK29  BANK30  BANK31
  9238 ;;      Params:         2       0       0       0       0       0       0       0       0       0       0       0       
      +0       0       0       0       0       0       0       0       0       0       0       0       0       0       0       
      +0       0       0       0       0       0
  9239 ;;      Locals:         3       0       0       0       0       0       0       0       0       0       0       0       
      +0       0       0       0       0       0       0       0       0       0       0       0       0       0       0       
      +0       0       0       0       0       0
  9240 ;;      Temps:          0       0       0       0       0       0       0       0       0       0       0       0       
      +0       0       0       0       0       0       0       0       0       0       0       0       0       0       0       
      +0       0       0       0       0       0
  9241 ;;      Totals:         5       0       0       0       0       0       0       0       0       0       0       0       
      +0       0       0       0       0       0       0       0       0       0       0       0       0       0       0       
      +0       0       0       0       0       0
  9242 ;;Total ram usage:        5 bytes
  9243 ;; Hardware stack levels used:    1
  9244 ;; Hardware stack levels required when called:    3
  9245 ;; This function calls:
  9246 ;;		Nothing
  9247 ;; This function is called by:
  9248 ;;		_IOExpReadIVal
  9249 ;; This function uses a non-reentrant model
  9250 ;;
  9251                           
  9252                           	psect	text54
  9253  004076                     __ptext54:
  9254                           	callstack 0
  9255  004076                     _I2C1WrRd:
  9256                           	callstack 23
  9257                           
  9258                           ;incstack = 0
  9259                           ;I2C1WrRd@wrCnt stored from wreg
  9260  004076  6E13               	movwf	I2C1WrRd@wrCnt^0,c
  9261  004078                     l1142:
  9262  004078  013D               	movlb	61	; () banked
  9263  00407A  AB77               	btfss	119,5,b	;volatile
  9264  00407C  EF42  F020         	goto	u4681
  9265  004080  EF44  F020         	goto	u4680
  9266  004084                     u4681:
  9267  004084  EF4B  F020         	goto	l5327
  9268  004088                     u4680:
  9269  004088                     
  9270                           ; BSR set to: 61
  9271  004088  AF77               	btfss	119,7,b	;volatile
  9272  00408A  EF49  F020         	goto	u4691
  9273  00408E  EF4B  F020         	goto	u4690
  9274  004092                     u4691:
  9275  004092  EF3C  F020         	goto	l1142
  9276  004096                     u4690:
  9277  004096                     l5327:
  9278  004096                     
  9279                           ; BSR set to: 61
  9280                           ;/home/dev-user/Projects/Personal/PIC/LibPeripherals.X/i2c.c: 96:     I2C1ADB1 = devAddr
      +                           & 0xFE;
  9281  004096  5012               	movf	I2C1WrRd@devAddr^0,w,c
  9282  004098  0BFE               	andlw	254
  9283  00409A  6F6E               	movwf	110,b	;volatile
  9284  00409C                     
  9285                           ; BSR set to: 61
  9286                           ;/home/dev-user/Projects/Personal/PIC/LibPeripherals.X/i2c.c: 97:     I2C1CNT = wrCnt;
  9287  00409C  0060  F04F  FD6C   	movff	I2C1WrRd@wrCnt,15724	;volatile
  9288  0040A2                     
  9289                           ; BSR set to: 61
  9290                           ;/home/dev-user/Projects/Personal/PIC/LibPeripherals.X/i2c.c: 98:     I2C1CON0bits.S = 1
      +                          ;
  9291  0040A2  8B73               	bsf	115,5,b	;volatile
  9292  0040A4                     
  9293                           ; BSR set to: 61
  9294                           ;/home/dev-user/Projects/Personal/PIC/LibPeripherals.X/i2c.c: 99:     for(write_count = 
      +                          0; write_count < wrCnt; write_count++){
  9295  0040A4  0E00               	movlw	0
  9296  0040A6  6E14               	movwf	I2C1WrRd@write_count^0,c
  9297  0040A8  EF66  F020         	goto	l5341
  9298  0040AC                     l5337:
  9299                           
  9300                           ; BSR set to: 61
  9301                           ;/home/dev-user/Projects/Personal/PIC/LibPeripherals.X/i2c.c: 100:         I2C1TXB = I2C
      +                          1_buff_out[write_count];
  9302  0040AC  0E00               	movlw	low _I2C1_buff_out
  9303  0040AE  2414               	addwf	I2C1WrRd@write_count^0,w,c
  9304  0040B0  6ED9               	movwf	fsr2l,c
  9305  0040B2  6ADA               	clrf	fsr2h,c
  9306  0040B4  0E01               	movlw	high _I2C1_buff_out
  9307  0040B6  22DA               	addwfc	fsr2h,f,c
  9308  0040B8  50DF               	movf	indf2,w,c
  9309  0040BA  6F6B               	movwf	107,b	;volatile
  9310  0040BC                     l1149:
  9311                           
  9312                           ; BSR set to: 61
  9313  0040BC  AB78               	btfss	120,5,b	;volatile
  9314  0040BE  EF63  F020         	goto	u4701
  9315  0040C2  EF65  F020         	goto	u4700
  9316  0040C6                     u4701:
  9317  0040C6  EF5E  F020         	goto	l1149
  9318  0040CA                     u4700:
  9319  0040CA                     
  9320                           ; BSR set to: 61
  9321                           ;/home/dev-user/Projects/Personal/PIC/LibPeripherals.X/i2c.c: 102:     }
  9322  0040CA  2A14               	incf	I2C1WrRd@write_count^0,f,c
  9323  0040CC                     l5341:
  9324                           
  9325                           ; BSR set to: 61
  9326  0040CC  5013               	movf	I2C1WrRd@wrCnt^0,w,c
  9327  0040CE  5C14               	subwf	I2C1WrRd@write_count^0,w,c
  9328  0040D0  A0D8               	btfss	status,0,c
  9329  0040D2  EF6D  F020         	goto	u4711
  9330  0040D6  EF6F  F020         	goto	u4710
  9331  0040DA                     u4711:
  9332  0040DA  EF56  F020         	goto	l5337
  9333  0040DE                     u4710:
  9334  0040DE                     l1153:
  9335                           
  9336                           ; BSR set to: 61
  9337  0040DE  BB77               	btfsc	119,5,b	;volatile
  9338  0040E0  EF74  F020         	goto	u4721
  9339  0040E4  EF76  F020         	goto	u4720
  9340  0040E8                     u4721:
  9341  0040E8  EF6F  F020         	goto	l1153
  9342  0040EC                     u4720:
  9343  0040EC                     
  9344                           ; BSR set to: 61
  9345                           ;/home/dev-user/Projects/Personal/PIC/LibPeripherals.X/i2c.c: 106:     I2C1ADB1 = devAdd
      +                          r | 0x01;
  9346  0040EC  5012               	movf	I2C1WrRd@devAddr^0,w,c
  9347  0040EE  0901               	iorlw	1
  9348  0040F0  6F6E               	movwf	110,b	;volatile
  9349  0040F2                     
  9350                           ; BSR set to: 61
  9351                           ;/home/dev-user/Projects/Personal/PIC/LibPeripherals.X/i2c.c: 107:     I2C1CNT = rdCnt;
  9352  0040F2  0060  F047  FD6C   	movff	I2C1WrRd@rdCnt,15724	;volatile
  9353  0040F8                     
  9354                           ; BSR set to: 61
  9355                           ;/home/dev-user/Projects/Personal/PIC/LibPeripherals.X/i2c.c: 109:     I2C1CON0bits.S = 
      +                          1;
  9356  0040F8  8B73               	bsf	115,5,b	;volatile
  9357  0040FA                     
  9358                           ; BSR set to: 61
  9359                           ;/home/dev-user/Projects/Personal/PIC/LibPeripherals.X/i2c.c: 111:     for(read_count = 
      +                          0; read_count < rdCnt; read_count++){
  9360  0040FA  0E00               	movlw	0
  9361  0040FC  6E15               	movwf	I2C1WrRd@read_count^0,c
  9362  0040FE  EF92  F020         	goto	l5357
  9363  004102                     l1158:
  9364                           
  9365                           ; BSR set to: 61
  9366  004102  A178               	btfss	120,0,b	;volatile
  9367  004104  EF86  F020         	goto	u4731
  9368  004108  EF88  F020         	goto	u4730
  9369  00410C                     u4731:
  9370  00410C  EF81  F020         	goto	l1158
  9371  004110                     u4730:
  9372  004110                     
  9373                           ; BSR set to: 61
  9374                           ;/home/dev-user/Projects/Personal/PIC/LibPeripherals.X/i2c.c: 113:         I2C1_buff_in[
      +                          read_count] = I2C1RXB;
  9375  004110  0E00               	movlw	low _I2C1_buff_in
  9376  004112  2415               	addwf	I2C1WrRd@read_count^0,w,c
  9377  004114  6ED9               	movwf	fsr2l,c
  9378  004116  6ADA               	clrf	fsr2h,c
  9379  004118  0E02               	movlw	high _I2C1_buff_in
  9380  00411A  22DA               	addwfc	fsr2h,f,c
  9381  00411C  006F F5AB FFDF     	movff	15722,indf2	;volatile
  9382  004122                     
  9383                           ; BSR set to: 61
  9384                           ;/home/dev-user/Projects/Personal/PIC/LibPeripherals.X/i2c.c: 114:     }
  9385  004122  2A15               	incf	I2C1WrRd@read_count^0,f,c
  9386  004124                     l5357:
  9387                           
  9388                           ; BSR set to: 61
  9389  004124  5011               	movf	I2C1WrRd@rdCnt^0,w,c
  9390  004126  5C15               	subwf	I2C1WrRd@read_count^0,w,c
  9391  004128  A0D8               	btfss	status,0,c
  9392  00412A  EF99  F020         	goto	u4741
  9393  00412E  EF9B  F020         	goto	u4740
  9394  004132                     u4741:
  9395  004132  EF81  F020         	goto	l1158
  9396  004136                     u4740:
  9397  004136                     
  9398                           ; BSR set to: 61
  9399                           ;/home/dev-user/Projects/Personal/PIC/LibPeripherals.X/i2c.c: 118:     return read_count
      +                          ;
  9400  004136  5015               	movf	I2C1WrRd@read_count^0,w,c
  9401  004138                     
  9402                           ; BSR set to: 61
  9403  004138  0012               	return		;funcret
  9404  00413A                     __end_of_I2C1WrRd:
  9405                           	callstack 0
  9406                           
  9407 ;; *************** function _TX_ISR *****************
  9408 ;; Defined at:
  9409 ;;		line 21 in file "/home/dev-user/Projects/Personal/PIC/PIC18Test1.X/interrupts.c"
  9410 ;; Parameters:    Size  Location     Type
  9411 ;;		None
  9412 ;; Auto vars:     Size  Location     Type
  9413 ;;		None
  9414 ;; Return value:  Size  Location     Type
  9415 ;;                  1    wreg      void 
  9416 ;; Registers used:
  9417 ;;		wreg, fsr2l, fsr2h, status,2, status,0
  9418 ;; Tracked objects:
  9419 ;;		On entry : 0/0
  9420 ;;		On exit  : 0/0
  9421 ;;		Unchanged: 0/0
  9422 ;; Data sizes:     COMRAM   BANK0   BANK1   BANK2   BANK3   BANK4   BANK5   BANK6   BANK7   BANK8   BANK9  BANK10  BANK1
      +1  BANK12  BANK13  BANK14  BANK15  BANK16  BANK17  BANK18  BANK19  BANK20  BANK21  BANK22  BANK23  BANK24  BANK25  BANK2
      +6  BANK27  BANK28  BANK29  BANK30  BANK31
  9423 ;;      Params:         0       0       0       0       0       0       0       0       0       0       0       0       
      +0       0       0       0       0       0       0       0       0       0       0       0       0       0       0       
      +0       0       0       0       0       0
  9424 ;;      Locals:         0       0       0       0       0       0       0       0       0       0       0       0       
      +0       0       0       0       0       0       0       0       0       0       0       0       0       0       0       
      +0       0       0       0       0       0
  9425 ;;      Temps:          1       0       0       0       0       0       0       0       0       0       0       0       
      +0       0       0       0       0       0       0       0       0       0       0       0       0       0       0       
      +0       0       0       0       0       0
  9426 ;;      Totals:         1       0       0       0       0       0       0       0       0       0       0       0       
      +0       0       0       0       0       0       0       0       0       0       0       0       0       0       0       
      +0       0       0       0       0       0
  9427 ;;Total ram usage:        1 bytes
  9428 ;; Hardware stack levels used:    1
  9429 ;; Hardware stack levels required when called:    2
  9430 ;; This function calls:
  9431 ;;		Nothing
  9432 ;; This function is called by:
  9433 ;;		Interrupt level 1
  9434 ;; This function uses a non-reentrant model
  9435 ;;
  9436                           
  9437                           	psect	text55
  9438  004B34                     __ptext55:
  9439                           	callstack 0
  9440  004B34                     _TX_ISR:
  9441                           	callstack 20
  9442                           
  9443                           ; BSR set to: 61
  9444                           ;incstack = 0
  9445  004B34  006F FF60  F00A    	movff	status,??_TX_ISR
  9446  004B3A                     
  9447                           ;/home/dev-user/Projects/Personal/PIC/PIC18Test1.X/interrupts.c: 23:     U1TXIF = 0;
  9448  004B3A  0139               	movlb	57	; () banked
  9449  004B3C  99A3               	bcf	163,4,b	;volatile
  9450  004B3E                     
  9451                           ; BSR set to: 57
  9452                           ;/home/dev-user/Projects/Personal/PIC/PIC18Test1.X/interrupts.c: 24:     if(uart1_tx_buf
      +                          f_tail == uart1_tx_buff_head && !uart1_tx_buff_full){
  9453  004B3E  504E               	movf	_uart1_tx_buff_head^0,w,c
  9454  004B40  184F               	xorwf	_uart1_tx_buff_tail^0,w,c
  9455  004B42  A4D8               	btfss	status,2,c
  9456  004B44  EFA6  F025         	goto	i1u441_21
  9457  004B48  EFA8  F025         	goto	i1u441_20
  9458  004B4C                     i1u441_21:
  9459  004B4C  EFB4  F025         	goto	i1l5113
  9460  004B50                     i1u441_20:
  9461  004B50                     
  9462                           ; BSR set to: 57
  9463  004B50  504D               	movf	_uart1_tx_buff_full^0,w,c
  9464  004B52  A4D8               	btfss	status,2,c
  9465  004B54  EFAE  F025         	goto	i1u442_21
  9466  004B58  EFB0  F025         	goto	i1u442_20
  9467  004B5C                     i1u442_21:
  9468  004B5C  EFB4  F025         	goto	i1l5113
  9469  004B60                     i1u442_20:
  9470  004B60                     
  9471                           ; BSR set to: 57
  9472                           ;/home/dev-user/Projects/Personal/PIC/PIC18Test1.X/interrupts.c: 25:         U1TXIE = 0;
  9473  004B60  9993               	bcf	147,4,b	;volatile
  9474                           
  9475                           ;/home/dev-user/Projects/Personal/PIC/PIC18Test1.X/interrupts.c: 26:         U1TXIF = 0;
  9476  004B62  99A3               	bcf	163,4,b	;volatile
  9477                           
  9478                           ;/home/dev-user/Projects/Personal/PIC/PIC18Test1.X/interrupts.c: 27:     } else {
  9479  004B64  EFBE  F025         	goto	i1l5117
  9480  004B68                     i1l5113:
  9481                           
  9482                           ; BSR set to: 57
  9483                           ;/home/dev-user/Projects/Personal/PIC/PIC18Test1.X/interrupts.c: 28:         U1TXB = uar
      +                          t1_tx_buff[uart1_tx_buff_tail++];
  9484  004B68  0E00               	movlw	low _uart1_tx_buff
  9485  004B6A  244F               	addwf	_uart1_tx_buff_tail^0,w,c
  9486  004B6C  6ED9               	movwf	fsr2l,c
  9487  004B6E  6ADA               	clrf	fsr2h,c
  9488  004B70  0E03               	movlw	high _uart1_tx_buff
  9489  004B72  22DA               	addwfc	fsr2h,f,c
  9490  004B74  50DF               	movf	indf2,w,c
  9491  004B76  013D               	movlb	61	; () banked
  9492  004B78  6FEA               	movwf	234,b	;volatile
  9493  004B7A                     
  9494                           ; BSR set to: 61
  9495  004B7A  2A4F               	incf	_uart1_tx_buff_tail^0,f,c
  9496  004B7C                     i1l5117:
  9497                           
  9498                           ;/home/dev-user/Projects/Personal/PIC/PIC18Test1.X/interrupts.c: 30:     uart1_tx_buff_f
      +                          ull = 0;
  9499  004B7C  0E00               	movlw	0
  9500  004B7E  6E4D               	movwf	_uart1_tx_buff_full^0,c
  9501  004B80  0060  F02B  FFD8   	movff	??_TX_ISR,status
  9502  004B86  0011               	retfie		f
  9503  004B88                     __end_of_TX_ISR:
  9504                           	callstack 0
  9505                           
  9506 ;; *************** function _RX_ISR *****************
  9507 ;; Defined at:
  9508 ;;		line 33 in file "/home/dev-user/Projects/Personal/PIC/PIC18Test1.X/interrupts.c"
  9509 ;; Parameters:    Size  Location     Type
  9510 ;;		None
  9511 ;; Auto vars:     Size  Location     Type
  9512 ;;  i               1   14[COMRAM] unsigned char 
  9513 ;;  i               1   15[COMRAM] unsigned char 
  9514 ;;  rx_val          1   13[COMRAM] unsigned char 
  9515 ;;  rx_or_error     1   12[COMRAM] _Bool 
  9516 ;;  rx_frm_error    1   11[COMRAM] _Bool 
  9517 ;; Return value:  Size  Location     Type
  9518 ;;                  1    wreg      void 
  9519 ;; Registers used:
  9520 ;;		wreg, fsr1l, fsr1h, fsr2l, fsr2h, status,2, status,0
  9521 ;; Tracked objects:
  9522 ;;		On entry : 0/0
  9523 ;;		On exit  : 0/0
  9524 ;;		Unchanged: 0/0
  9525 ;; Data sizes:     COMRAM   BANK0   BANK1   BANK2   BANK3   BANK4   BANK5   BANK6   BANK7   BANK8   BANK9  BANK10  BANK1
      +1  BANK12  BANK13  BANK14  BANK15  BANK16  BANK17  BANK18  BANK19  BANK20  BANK21  BANK22  BANK23  BANK24  BANK25  BANK2
      +6  BANK27  BANK28  BANK29  BANK30  BANK31
  9526 ;;      Params:         0       0       0       0       0       0       0       0       0       0       0       0       
      +0       0       0       0       0       0       0       0       0       0       0       0       0       0       0       
      +0       0       0       0       0       0
  9527 ;;      Locals:         5       0       0       0       0       0       0       0       0       0       0       0       
      +0       0       0       0       0       0       0       0       0       0       0       0       0       0       0       
      +0       0       0       0       0       0
  9528 ;;      Temps:          1       0       0       0       0       0       0       0       0       0       0       0       
      +0       0       0       0       0       0       0       0       0       0       0       0       0       0       0       
      +0       0       0       0       0       0
  9529 ;;      Totals:         6       0       0       0       0       0       0       0       0       0       0       0       
      +0       0       0       0       0       0       0       0       0       0       0       0       0       0       0       
      +0       0       0       0       0       0
  9530 ;;Total ram usage:        6 bytes
  9531 ;; Hardware stack levels used:    1
  9532 ;; Hardware stack levels required when called:    2
  9533 ;; This function calls:
  9534 ;;		Nothing
  9535 ;; This function is called by:
  9536 ;;		Interrupt level 1
  9537 ;; This function uses a non-reentrant model
  9538 ;;
  9539                           
  9540                           	psect	text56
  9541  003538                     __ptext56:
  9542                           	callstack 0
  9543  003538                     _RX_ISR:
  9544                           	callstack 20
  9545                           
  9546                           ;incstack = 0
  9547  003538  006F FF60  F00B    	movff	status,??_RX_ISR
  9548  00353E                     
  9549                           ;/home/dev-user/Projects/Personal/PIC/PIC18Test1.X/interrupts.c: 35:     U1RXIF = 0;
  9550  00353E  0139               	movlb	57	; () banked
  9551  003540  97A3               	bcf	163,3,b	;volatile
  9552  003542                     
  9553                           ; BSR set to: 57
  9554                           ;/home/dev-user/Projects/Personal/PIC/PIC18Test1.X/interrupts.c: 36:     _Bool rx_frm_er
      +                          ror = 0;
  9555  003542  0E00               	movlw	0
  9556  003544  6E0C               	movwf	RX_ISR@rx_frm_error^0,c
  9557                           
  9558                           ;/home/dev-user/Projects/Personal/PIC/PIC18Test1.X/interrupts.c: 37:     _Bool rx_or_err
      +                          or = 0;
  9559  003546  0E00               	movlw	0
  9560  003548  6E0D               	movwf	RX_ISR@rx_or_error^0,c
  9561  00354A                     
  9562                           ; BSR set to: 57
  9563                           ;/home/dev-user/Projects/Personal/PIC/PIC18Test1.X/interrupts.c: 39:     if(U1ERRIRbits.
      +                          FERIF){
  9564  00354A  013D               	movlb	61	; () banked
  9565  00354C  A7F9               	btfss	249,3,b	;volatile
  9566  00354E  EFAB  F01A         	goto	i1u443_21
  9567  003552  EFAD  F01A         	goto	i1u443_20
  9568  003556                     i1u443_21:
  9569  003556  EFAF  F01A         	goto	i1l5127
  9570  00355A                     i1u443_20:
  9571  00355A                     
  9572                           ; BSR set to: 61
  9573                           ;/home/dev-user/Projects/Personal/PIC/PIC18Test1.X/interrupts.c: 41:         rx_frm_erro
      +                          r = 1;
  9574  00355A  0E01               	movlw	1
  9575  00355C  6E0C               	movwf	RX_ISR@rx_frm_error^0,c
  9576  00355E                     i1l5127:
  9577                           
  9578                           ; BSR set to: 61
  9579                           ;/home/dev-user/Projects/Personal/PIC/PIC18Test1.X/interrupts.c: 43:     if(U1ERRIRbits.
      +                          RXFOIF){
  9580  00355E  A3F9               	btfss	249,1,b	;volatile
  9581  003560  EFB4  F01A         	goto	i1u444_21
  9582  003564  EFB6  F01A         	goto	i1u444_20
  9583  003568                     i1u444_21:
  9584  003568  EFBA  F01A         	goto	i1l284
  9585  00356C                     i1u444_20:
  9586  00356C                     
  9587                           ; BSR set to: 61
  9588                           ;/home/dev-user/Projects/Personal/PIC/PIC18Test1.X/interrupts.c: 45:         rx_or_error
      +                           = 1;
  9589  00356C  0E01               	movlw	1
  9590  00356E  6E0D               	movwf	RX_ISR@rx_or_error^0,c
  9591  003570                     
  9592                           ; BSR set to: 61
  9593                           ;/home/dev-user/Projects/Personal/PIC/PIC18Test1.X/interrupts.c: 46:         U1CON0bits.
      +                          RXEN = 0;
  9594  003570  99F2               	bcf	242,4,b	;volatile
  9595  003572                     
  9596                           ; BSR set to: 61
  9597                           ;/home/dev-user/Projects/Personal/PIC/PIC18Test1.X/interrupts.c: 47:         U1CON0bits.
      +                          RXEN = 1;
  9598  003572  89F2               	bsf	242,4,b	;volatile
  9599  003574                     i1l284:
  9600                           
  9601                           ; BSR set to: 61
  9602                           ;/home/dev-user/Projects/Personal/PIC/PIC18Test1.X/interrupts.c: 49:     if(!rx_or_error
      +                          ){
  9603  003574  500D               	movf	RX_ISR@rx_or_error^0,w,c
  9604  003576  A4D8               	btfss	status,2,c
  9605  003578  EFC0  F01A         	goto	i1u445_21
  9606  00357C  EFC2  F01A         	goto	i1u445_20
  9607  003580                     i1u445_21:
  9608  003580  EF5B  F01B         	goto	i1l297
  9609  003584                     i1u445_20:
  9610  003584                     
  9611                           ; BSR set to: 61
  9612                           ;/home/dev-user/Projects/Personal/PIC/PIC18Test1.X/interrupts.c: 50:         uint8_t rx_
      +                          val = U1RXB;
  9613  003584  006F F7A0  F00E    	movff	15848,RX_ISR@rx_val	;volatile
  9614  00358A                     
  9615                           ; BSR set to: 61
  9616                           ;/home/dev-user/Projects/Personal/PIC/PIC18Test1.X/interrupts.c: 51:         if(!rx_frm_
      +                          error){
  9617  00358A  500C               	movf	RX_ISR@rx_frm_error^0,w,c
  9618  00358C  A4D8               	btfss	status,2,c
  9619  00358E  EFCB  F01A         	goto	i1u446_21
  9620  003592  EFCD  F01A         	goto	i1u446_20
  9621  003596                     i1u446_21:
  9622  003596  EF5B  F01B         	goto	i1l297
  9623  00359A                     i1u446_20:
  9624  00359A                     
  9625                           ; BSR set to: 61
  9626                           ;/home/dev-user/Projects/Personal/PIC/PIC18Test1.X/interrupts.c: 52:             if(uart
      +                          1_rx_buff_idx < 64){
  9627  00359A  0E40               	movlw	64
  9628  00359C  604B               	cpfslt	_uart1_rx_buff_idx^0,c
  9629  00359E  EFD3  F01A         	goto	i1u447_21
  9630  0035A2  EFD5  F01A         	goto	i1u447_20
  9631  0035A6                     i1u447_21:
  9632  0035A6  EF39  F01B         	goto	i1l5171
  9633  0035AA                     i1u447_20:
  9634  0035AA                     
  9635                           ; BSR set to: 61
  9636                           ;/home/dev-user/Projects/Personal/PIC/PIC18Test1.X/interrupts.c: 53:                 if(
      +                          rx_val != 0x0A && rx_val != 0x0D && rx_val != 0){
  9637  0035AA  0E0A               	movlw	10
  9638  0035AC  180E               	xorwf	RX_ISR@rx_val^0,w,c
  9639  0035AE  B4D8               	btfsc	status,2,c
  9640  0035B0  EFDC  F01A         	goto	i1u448_21
  9641  0035B4  EFDE  F01A         	goto	i1u448_20
  9642  0035B8                     i1u448_21:
  9643  0035B8  EFFB  F01A         	goto	i1l5151
  9644  0035BC                     i1u448_20:
  9645  0035BC                     
  9646                           ; BSR set to: 61
  9647  0035BC  0E0D               	movlw	13
  9648  0035BE  180E               	xorwf	RX_ISR@rx_val^0,w,c
  9649  0035C0  B4D8               	btfsc	status,2,c
  9650  0035C2  EFE5  F01A         	goto	i1u449_21
  9651  0035C6  EFE7  F01A         	goto	i1u449_20
  9652  0035CA                     i1u449_21:
  9653  0035CA  EFFB  F01A         	goto	i1l5151
  9654  0035CE                     i1u449_20:
  9655  0035CE                     
  9656                           ; BSR set to: 61
  9657  0035CE  500E               	movf	RX_ISR@rx_val^0,w,c
  9658  0035D0  B4D8               	btfsc	status,2,c
  9659  0035D2  EFED  F01A         	goto	i1u450_21
  9660  0035D6  EFEF  F01A         	goto	i1u450_20
  9661  0035DA                     i1u450_21:
  9662  0035DA  EFFB  F01A         	goto	i1l5151
  9663  0035DE                     i1u450_20:
  9664  0035DE                     
  9665                           ; BSR set to: 61
  9666                           ;/home/dev-user/Projects/Personal/PIC/PIC18Test1.X/interrupts.c: 54:                    
      +                           uart1_rx_buff_isr[uart1_rx_buff_idx++] = rx_val;
  9667  0035DE  0E40               	movlw	low _uart1_rx_buff_isr
  9668  0035E0  244B               	addwf	_uart1_rx_buff_idx^0,w,c
  9669  0035E2  6ED9               	movwf	fsr2l,c
  9670  0035E4  6ADA               	clrf	fsr2h,c
  9671  0035E6  0E01               	movlw	high _uart1_rx_buff_isr
  9672  0035E8  22DA               	addwfc	fsr2h,f,c
  9673  0035EA  0060  F03B  FFDF   	movff	RX_ISR@rx_val,indf2
  9674  0035F0                     
  9675                           ; BSR set to: 61
  9676  0035F0  2A4B               	incf	_uart1_rx_buff_idx^0,f,c
  9677                           
  9678                           ;/home/dev-user/Projects/Personal/PIC/PIC18Test1.X/interrupts.c: 55:                 } e
      +                          lse if(uart1_rx_buff_idx != 0){
  9679  0035F2  EF5B  F01B         	goto	i1l297
  9680  0035F6                     i1l5151:
  9681                           
  9682                           ; BSR set to: 61
  9683  0035F6  504B               	movf	_uart1_rx_buff_idx^0,w,c
  9684  0035F8  B4D8               	btfsc	status,2,c
  9685  0035FA  EF01  F01B         	goto	i1u451_21
  9686  0035FE  EF03  F01B         	goto	i1u451_20
  9687  003602                     i1u451_21:
  9688  003602  EF5B  F01B         	goto	i1l286
  9689  003606                     i1u451_20:
  9690  003606                     
  9691                           ; BSR set to: 61
  9692                           ;/home/dev-user/Projects/Personal/PIC/PIC18Test1.X/interrupts.c: 56:                    
      +                           for(uint8_t i = 0; i < uart1_rx_buff_idx; i++){
  9693  003606  0E00               	movlw	0
  9694  003608  6E0F               	movwf	RX_ISR@i^0,c
  9695  00360A  EF1F  F01B         	goto	i1l5161
  9696  00360E                     i1l5155:
  9697                           
  9698                           ;/home/dev-user/Projects/Personal/PIC/PIC18Test1.X/interrupts.c: 57:                    
      +                               uart1_rx_buff_use[i] = uart1_rx_buff_isr[i];
  9699  00360E  0E40               	movlw	low _uart1_rx_buff_isr
  9700  003610  240F               	addwf	RX_ISR@i^0,w,c
  9701  003612  6ED9               	movwf	fsr2l,c
  9702  003614  6ADA               	clrf	fsr2h,c
  9703  003616  0E01               	movlw	high _uart1_rx_buff_isr
  9704  003618  22DA               	addwfc	fsr2h,f,c
  9705  00361A  0E40               	movlw	low _uart1_rx_buff_use
  9706  00361C  240F               	addwf	RX_ISR@i^0,w,c
  9707  00361E  6EE1               	movwf	fsr1l,c
  9708  003620  6AE2               	clrf	fsr1h,c
  9709  003622  0E02               	movlw	high _uart1_rx_buff_use
  9710  003624  22E2               	addwfc	fsr1h,f,c
  9711  003626  006F FF7F FFE7     	movff	indf2,indf1
  9712  00362C                     
  9713                           ;/home/dev-user/Projects/Personal/PIC/PIC18Test1.X/interrupts.c: 58:                    
      +                               uart1_rx_buff_isr[i] = 0;
  9714  00362C  0E40               	movlw	low _uart1_rx_buff_isr
  9715  00362E  240F               	addwf	RX_ISR@i^0,w,c
  9716  003630  6ED9               	movwf	fsr2l,c
  9717  003632  6ADA               	clrf	fsr2h,c
  9718  003634  0E01               	movlw	high _uart1_rx_buff_isr
  9719  003636  22DA               	addwfc	fsr2h,f,c
  9720  003638  0E00               	movlw	0
  9721  00363A  6EDF               	movwf	indf2,c
  9722  00363C                     
  9723                           ;/home/dev-user/Projects/Personal/PIC/PIC18Test1.X/interrupts.c: 59:                    
      +                           }
  9724  00363C  2A0F               	incf	RX_ISR@i^0,f,c
  9725  00363E                     i1l5161:
  9726  00363E  504B               	movf	_uart1_rx_buff_idx^0,w,c
  9727  003640  5C0F               	subwf	RX_ISR@i^0,w,c
  9728  003642  A0D8               	btfss	status,0,c
  9729  003644  EF26  F01B         	goto	i1u452_21
  9730  003648  EF28  F01B         	goto	i1u452_20
  9731  00364C                     i1u452_21:
  9732  00364C  EF07  F01B         	goto	i1l5155
  9733  003650                     i1u452_20:
  9734  003650                     
  9735                           ;/home/dev-user/Projects/Personal/PIC/PIC18Test1.X/interrupts.c: 60:                    
      +                           uart1_rx_buff_use[uart1_rx_buff_idx] = 0;
  9736  003650  0E40               	movlw	low _uart1_rx_buff_use
  9737  003652  244B               	addwf	_uart1_rx_buff_idx^0,w,c
  9738  003654  6ED9               	movwf	fsr2l,c
  9739  003656  6ADA               	clrf	fsr2h,c
  9740  003658  0E02               	movlw	high _uart1_rx_buff_use
  9741  00365A  22DA               	addwfc	fsr2h,f,c
  9742  00365C  0E00               	movlw	0
  9743  00365E  6EDF               	movwf	indf2,c
  9744  003660                     
  9745                           ;/home/dev-user/Projects/Personal/PIC/PIC18Test1.X/interrupts.c: 61:                    
      +                           uart1_rx_buff_load_cnt = uart1_rx_buff_idx;
  9746  003660  C04B  F04A         	movff	_uart1_rx_buff_idx,_uart1_rx_buff_load_cnt
  9747  003664                     
  9748                           ;/home/dev-user/Projects/Personal/PIC/PIC18Test1.X/interrupts.c: 62:                    
      +                           uart1_rx_msg_present = 1;
  9749  003664  0E01               	movlw	1
  9750  003666  0100               	movlb	0	; () banked
  9751  003668  6FC6               	movwf	_uart1_rx_msg_present& (0+255),b
  9752  00366A                     
  9753                           ; BSR set to: 0
  9754                           ;/home/dev-user/Projects/Personal/PIC/PIC18Test1.X/interrupts.c: 63:                    
      +                           uart1_rx_buff_idx = 0;
  9755  00366A  0E00               	movlw	0
  9756  00366C  6E4B               	movwf	_uart1_rx_buff_idx^0,c
  9757  00366E  EF5B  F01B         	goto	i1l297
  9758  003672                     i1l5171:
  9759                           
  9760                           ; BSR set to: 61
  9761                           ;/home/dev-user/Projects/Personal/PIC/PIC18Test1.X/interrupts.c: 67:                 for
      +                          (uint8_t i = 0; i < 64; i++){
  9762  003672  0E00               	movlw	0
  9763  003674  6E10               	movwf	RX_ISR@i_639^0,c
  9764  003676                     i1l5177:
  9765                           
  9766                           ;/home/dev-user/Projects/Personal/PIC/PIC18Test1.X/interrupts.c: 68:                    
      +                           uart1_rx_buff_isr[i] = 0;
  9767  003676  0E40               	movlw	low _uart1_rx_buff_isr
  9768  003678  2410               	addwf	RX_ISR@i_639^0,w,c
  9769  00367A  6ED9               	movwf	fsr2l,c
  9770  00367C  6ADA               	clrf	fsr2h,c
  9771  00367E  0E01               	movlw	high _uart1_rx_buff_isr
  9772  003680  22DA               	addwfc	fsr2h,f,c
  9773  003682  0E00               	movlw	0
  9774  003684  6EDF               	movwf	indf2,c
  9775                           
  9776                           ;/home/dev-user/Projects/Personal/PIC/PIC18Test1.X/interrupts.c: 69:                    
      +                           uart1_rx_buff_use[i] = 0;
  9777  003686  0E40               	movlw	low _uart1_rx_buff_use
  9778  003688  2410               	addwf	RX_ISR@i_639^0,w,c
  9779  00368A  6ED9               	movwf	fsr2l,c
  9780  00368C  6ADA               	clrf	fsr2h,c
  9781  00368E  0E02               	movlw	high _uart1_rx_buff_use
  9782  003690  22DA               	addwfc	fsr2h,f,c
  9783  003692  0E00               	movlw	0
  9784  003694  6EDF               	movwf	indf2,c
  9785  003696                     
  9786                           ;/home/dev-user/Projects/Personal/PIC/PIC18Test1.X/interrupts.c: 70:                 }
  9787  003696  2A10               	incf	RX_ISR@i_639^0,f,c
  9788  003698  0E3F               	movlw	63
  9789  00369A  6410               	cpfsgt	RX_ISR@i_639^0,c
  9790  00369C  EF52  F01B         	goto	i1u453_21
  9791  0036A0  EF54  F01B         	goto	i1u453_20
  9792  0036A4                     i1u453_21:
  9793  0036A4  EF3B  F01B         	goto	i1l5177
  9794  0036A8                     i1u453_20:
  9795  0036A8                     
  9796                           ;/home/dev-user/Projects/Personal/PIC/PIC18Test1.X/interrupts.c: 71:                 uar
      +                          t1_rx_buff_idx = 0;
  9797  0036A8  0E00               	movlw	0
  9798  0036AA  6E4B               	movwf	_uart1_rx_buff_idx^0,c
  9799                           
  9800                           ;/home/dev-user/Projects/Personal/PIC/PIC18Test1.X/interrupts.c: 72:                 uar
      +                          t1_rx_msg_present = 0;
  9801  0036AC  0E00               	movlw	0
  9802  0036AE  0100               	movlb	0	; () banked
  9803  0036B0  6FC6               	movwf	_uart1_rx_msg_present& (0+255),b
  9804  0036B2  EF5B  F01B         	goto	i1l297
  9805  0036B6                     i1l286:
  9806  0036B6                     i1l297:
  9807  0036B6  0060  F02F  FFD8   	movff	??_RX_ISR,status
  9808  0036BC  0011               	retfie		f
  9809  0036BE                     __end_of_RX_ISR:
  9810                           	callstack 0
  9811                           
  9812 ;; *************** function _DEFAULT_ISR *****************
  9813 ;; Defined at:
  9814 ;;		line 78 in file "/home/dev-user/Projects/Personal/PIC/PIC18Test1.X/interrupts.c"
  9815 ;; Parameters:    Size  Location     Type
  9816 ;;		None
  9817 ;; Auto vars:     Size  Location     Type
  9818 ;;		None
  9819 ;; Return value:  Size  Location     Type
  9820 ;;                  1    wreg      void 
  9821 ;; Registers used:
  9822 ;;		None
  9823 ;; Tracked objects:
  9824 ;;		On entry : 0/0
  9825 ;;		On exit  : 0/0
  9826 ;;		Unchanged: 0/0
  9827 ;; Data sizes:     COMRAM   BANK0   BANK1   BANK2   BANK3   BANK4   BANK5   BANK6   BANK7   BANK8   BANK9  BANK10  BANK1
      +1  BANK12  BANK13  BANK14  BANK15  BANK16  BANK17  BANK18  BANK19  BANK20  BANK21  BANK22  BANK23  BANK24  BANK25  BANK2
      +6  BANK27  BANK28  BANK29  BANK30  BANK31
  9828 ;;      Params:         0       0       0       0       0       0       0       0       0       0       0       0       
      +0       0       0       0       0       0       0       0       0       0       0       0       0       0       0       
      +0       0       0       0       0       0
  9829 ;;      Locals:         0       0       0       0       0       0       0       0       0       0       0       0       
      +0       0       0       0       0       0       0       0       0       0       0       0       0       0       0       
      +0       0       0       0       0       0
  9830 ;;      Temps:          0       0       0       0       0       0       0       0       0       0       0       0       
      +0       0       0       0       0       0       0       0       0       0       0       0       0       0       0       
      +0       0       0       0       0       0
  9831 ;;      Totals:         0       0       0       0       0       0       0       0       0       0       0       0       
      +0       0       0       0       0       0       0       0       0       0       0       0       0       0       0       
      +0       0       0       0       0       0
  9832 ;;Total ram usage:        0 bytes
  9833 ;; Hardware stack levels used:    1
  9834 ;; Hardware stack levels required when called:    2
  9835 ;; This function calls:
  9836 ;;		Nothing
  9837 ;; This function is called by:
  9838 ;;		Interrupt level 1
  9839 ;; This function uses a non-reentrant model
  9840 ;;
  9841                           
  9842                           	psect	text57
  9843  004F88                     __ptext57:
  9844                           	callstack 0
  9845  004F88                     _DEFAULT_ISR:
  9846                           	callstack 20
  9847  004F88  0011               	retfie		f
  9848  004F8A                     __end_of_DEFAULT_ISR:
  9849                           	callstack 0
  9850                           
  9851 ;; *************** function _TMR4_ISR *****************
  9852 ;; Defined at:
  9853 ;;		line 3 in file "/home/dev-user/Projects/Personal/PIC/PIC18Test1.X/interrupts.c"
  9854 ;; Parameters:    Size  Location     Type
  9855 ;;		None
  9856 ;; Auto vars:     Size  Location     Type
  9857 ;;		None
  9858 ;; Return value:  Size  Location     Type
  9859 ;;                  1    wreg      void 
  9860 ;; Registers used:
  9861 ;;		wreg, fsr2l, fsr2h, status,2, status,0, cstack
  9862 ;; Tracked objects:
  9863 ;;		On entry : 0/0
  9864 ;;		On exit  : 0/0
  9865 ;;		Unchanged: 0/0
  9866 ;; Data sizes:     COMRAM   BANK0   BANK1   BANK2   BANK3   BANK4   BANK5   BANK6   BANK7   BANK8   BANK9  BANK10  BANK1
      +1  BANK12  BANK13  BANK14  BANK15  BANK16  BANK17  BANK18  BANK19  BANK20  BANK21  BANK22  BANK23  BANK24  BANK25  BANK2
      +6  BANK27  BANK28  BANK29  BANK30  BANK31
  9867 ;;      Params:         0       0       0       0       0       0       0       0       0       0       0       0       
      +0       0       0       0       0       0       0       0       0       0       0       0       0       0       0       
      +0       0       0       0       0       0
  9868 ;;      Locals:         0       0       0       0       0       0       0       0       0       0       0       0       
      +0       0       0       0       0       0       0       0       0       0       0       0       0       0       0       
      +0       0       0       0       0       0
  9869 ;;      Temps:          0       0       0       0       0       0       0       0       0       0       0       0       
      +0       0       0       0       0       0       0       0       0       0       0       0       0       0       0       
      +0       0       0       0       0       0
  9870 ;;      Totals:         0       0       0       0       0       0       0       0       0       0       0       0       
      +0       0       0       0       0       0       0       0       0       0       0       0       0       0       0       
      +0       0       0       0       0       0
  9871 ;;Total ram usage:        0 bytes
  9872 ;; Hardware stack levels used:    1
  9873 ;; Hardware stack levels required when called:    1
  9874 ;; This function calls:
  9875 ;;		___llmod
  9876 ;;		_updateDisp
  9877 ;; This function is called by:
  9878 ;;		Interrupt level 2
  9879 ;; This function uses a non-reentrant model
  9880 ;;
  9881                           
  9882                           	psect	text58
  9883  004624                     __ptext58:
  9884                           	callstack 0
  9885  004624                     _TMR4_ISR:
  9886                           	callstack 20
  9887  004624                     
  9888                           ;/home/dev-user/Projects/Personal/PIC/PIC18Test1.X/interrupts.c: 5:         TMR4IF = 0;
  9889  004624  0139               	movlb	57	; () banked
  9890  004626  91A7               	bcf	167,0,b	;volatile
  9891  004628                     
  9892                           ; BSR set to: 57
  9893                           ;/home/dev-user/Projects/Personal/PIC/PIC18Test1.X/interrupts.c: 8:         sys_time++;
  9894  004628  0E01               	movlw	1
  9895  00462A  0100               	movlb	0	; () banked
  9896  00462C  27B3               	addwf	_sys_time& (0+255),f,b	;volatile
  9897  00462E  0E00               	movlw	0
  9898  004630  23B4               	addwfc	(_sys_time+1)& (0+255),f,b	;volatile
  9899  004632  23B5               	addwfc	(_sys_time+2)& (0+255),f,b	;volatile
  9900  004634  23B6               	addwfc	(_sys_time+3)& (0+255),f,b	;volatile
  9901  004636                     
  9902                           ; BSR set to: 0
  9903                           ;/home/dev-user/Projects/Personal/PIC/PIC18Test1.X/interrupts.c: 10:         updateDisp(
      +                          );
  9904  004636  EC16  F026         	call	_updateDisp	;wreg free
  9905  00463A                     
  9906                           ;/home/dev-user/Projects/Personal/PIC/PIC18Test1.X/interrupts.c: 12:         if(sys_time
      +                          %500 == 0){
  9907  00463A  C0B3  F001         	movff	_sys_time,___llmod@dividend	;volatile
  9908  00463E  C0B4  F002         	movff	_sys_time+1,___llmod@dividend+1	;volatile
  9909  004642  C0B5  F003         	movff	_sys_time+2,___llmod@dividend+2	;volatile
  9910  004646  C0B6  F004         	movff	_sys_time+3,___llmod@dividend+3	;volatile
  9911  00464A  0EF4               	movlw	244
  9912  00464C  6E05               	movwf	___llmod@divisor^0,c
  9913  00464E  0E01               	movlw	1
  9914  004650  6E06               	movwf	(___llmod@divisor+1)^0,c
  9915  004652  0E00               	movlw	0
  9916  004654  6E07               	movwf	(___llmod@divisor+2)^0,c
  9917  004656  0E00               	movlw	0
  9918  004658  6E08               	movwf	(___llmod@divisor+3)^0,c
  9919  00465A  ECA9  F023         	call	___llmod	;wreg free
  9920  00465E  5001               	movf	?___llmod^0,w,c
  9921  004660  1002               	iorwf	(?___llmod+1)^0,w,c
  9922  004662  1003               	iorwf	(?___llmod+2)^0,w,c
  9923  004664  1004               	iorwf	(?___llmod+3)^0,w,c
  9924  004666  A4D8               	btfss	status,2,c
  9925  004668  EF38  F023         	goto	i2u439_41
  9926  00466C  EF3A  F023         	goto	i2u439_40
  9927  004670                     i2u439_41:
  9928  004670  EF3D  F023         	goto	i2l5101
  9929  004674                     i2u439_40:
  9930  004674                     
  9931                           ;/home/dev-user/Projects/Personal/PIC/PIC18Test1.X/interrupts.c: 13:             halfSec
      +                          ondTrigger = 1;
  9932  004674  0E01               	movlw	1
  9933  004676  0100               	movlb	0	; () banked
  9934  004678  6FC2               	movwf	_halfSecondTrigger& (0+255),b
  9935  00467A                     i2l5101:
  9936                           
  9937                           ;/home/dev-user/Projects/Personal/PIC/PIC18Test1.X/interrupts.c: 16:         if(sys_time
      +                          %2000 == 0){
  9938  00467A  C0B3  F001         	movff	_sys_time,___llmod@dividend	;volatile
  9939  00467E  C0B4  F002         	movff	_sys_time+1,___llmod@dividend+1	;volatile
  9940  004682  C0B5  F003         	movff	_sys_time+2,___llmod@dividend+2	;volatile
  9941  004686  C0B6  F004         	movff	_sys_time+3,___llmod@dividend+3	;volatile
  9942  00468A  0ED0               	movlw	208
  9943  00468C  6E05               	movwf	___llmod@divisor^0,c
  9944  00468E  0E07               	movlw	7
  9945  004690  6E06               	movwf	(___llmod@divisor+1)^0,c
  9946  004692  0E00               	movlw	0
  9947  004694  6E07               	movwf	(___llmod@divisor+2)^0,c
  9948  004696  0E00               	movlw	0
  9949  004698  6E08               	movwf	(___llmod@divisor+3)^0,c
  9950  00469A  ECA9  F023         	call	___llmod	;wreg free
  9951  00469E  5001               	movf	?___llmod^0,w,c
  9952  0046A0  1002               	iorwf	(?___llmod+1)^0,w,c
  9953  0046A2  1003               	iorwf	(?___llmod+2)^0,w,c
  9954  0046A4  1004               	iorwf	(?___llmod+3)^0,w,c
  9955  0046A6  A4D8               	btfss	status,2,c
  9956  0046A8  EF58  F023         	goto	i2u440_41
  9957  0046AC  EF5A  F023         	goto	i2u440_40
  9958  0046B0                     i2u440_41:
  9959  0046B0  EF5D  F023         	goto	i2l271
  9960  0046B4                     i2u440_40:
  9961  0046B4                     
  9962                           ;/home/dev-user/Projects/Personal/PIC/PIC18Test1.X/interrupts.c: 17:             twoSeco
      +                          ndTrigger = 1;
  9963  0046B4  0E01               	movlw	1
  9964  0046B6  0100               	movlb	0	; () banked
  9965  0046B8  6FC1               	movwf	_twoSecondTrigger& (0+255),b
  9966  0046BA                     i2l271:
  9967  0046BA  0011               	retfie		f
  9968  0046BC                     __end_of_TMR4_ISR:
  9969                           	callstack 0
  9970                           
  9971 ;; *************** function _updateDisp *****************
  9972 ;; Defined at:
  9973 ;;		line 191 in file "/home/dev-user/Projects/Personal/PIC/LibOutputDevices.X/disp_7seg4dig.c"
  9974 ;; Parameters:    Size  Location     Type
  9975 ;;		None
  9976 ;; Auto vars:     Size  Location     Type
  9977 ;;		None
  9978 ;; Return value:  Size  Location     Type
  9979 ;;                  1    wreg      enum E16361
  9980 ;; Registers used:
  9981 ;;		wreg, fsr2l, fsr2h, status,2, status,0
  9982 ;; Tracked objects:
  9983 ;;		On entry : 0/0
  9984 ;;		On exit  : 0/0
  9985 ;;		Unchanged: 0/0
  9986 ;; Data sizes:     COMRAM   BANK0   BANK1   BANK2   BANK3   BANK4   BANK5   BANK6   BANK7   BANK8   BANK9  BANK10  BANK1
      +1  BANK12  BANK13  BANK14  BANK15  BANK16  BANK17  BANK18  BANK19  BANK20  BANK21  BANK22  BANK23  BANK24  BANK25  BANK2
      +6  BANK27  BANK28  BANK29  BANK30  BANK31
  9987 ;;      Params:         0       0       0       0       0       0       0       0       0       0       0       0       
      +0       0       0       0       0       0       0       0       0       0       0       0       0       0       0       
      +0       0       0       0       0       0
  9988 ;;      Locals:         0       0       0       0       0       0       0       0       0       0       0       0       
      +0       0       0       0       0       0       0       0       0       0       0       0       0       0       0       
      +0       0       0       0       0       0
  9989 ;;      Temps:          2       0       0       0       0       0       0       0       0       0       0       0       
      +0       0       0       0       0       0       0       0       0       0       0       0       0       0       0       
      +0       0       0       0       0       0
  9990 ;;      Totals:         2       0       0       0       0       0       0       0       0       0       0       0       
      +0       0       0       0       0       0       0       0       0       0       0       0       0       0       0       
      +0       0       0       0       0       0
  9991 ;;Total ram usage:        2 bytes
  9992 ;; Hardware stack levels used:    1
  9993 ;; This function calls:
  9994 ;;		Nothing
  9995 ;; This function is called by:
  9996 ;;		_TMR4_ISR
  9997 ;; This function uses a non-reentrant model
  9998 ;;
  9999                           
 10000                           	psect	text59
 10001  004C2C                     __ptext59:
 10002                           	callstack 0
 10003  004C2C                     _updateDisp:
 10004                           	callstack 20
 10005  004C2C                     
 10006                           ;/home/dev-user/Projects/Personal/PIC/LibOutputDevices.X/disp_7seg4dig.c: 222:     LATC 
      +                          &= 0xF0;
 10007  004C2C  0EF0               	movlw	240
 10008  004C2E  16BC               	andwf	188,f,c	;volatile
 10009                           
 10010                           ;/home/dev-user/Projects/Personal/PIC/LibOutputDevices.X/disp_7seg4dig.c: 223:     LATC 
      +                          |= 1<<dig_idx;
 10011  004C30  C048  F001         	movff	_dig_idx,??_updateDisp
 10012  004C34  0E01               	movlw	1
 10013  004C36  6E02               	movwf	(??_updateDisp+1)^0,c
 10014  004C38  2A01               	incf	??_updateDisp^0,f,c
 10015  004C3A  EF21  F026         	goto	i2u430_44
 10016  004C3E                     i2u430_45:
 10017  004C3E  90D8               	bcf	status,0,c
 10018  004C40  3602               	rlcf	(??_updateDisp+1)^0,f,c
 10019  004C42                     i2u430_44:
 10020  004C42  2E01               	decfsz	??_updateDisp^0,f,c
 10021  004C44  EF1F  F026         	goto	i2u430_45
 10022  004C48  5002               	movf	(??_updateDisp+1)^0,w,c
 10023  004C4A  12BC               	iorwf	188,f,c	;volatile
 10024  004C4C                     
 10025                           ;/home/dev-user/Projects/Personal/PIC/LibOutputDevices.X/disp_7seg4dig.c: 225:     LATD 
      +                          = dig_disp_val[dig_idx];
 10026  004C4C  0E3E               	movlw	low _dig_disp_val
 10027  004C4E  2448               	addwf	_dig_idx^0,w,c
 10028  004C50  6ED9               	movwf	fsr2l,c
 10029  004C52  6ADA               	clrf	fsr2h,c
 10030  004C54  0E00               	movlw	high _dig_disp_val
 10031  004C56  22DA               	addwfc	fsr2h,f,c
 10032  004C58  50DF               	movf	indf2,w,c
 10033  004C5A  6EBD               	movwf	189,c	;volatile
 10034  004C5C                     
 10035                           ;/home/dev-user/Projects/Personal/PIC/LibOutputDevices.X/disp_7seg4dig.c: 226:     dig_i
      +                          dx++;
 10036  004C5C  2A48               	incf	_dig_idx^0,f,c
 10037  004C5E                     
 10038                           ;/home/dev-user/Projects/Personal/PIC/LibOutputDevices.X/disp_7seg4dig.c: 227:     if(di
      +                          g_idx >= 4)
 10039  004C5E  0E03               	movlw	3
 10040  004C60  6448               	cpfsgt	_dig_idx^0,c
 10041  004C62  EF35  F026         	goto	i2u431_41
 10042  004C66  EF37  F026         	goto	i2u431_40
 10043  004C6A                     i2u431_41:
 10044  004C6A  EF39  F026         	goto	i2l663
 10045  004C6E                     i2u431_40:
 10046  004C6E                     
 10047                           ;/home/dev-user/Projects/Personal/PIC/LibOutputDevices.X/disp_7seg4dig.c: 228:         d
      +                          ig_idx = 0;
 10048  004C6E  0E00               	movlw	0
 10049  004C70  6E48               	movwf	_dig_idx^0,c
 10050  004C72                     i2l663:
 10051  004C72  0012               	return		;funcret
 10052  004C74                     __end_of_updateDisp:
 10053                           	callstack 0
 10054                           
 10055 ;; *************** function ___llmod *****************
 10056 ;; Defined at:
 10057 ;;		line 7 in file "/opt/microchip/xc8/v2.30/pic/sources/c99/common/llmod.c"
 10058 ;; Parameters:    Size  Location     Type
 10059 ;;  dividend        4    0[COMRAM] unsigned long 
 10060 ;;  divisor         4    4[COMRAM] unsigned long 
 10061 ;; Auto vars:     Size  Location     Type
 10062 ;;  counter         1    8[COMRAM] unsigned char 
 10063 ;; Return value:  Size  Location     Type
 10064 ;;                  4    0[COMRAM] unsigned long 
 10065 ;; Registers used:
 10066 ;;		wreg, status,2, status,0
 10067 ;; Tracked objects:
 10068 ;;		On entry : 0/0
 10069 ;;		On exit  : 0/0
 10070 ;;		Unchanged: 0/0
 10071 ;; Data sizes:     COMRAM   BANK0   BANK1   BANK2   BANK3   BANK4   BANK5   BANK6   BANK7   BANK8   BANK9  BANK10  BANK1
      +1  BANK12  BANK13  BANK14  BANK15  BANK16  BANK17  BANK18  BANK19  BANK20  BANK21  BANK22  BANK23  BANK24  BANK25  BANK2
      +6  BANK27  BANK28  BANK29  BANK30  BANK31
 10072 ;;      Params:         8       0       0       0       0       0       0       0       0       0       0       0       
      +0       0       0       0       0       0       0       0       0       0       0       0       0       0       0       
      +0       0       0       0       0       0
 10073 ;;      Locals:         1       0       0       0       0       0       0       0       0       0       0       0       
      +0       0       0       0       0       0       0       0       0       0       0       0       0       0       0       
      +0       0       0       0       0       0
 10074 ;;      Temps:          0       0       0       0       0       0       0       0       0       0       0       0       
      +0       0       0       0       0       0       0       0       0       0       0       0       0       0       0       
      +0       0       0       0       0       0
 10075 ;;      Totals:         9       0       0       0       0       0       0       0       0       0       0       0       
      +0       0       0       0       0       0       0       0       0       0       0       0       0       0       0       
      +0       0       0       0       0       0
 10076 ;;Total ram usage:        9 bytes
 10077 ;; Hardware stack levels used:    1
 10078 ;; This function calls:
 10079 ;;		Nothing
 10080 ;; This function is called by:
 10081 ;;		_TMR4_ISR
 10082 ;; This function uses a non-reentrant model
 10083 ;;
 10084                           
 10085                           	psect	text60
 10086  004752                     __ptext60:
 10087                           	callstack 0
 10088  004752                     ___llmod:
 10089                           	callstack 20
 10090  004752  5005               	movf	___llmod@divisor^0,w,c
 10091  004754  1006               	iorwf	(___llmod@divisor+1)^0,w,c
 10092  004756  1007               	iorwf	(___llmod@divisor+2)^0,w,c
 10093  004758  1008               	iorwf	(___llmod@divisor+3)^0,w,c
 10094  00475A  B4D8               	btfsc	status,2,c
 10095  00475C  EFB2  F023         	goto	i2u432_41
 10096  004760  EFB4  F023         	goto	i2u432_40
 10097  004764                     i2u432_41:
 10098  004764  EFE4  F023         	goto	i2l1585
 10099  004768                     i2u432_40:
 10100  004768  0E01               	movlw	1
 10101  00476A  6E09               	movwf	___llmod@counter^0,c
 10102  00476C  EFBE  F023         	goto	i2l5039
 10103  004770                     i2l5037:
 10104  004770  90D8               	bcf	status,0,c
 10105  004772  3605               	rlcf	___llmod@divisor^0,f,c
 10106  004774  3606               	rlcf	(___llmod@divisor+1)^0,f,c
 10107  004776  3607               	rlcf	(___llmod@divisor+2)^0,f,c
 10108  004778  3608               	rlcf	(___llmod@divisor+3)^0,f,c
 10109  00477A  2A09               	incf	___llmod@counter^0,f,c
 10110  00477C                     i2l5039:
 10111  00477C  AE08               	btfss	(___llmod@divisor+3)^0,7,c
 10112  00477E  EFC3  F023         	goto	i2u433_41
 10113  004782  EFC5  F023         	goto	i2u433_40
 10114  004786                     i2u433_41:
 10115  004786  EFB8  F023         	goto	i2l5037
 10116  00478A                     i2u433_40:
 10117  00478A                     i2l5041:
 10118  00478A  5005               	movf	___llmod@divisor^0,w,c
 10119  00478C  5C01               	subwf	___llmod@dividend^0,w,c
 10120  00478E  5006               	movf	(___llmod@divisor+1)^0,w,c
 10121  004790  5802               	subwfb	(___llmod@dividend+1)^0,w,c
 10122  004792  5007               	movf	(___llmod@divisor+2)^0,w,c
 10123  004794  5803               	subwfb	(___llmod@dividend+2)^0,w,c
 10124  004796  5008               	movf	(___llmod@divisor+3)^0,w,c
 10125  004798  5804               	subwfb	(___llmod@dividend+3)^0,w,c
 10126  00479A  A0D8               	btfss	status,0,c
 10127  00479C  EFD2  F023         	goto	i2u434_41
 10128  0047A0  EFD4  F023         	goto	i2u434_40
 10129  0047A4                     i2u434_41:
 10130  0047A4  EFDC  F023         	goto	i2l5045
 10131  0047A8                     i2u434_40:
 10132  0047A8  5005               	movf	___llmod@divisor^0,w,c
 10133  0047AA  5E01               	subwf	___llmod@dividend^0,f,c
 10134  0047AC  5006               	movf	(___llmod@divisor+1)^0,w,c
 10135  0047AE  5A02               	subwfb	(___llmod@dividend+1)^0,f,c
 10136  0047B0  5007               	movf	(___llmod@divisor+2)^0,w,c
 10137  0047B2  5A03               	subwfb	(___llmod@dividend+2)^0,f,c
 10138  0047B4  5008               	movf	(___llmod@divisor+3)^0,w,c
 10139  0047B6  5A04               	subwfb	(___llmod@dividend+3)^0,f,c
 10140  0047B8                     i2l5045:
 10141  0047B8  90D8               	bcf	status,0,c
 10142  0047BA  3208               	rrcf	(___llmod@divisor+3)^0,f,c
 10143  0047BC  3207               	rrcf	(___llmod@divisor+2)^0,f,c
 10144  0047BE  3206               	rrcf	(___llmod@divisor+1)^0,f,c
 10145  0047C0  3205               	rrcf	___llmod@divisor^0,f,c
 10146  0047C2  2E09               	decfsz	___llmod@counter^0,f,c
 10147  0047C4  EFC5  F023         	goto	i2l5041
 10148  0047C8                     i2l1585:
 10149  0047C8  C001  F001         	movff	___llmod@dividend,?___llmod
 10150  0047CC  C002  F002         	movff	___llmod@dividend+1,?___llmod+1
 10151  0047D0  C003  F003         	movff	___llmod@dividend+2,?___llmod+2
 10152  0047D4  C004  F004         	movff	___llmod@dividend+3,?___llmod+3
 10153  0047D8  0012               	return		;funcret
 10154  0047DA                     __end_of___llmod:
 10155                           	callstack 0
 10156                           
 10157 ;; *************** function _stepper0ISR *****************
 10158 ;; Defined at:
 10159 ;;		line 30 in file "/home/dev-user/Projects/Personal/PIC/LibOutputDevices.X/stepper.c"
 10160 ;; Parameters:    Size  Location     Type
 10161 ;;		None
 10162 ;; Auto vars:     Size  Location     Type
 10163 ;;		None
 10164 ;; Return value:  Size  Location     Type
 10165 ;;                  1    wreg      void 
 10166 ;; Registers used:
 10167 ;;		wreg, status,2, status,0
 10168 ;; Tracked objects:
 10169 ;;		On entry : 0/0
 10170 ;;		On exit  : 0/0
 10171 ;;		Unchanged: 0/0
 10172 ;; Data sizes:     COMRAM   BANK0   BANK1   BANK2   BANK3   BANK4   BANK5   BANK6   BANK7   BANK8   BANK9  BANK10  BANK1
      +1  BANK12  BANK13  BANK14  BANK15  BANK16  BANK17  BANK18  BANK19  BANK20  BANK21  BANK22  BANK23  BANK24  BANK25  BANK2
      +6  BANK27  BANK28  BANK29  BANK30  BANK31
 10173 ;;      Params:         0       0       0       0       0       0       0       0       0       0       0       0       
      +0       0       0       0       0       0       0       0       0       0       0       0       0       0       0       
      +0       0       0       0       0       0
 10174 ;;      Locals:         0       0       0       0       0       0       0       0       0       0       0       0       
      +0       0       0       0       0       0       0       0       0       0       0       0       0       0       0       
      +0       0       0       0       0       0
 10175 ;;      Temps:          0       0       0       0       0       0       0       0       0       0       0       0       
      +0       0       0       0       0       0       0       0       0       0       0       0       0       0       0       
      +0       0       0       0       0       0
 10176 ;;      Totals:         0       0       0       0       0       0       0       0       0       0       0       0       
      +0       0       0       0       0       0       0       0       0       0       0       0       0       0       0       
      +0       0       0       0       0       0
 10177 ;;Total ram usage:        0 bytes
 10178 ;; Hardware stack levels used:    1
 10179 ;; This function calls:
 10180 ;;		Nothing
 10181 ;; This function is called by:
 10182 ;;		Interrupt level 2
 10183 ;; This function uses a non-reentrant model
 10184 ;;
 10185                           
 10186                           	psect	text61
 10187  004EB8                     __ptext61:
 10188                           	callstack 0
 10189  004EB8                     _stepper0ISR:
 10190                           	callstack 21
 10191  004EB8                     
 10192                           ;/home/dev-user/Projects/Personal/PIC/LibOutputDevices.X/stepper.c: 35:         TMR1IF =
      +                           0;
 10193  004EB8  0139               	movlb	57	; () banked
 10194  004EBA  91A4               	bcf	164,0,b	;volatile
 10195  004EBC                     
 10196                           ; BSR set to: 57
 10197                           ;/home/dev-user/Projects/Personal/PIC/LibOutputDevices.X/stepper.c: 36:         if(pendi
      +                          ngSteps0 == 0){
 10198  004EBC  0101               	movlb	1	; () banked
 10199  004EBE  5192               	movf	_pendingSteps0& (0+255),w,b
 10200  004EC0  1193               	iorwf	(_pendingSteps0+1)& (0+255),w,b
 10201  004EC2  A4D8               	btfss	status,2,c
 10202  004EC4  EF66  F027         	goto	i2u454_41
 10203  004EC8  EF68  F027         	goto	i2u454_40
 10204  004ECC                     i2u454_41:
 10205  004ECC  EF6B  F027         	goto	i2l767
 10206  004ED0                     i2u454_40:
 10207  004ED0                     
 10208                           ; BSR set to: 1
 10209                           ;/home/dev-user/Projects/Personal/PIC/LibOutputDevices.X/stepper.c: 37:             step
      +                          OutVal0 = 0x00;
 10210  004ED0  0E00               	movlw	0
 10211  004ED2  0100               	movlb	0	; () banked
 10212  004ED4  6FC0               	movwf	_stepOutVal0& (0+255),b
 10213  004ED6                     i2l767:
 10214                           
 10215                           ;/home/dev-user/Projects/Personal/PIC/LibOutputDevices.X/stepper.c: 46:         allowSte
      +                          p0 = 1;
 10216  004ED6  0E01               	movlw	1
 10217  004ED8  0100               	movlb	0	; () banked
 10218  004EDA  6FBC               	movwf	_allowStep0& (0+255),b
 10219  004EDC                     
 10220                           ; BSR set to: 0
 10221  004EDC  0011               	retfie		f
 10222  004EDE                     __end_of_stepper0ISR:
 10223                           	callstack 0
 10224                           
 10225 ;; *************** function _stepper1ISR *****************
 10226 ;; Defined at:
 10227 ;;		line 243 in file "/home/dev-user/Projects/Personal/PIC/LibOutputDevices.X/stepper.c"
 10228 ;; Parameters:    Size  Location     Type
 10229 ;;		None
 10230 ;; Auto vars:     Size  Location     Type
 10231 ;;		None
 10232 ;; Return value:  Size  Location     Type
 10233 ;;                  1    wreg      void 
 10234 ;; Registers used:
 10235 ;;		wreg, status,2, status,0
 10236 ;; Tracked objects:
 10237 ;;		On entry : 0/0
 10238 ;;		On exit  : 0/0
 10239 ;;		Unchanged: 0/0
 10240 ;; Data sizes:     COMRAM   BANK0   BANK1   BANK2   BANK3   BANK4   BANK5   BANK6   BANK7   BANK8   BANK9  BANK10  BANK1
      +1  BANK12  BANK13  BANK14  BANK15  BANK16  BANK17  BANK18  BANK19  BANK20  BANK21  BANK22  BANK23  BANK24  BANK25  BANK2
      +6  BANK27  BANK28  BANK29  BANK30  BANK31
 10241 ;;      Params:         0       0       0       0       0       0       0       0       0       0       0       0       
      +0       0       0       0       0       0       0       0       0       0       0       0       0       0       0       
      +0       0       0       0       0       0
 10242 ;;      Locals:         0       0       0       0       0       0       0       0       0       0       0       0       
      +0       0       0       0       0       0       0       0       0       0       0       0       0       0       0       
      +0       0       0       0       0       0
 10243 ;;      Temps:          0       0       0       0       0       0       0       0       0       0       0       0       
      +0       0       0       0       0       0       0       0       0       0       0       0       0       0       0       
      +0       0       0       0       0       0
 10244 ;;      Totals:         0       0       0       0       0       0       0       0       0       0       0       0       
      +0       0       0       0       0       0       0       0       0       0       0       0       0       0       0       
      +0       0       0       0       0       0
 10245 ;;Total ram usage:        0 bytes
 10246 ;; Hardware stack levels used:    1
 10247 ;; This function calls:
 10248 ;;		Nothing
 10249 ;; This function is called by:
 10250 ;;		Interrupt level 2
 10251 ;; This function uses a non-reentrant model
 10252 ;;
 10253                           
 10254                           	psect	text62
 10255  004EE0                     __ptext62:
 10256                           	callstack 0
 10257  004EE0                     _stepper1ISR:
 10258                           	callstack 21
 10259  004EE0                     
 10260                           ;/home/dev-user/Projects/Personal/PIC/LibOutputDevices.X/stepper.c: 248:         TMR3IF 
      +                          = 0;
 10261  004EE0  0139               	movlb	57	; () banked
 10262  004EE2  9DA6               	bcf	166,6,b	;volatile
 10263  004EE4                     
 10264                           ; BSR set to: 57
 10265                           ;/home/dev-user/Projects/Personal/PIC/LibOutputDevices.X/stepper.c: 249:         if(pend
      +                          ingSteps1 == 0){
 10266  004EE4  0101               	movlb	1	; () banked
 10267  004EE6  5190               	movf	_pendingSteps1& (0+255),w,b
 10268  004EE8  1191               	iorwf	(_pendingSteps1+1)& (0+255),w,b
 10269  004EEA  A4D8               	btfss	status,2,c
 10270  004EEC  EF7A  F027         	goto	i2u455_41
 10271  004EF0  EF7C  F027         	goto	i2u455_40
 10272  004EF4                     i2u455_41:
 10273  004EF4  EF7F  F027         	goto	i2l816
 10274  004EF8                     i2u455_40:
 10275  004EF8                     
 10276                           ; BSR set to: 1
 10277                           ;/home/dev-user/Projects/Personal/PIC/LibOutputDevices.X/stepper.c: 250:             ste
      +                          pOutVal1 = 0x00;
 10278  004EF8  0E00               	movlw	0
 10279  004EFA  0100               	movlb	0	; () banked
 10280  004EFC  6FBB               	movwf	_stepOutVal1& (0+255),b
 10281  004EFE                     i2l816:
 10282                           
 10283                           ;/home/dev-user/Projects/Personal/PIC/LibOutputDevices.X/stepper.c: 259:         allowSt
      +                          ep1 = 1;
 10284  004EFE  0E01               	movlw	1
 10285  004F00  0100               	movlb	0	; () banked
 10286  004F02  6FB7               	movwf	_allowStep1& (0+255),b
 10287  004F04                     
 10288                           ; BSR set to: 0
 10289  004F04  0011               	retfie		f
 10290  004F06                     __end_of_stepper1ISR:
 10291                           	callstack 0
 10292                           
 10293 ;; *************** function _stepper2ISR *****************
 10294 ;; Defined at:
 10295 ;;		line 454 in file "/home/dev-user/Projects/Personal/PIC/LibOutputDevices.X/stepper.c"
 10296 ;; Parameters:    Size  Location     Type
 10297 ;;		None
 10298 ;; Auto vars:     Size  Location     Type
 10299 ;;		None
 10300 ;; Return value:  Size  Location     Type
 10301 ;;                  1    wreg      void 
 10302 ;; Registers used:
 10303 ;;		wreg, status,2, status,0
 10304 ;; Tracked objects:
 10305 ;;		On entry : 0/0
 10306 ;;		On exit  : 0/0
 10307 ;;		Unchanged: 0/0
 10308 ;; Data sizes:     COMRAM   BANK0   BANK1   BANK2   BANK3   BANK4   BANK5   BANK6   BANK7   BANK8   BANK9  BANK10  BANK1
      +1  BANK12  BANK13  BANK14  BANK15  BANK16  BANK17  BANK18  BANK19  BANK20  BANK21  BANK22  BANK23  BANK24  BANK25  BANK2
      +6  BANK27  BANK28  BANK29  BANK30  BANK31
 10309 ;;      Params:         0       0       0       0       0       0       0       0       0       0       0       0       
      +0       0       0       0       0       0       0       0       0       0       0       0       0       0       0       
      +0       0       0       0       0       0
 10310 ;;      Locals:         0       0       0       0       0       0       0       0       0       0       0       0       
      +0       0       0       0       0       0       0       0       0       0       0       0       0       0       0       
      +0       0       0       0       0       0
 10311 ;;      Temps:          0       0       0       0       0       0       0       0       0       0       0       0       
      +0       0       0       0       0       0       0       0       0       0       0       0       0       0       0       
      +0       0       0       0       0       0
 10312 ;;      Totals:         0       0       0       0       0       0       0       0       0       0       0       0       
      +0       0       0       0       0       0       0       0       0       0       0       0       0       0       0       
      +0       0       0       0       0       0
 10313 ;;Total ram usage:        0 bytes
 10314 ;; Hardware stack levels used:    1
 10315 ;; This function calls:
 10316 ;;		Nothing
 10317 ;; This function is called by:
 10318 ;;		Interrupt level 2
 10319 ;; This function uses a non-reentrant model
 10320 ;;
 10321                           
 10322                           	psect	text63
 10323  004F08                     __ptext63:
 10324                           	callstack 0
 10325  004F08                     _stepper2ISR:
 10326                           	callstack 21
 10327  004F08                     
 10328                           ;/home/dev-user/Projects/Personal/PIC/LibOutputDevices.X/stepper.c: 459:         TMR5IF 
      +                          = 0;
 10329  004F08  0139               	movlb	57	; () banked
 10330  004F0A  9DA8               	bcf	168,6,b	;volatile
 10331  004F0C                     
 10332                           ; BSR set to: 57
 10333                           ;/home/dev-user/Projects/Personal/PIC/LibOutputDevices.X/stepper.c: 460:         if(pend
      +                          ingSteps2 == 0){
 10334  004F0C  0101               	movlb	1	; () banked
 10335  004F0E  518E               	movf	_pendingSteps2& (0+255),w,b
 10336  004F10  118F               	iorwf	(_pendingSteps2+1)& (0+255),w,b
 10337  004F12  A4D8               	btfss	status,2,c
 10338  004F14  EF8E  F027         	goto	i2u456_41
 10339  004F18  EF90  F027         	goto	i2u456_40
 10340  004F1C                     i2u456_41:
 10341  004F1C  EF92  F027         	goto	i2l865
 10342  004F20                     i2u456_40:
 10343  004F20                     
 10344                           ; BSR set to: 1
 10345                           ;/home/dev-user/Projects/Personal/PIC/LibOutputDevices.X/stepper.c: 461:             ste
      +                          pOutVal2 = 0x00;
 10346  004F20  0E00               	movlw	0
 10347  004F22  6FA0               	movwf	_stepOutVal2& (0+255),b
 10348  004F24                     i2l865:
 10349                           
 10350                           ; BSR set to: 1
 10351                           ;/home/dev-user/Projects/Personal/PIC/LibOutputDevices.X/stepper.c: 470:         allowSt
      +                          ep2 = 1;
 10352  004F24  0E01               	movlw	1
 10353  004F26  6F9C               	movwf	_allowStep2& (0+255),b
 10354  004F28                     
 10355                           ; BSR set to: 1
 10356  004F28  0011               	retfie		f
 10357  004F2A                     __end_of_stepper2ISR:
 10358                           	callstack 0
 10359                           
 10360                           ;
 10361                           ; Interrupt Vector Table @ 0x8
 10362                           ;
 10363                           
 10364                           	psect	ivt0x8
 10365  000008                     __pivt0x8:
 10366                           	callstack 0
 10367  000008                     ivt0x8_base:
 10368                           	callstack 0
 10369                           
 10370                           ; Vector 0 : SWINT
 10371  000008  13E2               	dw	_DEFAULT_ISR shr (0+2)
 10372                           
 10373                           ; Vector 1 : HLVD
 10374  00000A  13E2               	dw	_DEFAULT_ISR shr (0+2)
 10375                           
 10376                           ; Vector 2 : OSF
 10377  00000C  13E2               	dw	_DEFAULT_ISR shr (0+2)
 10378                           
 10379                           ; Vector 3 : CSW
 10380  00000E  13E2               	dw	_DEFAULT_ISR shr (0+2)
 10381                           
 10382                           ; Vector 4 : NVM
 10383  000010  13E2               	dw	_DEFAULT_ISR shr (0+2)
 10384                           
 10385                           ; Vector 5 : SCAN
 10386  000012  13E2               	dw	_DEFAULT_ISR shr (0+2)
 10387                           
 10388                           ; Vector 6 : CRC
 10389  000014  13E2               	dw	_DEFAULT_ISR shr (0+2)
 10390                           
 10391                           ; Vector 7 : IOC
 10392  000016  13E2               	dw	_DEFAULT_ISR shr (0+2)
 10393                           
 10394                           ; Vector 8 : INT0
 10395  000018  13E2               	dw	_DEFAULT_ISR shr (0+2)
 10396                           
 10397                           ; Vector 9 : ZCD
 10398  00001A  13E2               	dw	_DEFAULT_ISR shr (0+2)
 10399                           
 10400                           ; Vector 10 : AD
 10401  00001C  13E2               	dw	_DEFAULT_ISR shr (0+2)
 10402                           
 10403                           ; Vector 11 : ADT
 10404  00001E  13E2               	dw	_DEFAULT_ISR shr (0+2)
 10405                           
 10406                           ; Vector 12 : CMP1
 10407  000020  13E2               	dw	_DEFAULT_ISR shr (0+2)
 10408                           
 10409                           ; Vector 13 : SMT1
 10410  000022  13E2               	dw	_DEFAULT_ISR shr (0+2)
 10411                           
 10412                           ; Vector 14 : SMT1PRA
 10413  000024  13E2               	dw	_DEFAULT_ISR shr (0+2)
 10414                           
 10415                           ; Vector 15 : SMT1PRW
 10416  000026  13E2               	dw	_DEFAULT_ISR shr (0+2)
 10417                           
 10418                           ; Vector 16 : DMA1SCNT
 10419  000028  13E2               	dw	_DEFAULT_ISR shr (0+2)
 10420                           
 10421                           ; Vector 17 : DMA1DCNT
 10422  00002A  13E2               	dw	_DEFAULT_ISR shr (0+2)
 10423                           
 10424                           ; Vector 18 : DMA1OR
 10425  00002C  13E2               	dw	_DEFAULT_ISR shr (0+2)
 10426                           
 10427                           ; Vector 19 : DMA1A
 10428  00002E  13E2               	dw	_DEFAULT_ISR shr (0+2)
 10429                           
 10430                           ; Vector 20 : SPI1RX
 10431  000030  13E2               	dw	_DEFAULT_ISR shr (0+2)
 10432                           
 10433                           ; Vector 21 : SPI1TX
 10434  000032  13E2               	dw	_DEFAULT_ISR shr (0+2)
 10435                           
 10436                           ; Vector 22 : SPI1
 10437  000034  13E2               	dw	_DEFAULT_ISR shr (0+2)
 10438                           
 10439                           ; Vector 23 : I2C1RX
 10440  000036  13E2               	dw	_DEFAULT_ISR shr (0+2)
 10441                           
 10442                           ; Vector 24 : I2C1TX
 10443  000038  13E2               	dw	_DEFAULT_ISR shr (0+2)
 10444                           
 10445                           ; Vector 25 : I2C1
 10446  00003A  13E2               	dw	_DEFAULT_ISR shr (0+2)
 10447                           
 10448                           ; Vector 26 : I2C1E
 10449  00003C  13E2               	dw	_DEFAULT_ISR shr (0+2)
 10450                           
 10451                           ; Vector 27 : U1RX
 10452  00003E  0D4E               	dw	_RX_ISR shr (0+2)
 10453                           
 10454                           ; Vector 28 : U1TX
 10455  000040  12CD               	dw	_TX_ISR shr (0+2)
 10456                           
 10457                           ; Vector 29 : U1E
 10458  000042  13E2               	dw	_DEFAULT_ISR shr (0+2)
 10459                           
 10460                           ; Vector 30 : U1
 10461  000044  13E2               	dw	_DEFAULT_ISR shr (0+2)
 10462                           
 10463                           ; Vector 31 : TMR0
 10464  000046  13E2               	dw	_DEFAULT_ISR shr (0+2)
 10465                           
 10466                           ; Vector 32 : TMR1
 10467  000048  13AE               	dw	_stepper0ISR shr (0+2)
 10468                           
 10469                           ; Vector 33 : TMR1G
 10470  00004A  13E2               	dw	_DEFAULT_ISR shr (0+2)
 10471                           
 10472                           ; Vector 34 : TMR2
 10473  00004C  13E2               	dw	_DEFAULT_ISR shr (0+2)
 10474                           
 10475                           ; Vector 35 : CCP1
 10476  00004E  13E2               	dw	_DEFAULT_ISR shr (0+2)
 10477                           
 10478                           ; Vector 36 : Undefined
 10479  000050  002B               	dw	ivt0x8_undefint shr (0+2)
 10480                           
 10481                           ; Vector 37 : NCO1
 10482  000052  13E2               	dw	_DEFAULT_ISR shr (0+2)
 10483                           
 10484                           ; Vector 38 : CWG1
 10485  000054  13E2               	dw	_DEFAULT_ISR shr (0+2)
 10486                           
 10487                           ; Vector 39 : CLC1
 10488  000056  13E2               	dw	_DEFAULT_ISR shr (0+2)
 10489                           
 10490                           ; Vector 40 : INT1
 10491  000058  13E2               	dw	_DEFAULT_ISR shr (0+2)
 10492                           
 10493                           ; Vector 41 : CMP2
 10494  00005A  13E2               	dw	_DEFAULT_ISR shr (0+2)
 10495                           
 10496                           ; Vector 42 : DMA2SCNT
 10497  00005C  13E2               	dw	_DEFAULT_ISR shr (0+2)
 10498                           
 10499                           ; Vector 43 : DMA2DCNT
 10500  00005E  13E2               	dw	_DEFAULT_ISR shr (0+2)
 10501                           
 10502                           ; Vector 44 : DMA2OR
 10503  000060  13E2               	dw	_DEFAULT_ISR shr (0+2)
 10504                           
 10505                           ; Vector 45 : DMA2A
 10506  000062  13E2               	dw	_DEFAULT_ISR shr (0+2)
 10507                           
 10508                           ; Vector 46 : I2C2RX
 10509  000064  13E2               	dw	_DEFAULT_ISR shr (0+2)
 10510                           
 10511                           ; Vector 47 : I2C2TX
 10512  000066  13E2               	dw	_DEFAULT_ISR shr (0+2)
 10513                           
 10514                           ; Vector 48 : I2C2
 10515  000068  13E2               	dw	_DEFAULT_ISR shr (0+2)
 10516                           
 10517                           ; Vector 49 : I2C2E
 10518  00006A  13E2               	dw	_DEFAULT_ISR shr (0+2)
 10519                           
 10520                           ; Vector 50 : U2RX
 10521  00006C  13E2               	dw	_DEFAULT_ISR shr (0+2)
 10522                           
 10523                           ; Vector 51 : U2TX
 10524  00006E  13E2               	dw	_DEFAULT_ISR shr (0+2)
 10525                           
 10526                           ; Vector 52 : U2E
 10527  000070  13E2               	dw	_DEFAULT_ISR shr (0+2)
 10528                           
 10529                           ; Vector 53 : U2
 10530  000072  13E2               	dw	_DEFAULT_ISR shr (0+2)
 10531                           
 10532                           ; Vector 54 : TMR3
 10533  000074  13B8               	dw	_stepper1ISR shr (0+2)
 10534                           
 10535                           ; Vector 55 : TMR3G
 10536  000076  13E2               	dw	_DEFAULT_ISR shr (0+2)
 10537                           
 10538                           ; Vector 56 : TMR4
 10539  000078  1189               	dw	_TMR4_ISR shr (0+2)
 10540                           
 10541                           ; Vector 57 : CCP2
 10542  00007A  13E2               	dw	_DEFAULT_ISR shr (0+2)
 10543                           
 10544                           ; Vector 58 : Undefined
 10545  00007C  002B               	dw	ivt0x8_undefint shr (0+2)
 10546                           
 10547                           ; Vector 59 : CWG2
 10548  00007E  13E2               	dw	_DEFAULT_ISR shr (0+2)
 10549                           
 10550                           ; Vector 60 : CLC2
 10551  000080  13E2               	dw	_DEFAULT_ISR shr (0+2)
 10552                           
 10553                           ; Vector 61 : INT2
 10554  000082  13E2               	dw	_DEFAULT_ISR shr (0+2)
 10555                           
 10556                           ; Vector 62 : Undefined
 10557  000084  002B               	dw	ivt0x8_undefint shr (0+2)
 10558                           
 10559                           ; Vector 63 : Undefined
 10560  000086  002B               	dw	ivt0x8_undefint shr (0+2)
 10561                           
 10562                           ; Vector 64 : Undefined
 10563  000088  002B               	dw	ivt0x8_undefint shr (0+2)
 10564                           
 10565                           ; Vector 65 : Undefined
 10566  00008A  002B               	dw	ivt0x8_undefint shr (0+2)
 10567                           
 10568                           ; Vector 66 : Undefined
 10569  00008C  002B               	dw	ivt0x8_undefint shr (0+2)
 10570                           
 10571                           ; Vector 67 : Undefined
 10572  00008E  002B               	dw	ivt0x8_undefint shr (0+2)
 10573                           
 10574                           ; Vector 68 : Undefined
 10575  000090  002B               	dw	ivt0x8_undefint shr (0+2)
 10576                           
 10577                           ; Vector 69 : Undefined
 10578  000092  002B               	dw	ivt0x8_undefint shr (0+2)
 10579                           
 10580                           ; Vector 70 : TMR5
 10581  000094  13C2               	dw	_stepper2ISR shr (0+2)
 10582                           
 10583                           ; Vector 71 : TMR5G
 10584  000096  13E2               	dw	_DEFAULT_ISR shr (0+2)
 10585                           
 10586                           ; Vector 72 : TMR6
 10587  000098  13E2               	dw	_DEFAULT_ISR shr (0+2)
 10588                           
 10589                           ; Vector 73 : CCP3
 10590  00009A  13E2               	dw	_DEFAULT_ISR shr (0+2)
 10591                           
 10592                           ; Vector 74 : CWG3
 10593  00009C  13E2               	dw	_DEFAULT_ISR shr (0+2)
 10594                           
 10595                           ; Vector 75 : CLC3
 10596  00009E  13E2               	dw	_DEFAULT_ISR shr (0+2)
 10597                           
 10598                           ; Vector 76 : Undefined
 10599  0000A0  002B               	dw	ivt0x8_undefint shr (0+2)
 10600                           
 10601                           ; Vector 77 : Undefined
 10602  0000A2  002B               	dw	ivt0x8_undefint shr (0+2)
 10603                           
 10604                           ; Vector 78 : Undefined
 10605  0000A4  002B               	dw	ivt0x8_undefint shr (0+2)
 10606                           
 10607                           ; Vector 79 : Undefined
 10608  0000A6  002B               	dw	ivt0x8_undefint shr (0+2)
 10609                           
 10610                           ; Vector 80 : CCP4
 10611  0000A8  13E2               	dw	_DEFAULT_ISR shr (0+2)
 10612                           
 10613                           ; Vector 81 : CLC4
 10614  0000AA  13E2               	dw	_DEFAULT_ISR shr (0+2)
 10615  0000AC                     ivt0x8_undefint:
 10616                           	callstack 0
 10617  0000AC  00FF               	reset	
 10618                           
 10619                           	psect	rparam
 10620  0000                     
 10621                           	psect	idloc
 10622                           
 10623                           ;Config register IDLOC0 @ 0x200000
 10624                           ;	unspecified, using default values
 10625  200000                     	org	2097152
 10626  200000  0FFF               	dw	4095
 10627                           
 10628                           ;Config register IDLOC1 @ 0x200002
 10629                           ;	unspecified, using default values
 10630  200002                     	org	2097154
 10631  200002  0FFF               	dw	4095
 10632                           
 10633                           ;Config register IDLOC2 @ 0x200004
 10634                           ;	unspecified, using default values
 10635  200004                     	org	2097156
 10636  200004  0FFF               	dw	4095
 10637                           
 10638                           ;Config register IDLOC3 @ 0x200006
 10639                           ;	unspecified, using default values
 10640  200006                     	org	2097158
 10641  200006  0FFF               	dw	4095
 10642                           
 10643                           ;Config register IDLOC4 @ 0x200008
 10644                           ;	unspecified, using default values
 10645  200008                     	org	2097160
 10646  200008  0FFF               	dw	4095
 10647                           
 10648                           ;Config register IDLOC5 @ 0x20000A
 10649                           ;	unspecified, using default values
 10650  20000A                     	org	2097162
 10651  20000A  0FFF               	dw	4095
 10652                           
 10653                           ;Config register IDLOC6 @ 0x20000C
 10654                           ;	unspecified, using default values
 10655  20000C                     	org	2097164
 10656  20000C  0FFF               	dw	4095
 10657                           
 10658                           ;Config register IDLOC7 @ 0x20000E
 10659                           ;	unspecified, using default values
 10660  20000E                     	org	2097166
 10661  20000E  0FFF               	dw	4095
 10662                           
 10663                           	psect	config
 10664                           
 10665                           ;Config register CONFIG1L @ 0x300000
 10666                           ;	External Oscillator Selection
 10667                           ;	FEXTOSC = OFF, Oscillator not enabled
 10668                           ;	Reset Oscillator Selection
 10669                           ;	RSTOSC = HFINTOSC_64MHZ, HFINTOSC with HFFRQ = 64 MHz and CDIV = 1:1
 10670  300000                     	org	3145728
 10671  300000  8C                 	db	140
 10672                           
 10673                           ;Config register CONFIG1H @ 0x300001
 10674                           ;	Clock out Enable bit
 10675                           ;	CLKOUTEN = OFF, CLKOUT function is disabled
 10676                           ;	PRLOCKED One-Way Set Enable bit
 10677                           ;	PR1WAY = ON, PRLOCK bit can be cleared and set only once
 10678                           ;	Clock Switch Enable bit
 10679                           ;	CSWEN = ON, Writing to NOSC and NDIV is allowed
 10680                           ;	Fail-Safe Clock Monitor Enable bit
 10681                           ;	FCMEN = ON, Fail-Safe Clock Monitor enabled
 10682  300001                     	org	3145729
 10683  300001  FF                 	db	255
 10684                           
 10685                           ;Config register CONFIG2L @ 0x300002
 10686                           ;	MCLR Enable bit
 10687                           ;	MCLRE = EXTMCLR, If LVP = 0, MCLR pin is MCLR; If LVP = 1, RE3 pin function is MCLR
 10688                           ;	Power-up timer selection bits
 10689                           ;	PWRTS = PWRT_OFF, PWRT is disabled
 10690                           ;	Multi-vector enable bit
 10691                           ;	MVECEN = ON, Multi-vector enabled, Vector table used for interrupts
 10692                           ;	IVTLOCK bit One-way set enable bit
 10693                           ;	IVT1WAY = ON, IVTLOCK bit can be cleared and set only once
 10694                           ;	Low Power BOR Enable bit
 10695                           ;	LPBOREN = OFF, ULPBOR disabled
 10696                           ;	Brown-out Reset Enable bits
 10697                           ;	BOREN = SBORDIS, Brown-out Reset enabled , SBOREN bit is ignored
 10698  300002                     	org	3145730
 10699  300002  FF                 	db	255
 10700                           
 10701                           ;Config register CONFIG2H @ 0x300003
 10702                           ;	Brown-out Reset Voltage Selection bits
 10703                           ;	BORV = VBOR_2P45, Brown-out Reset Voltage (VBOR) set to 2.45V
 10704                           ;	ZCD Disable bit
 10705                           ;	ZCD = OFF, ZCD disabled. ZCD can be enabled by setting the ZCDSEN bit of ZCDCON
 10706                           ;	PPSLOCK bit One-Way Set Enable bit
 10707                           ;	PPS1WAY = ON, PPSLOCK bit can be cleared and set only once; PPS registers remain locke
      +                          d after one clear/set cycle
 10708                           ;	Stack Full/Underflow Reset Enable bit
 10709                           ;	STVREN = ON, Stack full/underflow will cause Reset
 10710                           ;	Debugger Enable bit
 10711                           ;	DEBUG = OFF, Background debugger disabled
 10712                           ;	Extended Instruction Set Enable bit
 10713                           ;	XINST = OFF, Extended Instruction Set and Indexed Addressing Mode disabled
 10714  300003                     	org	3145731
 10715  300003  FF                 	db	255
 10716                           
 10717                           ;Config register CONFIG3L @ 0x300004
 10718                           ;	WDT Period selection bits
 10719                           ;	WDTCPS = WDTCPS_31, Divider ratio 1:65536; software control of WDTPS
 10720                           ;	WDT operating mode
 10721                           ;	WDTE = ON, WDT enabled regardless of sleep
 10722  300004                     	org	3145732
 10723  300004  FF                 	db	255
 10724                           
 10725                           ;Config register CONFIG3H @ 0x300005
 10726                           ;	WDT Window Select bits
 10727                           ;	WDTCWS = WDTCWS_7, window always open (100%); software control; keyed access not requi
      +                          red
 10728                           ;	WDT input clock selector
 10729                           ;	WDTCCS = SC, Software Control
 10730  300005                     	org	3145733
 10731  300005  FF                 	db	255
 10732                           
 10733                           ;Config register CONFIG4L @ 0x300006
 10734                           ;	Boot Block Size selection bits
 10735                           ;	BBSIZE = BBSIZE_512, Boot Block size is 512 words
 10736                           ;	Boot Block enable bit
 10737                           ;	BBEN = OFF, Boot block disabled
 10738                           ;	Storage Area Flash enable bit
 10739                           ;	SAFEN = OFF, SAF disabled
 10740                           ;	Application Block write protection bit
 10741                           ;	WRTAPP = OFF, Application Block not write protected
 10742  300006                     	org	3145734
 10743  300006  FF                 	db	255
 10744                           
 10745                           ;Config register CONFIG4H @ 0x300007
 10746                           ;	Configuration Register Write Protection bit
 10747                           ;	WRTB = OFF, Configuration registers (300000-30000Bh) not write-protected
 10748                           ;	Boot Block Write Protection bit
 10749                           ;	WRTC = OFF, Boot Block (000000-0007FFh) not write-protected
 10750                           ;	Data EEPROM Write Protection bit
 10751                           ;	WRTD = OFF, Data EEPROM not write-protected
 10752                           ;	SAF Write protection bit
 10753                           ;	WRTSAF = OFF, SAF not Write Protected
 10754                           ;	Low Voltage Programming Enable bit
 10755                           ;	LVP = ON, Low voltage programming enabled. MCLR/VPP pin function is MCLR. MCLRE config
      +                          uration bit is ignored
 10756  300007                     	org	3145735
 10757  300007  FF                 	db	255
 10758                           
 10759                           ;Config register CONFIG5L @ 0x300008
 10760                           ;	PFM and Data EEPROM Code Protection bit
 10761                           ;	CP = OFF, PFM and Data EEPROM code protection disabled
 10762  300008                     	org	3145736
 10763  300008  FF                 	db	255
 10764                           
 10765                           ;Config register CONFIG5H @ 0x300009
 10766                           ;	unspecified, using default values
 10767  300009                     	org	3145737
 10768  300009  FF                 	db	255
 10769                           tosu	equ	0x3FFF
 10770                           tosh	equ	0x3FFE
 10771                           tosl	equ	0x3FFD
 10772                           stkptr	equ	0x3FFC
 10773                           pclatu	equ	0x3FFB
 10774                           pclath	equ	0x3FFA
 10775                           pcl	equ	0x3FF9
 10776                           tblptru	equ	0x3FF8
 10777                           tblptrh	equ	0x3FF7
 10778                           tblptrl	equ	0x3FF6
 10779                           tablat	equ	0x3FF5
 10780                           prodh	equ	0x3FF4
 10781                           prodl	equ	0x3FF3
 10782                           indf0	equ	0x3FEF
 10783                           postinc0	equ	0x3FEE
 10784                           postdec0	equ	0x3FED
 10785                           preinc0	equ	0x3FEC
 10786                           plusw0	equ	0x3FEB
 10787                           fsr0h	equ	0x3FEA
 10788                           fsr0l	equ	0x3FE9
 10789                           wreg	equ	0x3FE8
 10790                           indf1	equ	0x3FE7
 10791                           postinc1	equ	0x3FE6
 10792                           postdec1	equ	0x3FE5
 10793                           preinc1	equ	0x3FE4
 10794                           plusw1	equ	0x3FE3
 10795                           fsr1h	equ	0x3FE2
 10796                           fsr1l	equ	0x3FE1
 10797                           bsr	equ	0x3FE0
 10798                           indf2	equ	0x3FDF
 10799                           postinc2	equ	0x3FDE
 10800                           postdec2	equ	0x3FDD
 10801                           preinc2	equ	0x3FDC
 10802                           plusw2	equ	0x3FDB
 10803                           fsr2h	equ	0x3FDA
 10804                           fsr2l	equ	0x3FD9
 10805                           status	equ	0x3FD8

Data Sizes:
    Strings     119
    Constant    0
    Data        17
    BSS         624
    Persistent  0
    Stack       0

Auto Spaces:
    Space          Size  Autos    Used
    COMRAM           95     61      79
    BANK0           160     83     103
    BANK1           256      0     219
    BANK2           256     67     195
    BANK3           256      0     256
    BANK4           256      0       0
    BANK5           256      0       0
    BANK6           256      0       0
    BANK7           256      0       0
    BANK8           256      0       0
    BANK9           256      0       0
    BANK10          256      0       0
    BANK11          256      0       0
    BANK12          256      0       0
    BANK13          256      0       0
    BANK14          256      0       0
    BANK15          256      0       0
    BANK16          256      0       0
    BANK17          256      0       0
    BANK18          256      0       0
    BANK19          256      0       0
    BANK20          256      0       0
    BANK21          256      0       0
    BANK22          256      0       0
    BANK23          256      0       0
    BANK24          256      0       0
    BANK25          256      0       0
    BANK26          256      0       0
    BANK27          256      0       0
    BANK28          256      0       0
    BANK29          256      0       0
    BANK30          256      0       0
    BANK31          256      0       0

Pointer List with Targets:

    strncmp@_r	PTR const unsigned char  size(2) Largest target is 3
		 -> STR_16(CODE[3]), STR_12(CODE[3]), STR_7(CODE[3]), 

    strncmp@r	PTR const unsigned char  size(2) Largest target is 3
		 -> STR_16(CODE[3]), STR_12(CODE[3]), STR_7(CODE[3]), 

    strncmp@_l	PTR const unsigned char  size(2) Largest target is 60
		 -> STR_3(CODE[17]), STR_2(CODE[33]), STR_1(CODE[60]), 

    strncmp@l	PTR const unsigned char  size(2) Largest target is 60
		 -> STR_3(CODE[17]), STR_2(CODE[33]), STR_1(CODE[60]), 

    strlen@s	PTR const unsigned char  size(2) Largest target is 64
		 -> dbuf(BANK1[32]), uart1_tx_str_crlf@new_buff(BANK0[64]), uart1_rx_buff_use(BANK2[64]), main@msg_buff(BANK2[64]), 

    strlen@a	PTR const unsigned char  size(2) Largest target is 64
		 -> dbuf(BANK1[32]), uart1_tx_str_crlf@new_buff(BANK0[64]), uart1_rx_buff_use(BANK2[64]), main@msg_buff(BANK2[64]), 

    strcpy@dest	PTR unsigned char  size(2) Largest target is 64
		 -> uart1_tx_str_crlf@new_buff(BANK0[64]), 

    strcpy@d	PTR unsigned char  size(2) Largest target is 64
		 -> uart1_tx_str_crlf@new_buff(BANK0[64]), 

    strcpy@src	PTR const unsigned char  size(2) Largest target is 64
		 -> STR_4(CODE[3]), uart1_rx_buff_use(BANK2[64]), main@msg_buff(BANK2[64]), 

    strcpy@s	PTR const unsigned char  size(2) Largest target is 64
		 -> STR_4(CODE[3]), uart1_rx_buff_use(BANK2[64]), main@msg_buff(BANK2[64]), 

    strcat@src	PTR const unsigned char  size(2) Largest target is 3
		 -> STR_4(CODE[3]), 

    strcat@dest	PTR unsigned char  size(2) Largest target is 64
		 -> uart1_tx_str_crlf@new_buff(BANK0[64]), 

    fputs@s	PTR const unsigned char  size(2) Largest target is 32
		 -> dbuf(BANK1[32]), 

    fputs@fp	PTR struct _IO_FILE size(2) Largest target is 7
		 -> sprintf@f(BANK0[6]), 

    fputc@fp.buffer	PTR unsigned char  size(2) Largest target is 64
		 -> main@msg_buff(BANK2[64]), 

    fputc@fp	PTR struct _IO_FILE size(2) Largest target is 7
		 -> sprintf@f(BANK0[6]), 

    atoi@s	PTR const unsigned char  size(2) Largest target is 60
		 -> STR_3(CODE[17]), STR_2(CODE[33]), STR_1(CODE[60]), 

    vfprintf@ap	PTR PTR void  size(2) Largest target is 2
		 -> sprintf@ap(BANK0[2]), 

    vfprintf@fp	PTR struct _IO_FILE size(2) Largest target is 7
		 -> sprintf@f(BANK0[6]), 

    vfprintf@fmt	PTR const unsigned char  size(2) Largest target is 60
		 -> STR_3(CODE[17]), STR_2(CODE[33]), STR_1(CODE[60]), 

    vfprintf@cfmt	PTR unsigned char  size(2) Largest target is 60
		 -> STR_3(CODE[17]), STR_2(CODE[33]), STR_1(CODE[60]), 

    vfpfcnvrt@fp	PTR struct _IO_FILE size(2) Largest target is 7
		 -> sprintf@f(BANK0[6]), 

    vfpfcnvrt@ap	PTR PTR void  size(2) Largest target is 2
		 -> sprintf@ap(BANK0[2]), 

    vfpfcnvrt@fmt	PTR PTR unsigned char  size(2) Largest target is 2
		 -> vfprintf@cfmt(BANK0[2]), 

    xtoa@fp	PTR struct _IO_FILE size(2) Largest target is 7
		 -> sprintf@f(BANK0[6]), 

    utoa@fp	PTR struct _IO_FILE size(2) Largest target is 7
		 -> sprintf@f(BANK0[6]), 

    pad@fp	PTR struct _IO_FILE size(2) Largest target is 7
		 -> sprintf@f(BANK0[6]), 

    pad@buf	PTR unsigned char  size(2) Largest target is 32
		 -> dbuf(BANK1[32]), 

    sprintf@fmt	PTR const unsigned char  size(2) Largest target is 60
		 -> STR_3(CODE[17]), STR_2(CODE[33]), STR_1(CODE[60]), 

    sprintf@s	PTR unsigned char  size(2) Largest target is 64
		 -> main@msg_buff(BANK2[64]), 

    sprintf@ap	PTR void [1] size(2) Largest target is 2
		 -> ?_sprintf(BANK0[2]), 

    S3431_IO_FILE$buffer	PTR unsigned char  size(2) Largest target is 64
		 -> main@msg_buff(BANK2[64]), 

    f.buffer	PTR unsigned char  size(2) Largest target is 64
		 -> main@msg_buff(BANK2[64]), 

    IOExpReadIVal@ioexp_inst	PTR volatile struct . size(2) Largest target is 9
		 -> ioexp1(BANK1[9]), 

    IOExpWriteVal@ioexp_inst	PTR volatile struct . size(2) Largest target is 9
		 -> ioexp1(BANK1[9]), 

    IOExpWriteInv@ioexp_inst	PTR volatile struct . size(2) Largest target is 9
		 -> ioexp1(BANK1[9]), 

    IOExpWriteDir@ioexp_inst	PTR volatile struct . size(2) Largest target is 9
		 -> ioexp1(BANK1[9]), 

    IOExpUpdateIn@ioexp_inst	PTR volatile struct . size(2) Largest target is 9
		 -> ioexp1(BANK1[9]), 

    IOExpUpdateOut@ioexp_inst	PTR volatile struct . size(2) Largest target is 9
		 -> ioexp1(BANK1[9]), 

    IOExpUpdateAll@ioexp_inst	PTR volatile struct . size(2) Largest target is 9
		 -> ioexp1(BANK1[9]), 

    IOExpSetup@ioexp_inst	PTR volatile struct . size(2) Largest target is 9
		 -> ioexp1(BANK1[9]), 

    sp__strcat	PTR unsigned char  size(2) Largest target is 64
		 -> uart1_tx_str_crlf@new_buff(BANK0[64]), 

    sp__strcpy	PTR unsigned char  size(2) Largest target is 64
		 -> uart1_tx_str_crlf@new_buff(BANK0[64]), 

    uart1_tx_str_crlf@in_bytes	PTR unsigned char  size(2) Largest target is 64
		 -> uart1_rx_buff_use(BANK2[64]), main@msg_buff(BANK2[64]), 

    uart1_tx_str@in_bytes	PTR unsigned char  size(2) Largest target is 64
		 -> uart1_tx_str_crlf@new_buff(BANK0[64]), uart1_rx_buff_use(BANK2[64]), main@msg_buff(BANK2[64]), 

    Mod.PREG	PTR volatile unsigned char  size(2) Largest target is 0

    Mod.HLT	PTR volatile unsigned char  size(2) Largest target is 0

    Mod.CLKCON	PTR volatile unsigned char  size(2) Largest target is 0

    Mod.CON	PTR volatile unsigned char  size(2) Largest target is 0

    Mod.PREG	PTR volatile unsigned char  size(2) Largest target is 0

    Mod.HLT	PTR volatile unsigned char  size(2) Largest target is 0

    Mod.CLKCON	PTR volatile unsigned char  size(2) Largest target is 0

    Mod.CON	PTR volatile unsigned char  size(2) Largest target is 0

    S818TimerEven$PREG	PTR volatile unsigned char  size(2) Largest target is 0

    Mod.PREG	PTR volatile unsigned char  size(2) Largest target is 0

    S818TimerEven$HLT	PTR volatile unsigned char  size(2) Largest target is 0

    Mod.HLT	PTR volatile unsigned char  size(2) Largest target is 0

    S818TimerEven$CLKCON	PTR volatile unsigned char  size(2) Largest target is 0

    Mod.CLKCON	PTR volatile unsigned char  size(2) Largest target is 0

    S818TimerEven$CON	PTR volatile unsigned char  size(2) Largest target is 0

    Mod.CON	PTR volatile unsigned char  size(2) Largest target is 0


Critical Paths under _main in COMRAM

    _uart1_tx_str_crlf->_strcat
    _uart1_tx_str->_strlen
    _strcat->_strcpy
    _strcpy->_strlen
    _vfpfcnvrt->_utoa
    _xtoa->_pad
    _toupper->_islower
    _utoa->_pad
    _pad->_fputs
    _fputs->_fputc
    _atoi->_isspace
    _SysInit->_IOExpSetup
    _setupDisp->_updateDispVal
    _updateDispVal->___lwdiv
    _UART1Setup->___lldiv
    _Tmr4Setup->___lldiv
    _IOExpSetup->_I2C1Setup
    _IOExpUpdateAll->_IOExpReadIVal
    _IOExpWriteInv->_I2C1Write
    _IOExpWriteDir->_I2C1Write
    _I2C1Setup->_Tmr6Setup
    _Tmr6Setup->___lldiv
    _IOExpUpdateOut->_IOExpWriteVal
    _IOExpWriteVal->_I2C1Write
    _IOExpUpdateIn->_IOExpReadIVal
    _IOExpReadIVal->_I2C1WrRd

Critical Paths under _TX_ISR in COMRAM

    None.

Critical Paths under _RX_ISR in COMRAM

    None.

Critical Paths under _DEFAULT_ISR in COMRAM

    None.

Critical Paths under _TMR4_ISR in COMRAM

    _TMR4_ISR->___llmod

Critical Paths under _stepper0ISR in COMRAM

    None.

Critical Paths under _stepper1ISR in COMRAM

    None.

Critical Paths under _stepper2ISR in COMRAM

    None.

Critical Paths under _main in BANK0

    _main->_sprintf
    _sprintf->_vfprintf
    _vfprintf->_vfpfcnvrt
    _vfpfcnvrt->_xtoa

Critical Paths under _TX_ISR in BANK0

    None.

Critical Paths under _RX_ISR in BANK0

    None.

Critical Paths under _DEFAULT_ISR in BANK0

    None.

Critical Paths under _TMR4_ISR in BANK0

    None.

Critical Paths under _stepper0ISR in BANK0

    None.

Critical Paths under _stepper1ISR in BANK0

    None.

Critical Paths under _stepper2ISR in BANK0

    None.

Critical Paths under _main in BANK1

    None.

Critical Paths under _TX_ISR in BANK1

    None.

Critical Paths under _RX_ISR in BANK1

    None.

Critical Paths under _DEFAULT_ISR in BANK1

    None.

Critical Paths under _TMR4_ISR in BANK1

    None.

Critical Paths under _stepper0ISR in BANK1

    None.

Critical Paths under _stepper1ISR in BANK1

    None.

Critical Paths under _stepper2ISR in BANK1

    None.

Critical Paths under _main in BANK2

    None.

Critical Paths under _TX_ISR in BANK2

    None.

Critical Paths under _RX_ISR in BANK2

    None.

Critical Paths under _DEFAULT_ISR in BANK2

    None.

Critical Paths under _TMR4_ISR in BANK2

    None.

Critical Paths under _stepper0ISR in BANK2

    None.

Critical Paths under _stepper1ISR in BANK2

    None.

Critical Paths under _stepper2ISR in BANK2

    None.

Critical Paths under _main in BANK3

    None.

Critical Paths under _TX_ISR in BANK3

    None.

Critical Paths under _RX_ISR in BANK3

    None.

Critical Paths under _DEFAULT_ISR in BANK3

    None.

Critical Paths under _TMR4_ISR in BANK3

    None.

Critical Paths under _stepper0ISR in BANK3

    None.

Critical Paths under _stepper1ISR in BANK3

    None.

Critical Paths under _stepper2ISR in BANK3

    None.

Critical Paths under _main in BANK4

    None.

Critical Paths under _TX_ISR in BANK4

    None.

Critical Paths under _RX_ISR in BANK4

    None.

Critical Paths under _DEFAULT_ISR in BANK4

    None.

Critical Paths under _TMR4_ISR in BANK4

    None.

Critical Paths under _stepper0ISR in BANK4

    None.

Critical Paths under _stepper1ISR in BANK4

    None.

Critical Paths under _stepper2ISR in BANK4

    None.

Critical Paths under _main in BANK5

    None.

Critical Paths under _TX_ISR in BANK5

    None.

Critical Paths under _RX_ISR in BANK5

    None.

Critical Paths under _DEFAULT_ISR in BANK5

    None.

Critical Paths under _TMR4_ISR in BANK5

    None.

Critical Paths under _stepper0ISR in BANK5

    None.

Critical Paths under _stepper1ISR in BANK5

    None.

Critical Paths under _stepper2ISR in BANK5

    None.

Critical Paths under _main in BANK6

    None.

Critical Paths under _TX_ISR in BANK6

    None.

Critical Paths under _RX_ISR in BANK6

    None.

Critical Paths under _DEFAULT_ISR in BANK6

    None.

Critical Paths under _TMR4_ISR in BANK6

    None.

Critical Paths under _stepper0ISR in BANK6

    None.

Critical Paths under _stepper1ISR in BANK6

    None.

Critical Paths under _stepper2ISR in BANK6

    None.

Critical Paths under _main in BANK7

    None.

Critical Paths under _TX_ISR in BANK7

    None.

Critical Paths under _RX_ISR in BANK7

    None.

Critical Paths under _DEFAULT_ISR in BANK7

    None.

Critical Paths under _TMR4_ISR in BANK7

    None.

Critical Paths under _stepper0ISR in BANK7

    None.

Critical Paths under _stepper1ISR in BANK7

    None.

Critical Paths under _stepper2ISR in BANK7

    None.

Critical Paths under _main in BANK8

    None.

Critical Paths under _TX_ISR in BANK8

    None.

Critical Paths under _RX_ISR in BANK8

    None.

Critical Paths under _DEFAULT_ISR in BANK8

    None.

Critical Paths under _TMR4_ISR in BANK8

    None.

Critical Paths under _stepper0ISR in BANK8

    None.

Critical Paths under _stepper1ISR in BANK8

    None.

Critical Paths under _stepper2ISR in BANK8

    None.

Critical Paths under _main in BANK9

    None.

Critical Paths under _TX_ISR in BANK9

    None.

Critical Paths under _RX_ISR in BANK9

    None.

Critical Paths under _DEFAULT_ISR in BANK9

    None.

Critical Paths under _TMR4_ISR in BANK9

    None.

Critical Paths under _stepper0ISR in BANK9

    None.

Critical Paths under _stepper1ISR in BANK9

    None.

Critical Paths under _stepper2ISR in BANK9

    None.

Critical Paths under _main in BANK10

    None.

Critical Paths under _TX_ISR in BANK10

    None.

Critical Paths under _RX_ISR in BANK10

    None.

Critical Paths under _DEFAULT_ISR in BANK10

    None.

Critical Paths under _TMR4_ISR in BANK10

    None.

Critical Paths under _stepper0ISR in BANK10

    None.

Critical Paths under _stepper1ISR in BANK10

    None.

Critical Paths under _stepper2ISR in BANK10

    None.

Critical Paths under _main in BANK11

    None.

Critical Paths under _TX_ISR in BANK11

    None.

Critical Paths under _RX_ISR in BANK11

    None.

Critical Paths under _DEFAULT_ISR in BANK11

    None.

Critical Paths under _TMR4_ISR in BANK11

    None.

Critical Paths under _stepper0ISR in BANK11

    None.

Critical Paths under _stepper1ISR in BANK11

    None.

Critical Paths under _stepper2ISR in BANK11

    None.

Critical Paths under _main in BANK12

    None.

Critical Paths under _TX_ISR in BANK12

    None.

Critical Paths under _RX_ISR in BANK12

    None.

Critical Paths under _DEFAULT_ISR in BANK12

    None.

Critical Paths under _TMR4_ISR in BANK12

    None.

Critical Paths under _stepper0ISR in BANK12

    None.

Critical Paths under _stepper1ISR in BANK12

    None.

Critical Paths under _stepper2ISR in BANK12

    None.

Critical Paths under _main in BANK13

    None.

Critical Paths under _TX_ISR in BANK13

    None.

Critical Paths under _RX_ISR in BANK13

    None.

Critical Paths under _DEFAULT_ISR in BANK13

    None.

Critical Paths under _TMR4_ISR in BANK13

    None.

Critical Paths under _stepper0ISR in BANK13

    None.

Critical Paths under _stepper1ISR in BANK13

    None.

Critical Paths under _stepper2ISR in BANK13

    None.

Critical Paths under _main in BANK14

    None.

Critical Paths under _TX_ISR in BANK14

    None.

Critical Paths under _RX_ISR in BANK14

    None.

Critical Paths under _DEFAULT_ISR in BANK14

    None.

Critical Paths under _TMR4_ISR in BANK14

    None.

Critical Paths under _stepper0ISR in BANK14

    None.

Critical Paths under _stepper1ISR in BANK14

    None.

Critical Paths under _stepper2ISR in BANK14

    None.

Critical Paths under _main in BANK15

    None.

Critical Paths under _TX_ISR in BANK15

    None.

Critical Paths under _RX_ISR in BANK15

    None.

Critical Paths under _DEFAULT_ISR in BANK15

    None.

Critical Paths under _TMR4_ISR in BANK15

    None.

Critical Paths under _stepper0ISR in BANK15

    None.

Critical Paths under _stepper1ISR in BANK15

    None.

Critical Paths under _stepper2ISR in BANK15

    None.

Critical Paths under _main in BANK16

    None.

Critical Paths under _TX_ISR in BANK16

    None.

Critical Paths under _RX_ISR in BANK16

    None.

Critical Paths under _DEFAULT_ISR in BANK16

    None.

Critical Paths under _TMR4_ISR in BANK16

    None.

Critical Paths under _stepper0ISR in BANK16

    None.

Critical Paths under _stepper1ISR in BANK16

    None.

Critical Paths under _stepper2ISR in BANK16

    None.

Critical Paths under _main in BANK17

    None.

Critical Paths under _TX_ISR in BANK17

    None.

Critical Paths under _RX_ISR in BANK17

    None.

Critical Paths under _DEFAULT_ISR in BANK17

    None.

Critical Paths under _TMR4_ISR in BANK17

    None.

Critical Paths under _stepper0ISR in BANK17

    None.

Critical Paths under _stepper1ISR in BANK17

    None.

Critical Paths under _stepper2ISR in BANK17

    None.

Critical Paths under _main in BANK18

    None.

Critical Paths under _TX_ISR in BANK18

    None.

Critical Paths under _RX_ISR in BANK18

    None.

Critical Paths under _DEFAULT_ISR in BANK18

    None.

Critical Paths under _TMR4_ISR in BANK18

    None.

Critical Paths under _stepper0ISR in BANK18

    None.

Critical Paths under _stepper1ISR in BANK18

    None.

Critical Paths under _stepper2ISR in BANK18

    None.

Critical Paths under _main in BANK19

    None.

Critical Paths under _TX_ISR in BANK19

    None.

Critical Paths under _RX_ISR in BANK19

    None.

Critical Paths under _DEFAULT_ISR in BANK19

    None.

Critical Paths under _TMR4_ISR in BANK19

    None.

Critical Paths under _stepper0ISR in BANK19

    None.

Critical Paths under _stepper1ISR in BANK19

    None.

Critical Paths under _stepper2ISR in BANK19

    None.

Critical Paths under _main in BANK20

    None.

Critical Paths under _TX_ISR in BANK20

    None.

Critical Paths under _RX_ISR in BANK20

    None.

Critical Paths under _DEFAULT_ISR in BANK20

    None.

Critical Paths under _TMR4_ISR in BANK20

    None.

Critical Paths under _stepper0ISR in BANK20

    None.

Critical Paths under _stepper1ISR in BANK20

    None.

Critical Paths under _stepper2ISR in BANK20

    None.

Critical Paths under _main in BANK21

    None.

Critical Paths under _TX_ISR in BANK21

    None.

Critical Paths under _RX_ISR in BANK21

    None.

Critical Paths under _DEFAULT_ISR in BANK21

    None.

Critical Paths under _TMR4_ISR in BANK21

    None.

Critical Paths under _stepper0ISR in BANK21

    None.

Critical Paths under _stepper1ISR in BANK21

    None.

Critical Paths under _stepper2ISR in BANK21

    None.

Critical Paths under _main in BANK22

    None.

Critical Paths under _TX_ISR in BANK22

    None.

Critical Paths under _RX_ISR in BANK22

    None.

Critical Paths under _DEFAULT_ISR in BANK22

    None.

Critical Paths under _TMR4_ISR in BANK22

    None.

Critical Paths under _stepper0ISR in BANK22

    None.

Critical Paths under _stepper1ISR in BANK22

    None.

Critical Paths under _stepper2ISR in BANK22

    None.

Critical Paths under _main in BANK23

    None.

Critical Paths under _TX_ISR in BANK23

    None.

Critical Paths under _RX_ISR in BANK23

    None.

Critical Paths under _DEFAULT_ISR in BANK23

    None.

Critical Paths under _TMR4_ISR in BANK23

    None.

Critical Paths under _stepper0ISR in BANK23

    None.

Critical Paths under _stepper1ISR in BANK23

    None.

Critical Paths under _stepper2ISR in BANK23

    None.

Critical Paths under _main in BANK24

    None.

Critical Paths under _TX_ISR in BANK24

    None.

Critical Paths under _RX_ISR in BANK24

    None.

Critical Paths under _DEFAULT_ISR in BANK24

    None.

Critical Paths under _TMR4_ISR in BANK24

    None.

Critical Paths under _stepper0ISR in BANK24

    None.

Critical Paths under _stepper1ISR in BANK24

    None.

Critical Paths under _stepper2ISR in BANK24

    None.

Critical Paths under _main in BANK25

    None.

Critical Paths under _TX_ISR in BANK25

    None.

Critical Paths under _RX_ISR in BANK25

    None.

Critical Paths under _DEFAULT_ISR in BANK25

    None.

Critical Paths under _TMR4_ISR in BANK25

    None.

Critical Paths under _stepper0ISR in BANK25

    None.

Critical Paths under _stepper1ISR in BANK25

    None.

Critical Paths under _stepper2ISR in BANK25

    None.

Critical Paths under _main in BANK26

    None.

Critical Paths under _TX_ISR in BANK26

    None.

Critical Paths under _RX_ISR in BANK26

    None.

Critical Paths under _DEFAULT_ISR in BANK26

    None.

Critical Paths under _TMR4_ISR in BANK26

    None.

Critical Paths under _stepper0ISR in BANK26

    None.

Critical Paths under _stepper1ISR in BANK26

    None.

Critical Paths under _stepper2ISR in BANK26

    None.

Critical Paths under _main in BANK27

    None.

Critical Paths under _TX_ISR in BANK27

    None.

Critical Paths under _RX_ISR in BANK27

    None.

Critical Paths under _DEFAULT_ISR in BANK27

    None.

Critical Paths under _TMR4_ISR in BANK27

    None.

Critical Paths under _stepper0ISR in BANK27

    None.

Critical Paths under _stepper1ISR in BANK27

    None.

Critical Paths under _stepper2ISR in BANK27

    None.

Critical Paths under _main in BANK28

    None.

Critical Paths under _TX_ISR in BANK28

    None.

Critical Paths under _RX_ISR in BANK28

    None.

Critical Paths under _DEFAULT_ISR in BANK28

    None.

Critical Paths under _TMR4_ISR in BANK28

    None.

Critical Paths under _stepper0ISR in BANK28

    None.

Critical Paths under _stepper1ISR in BANK28

    None.

Critical Paths under _stepper2ISR in BANK28

    None.

Critical Paths under _main in BANK29

    None.

Critical Paths under _TX_ISR in BANK29

    None.

Critical Paths under _RX_ISR in BANK29

    None.

Critical Paths under _DEFAULT_ISR in BANK29

    None.

Critical Paths under _TMR4_ISR in BANK29

    None.

Critical Paths under _stepper0ISR in BANK29

    None.

Critical Paths under _stepper1ISR in BANK29

    None.

Critical Paths under _stepper2ISR in BANK29

    None.

Critical Paths under _main in BANK30

    None.

Critical Paths under _TX_ISR in BANK30

    None.

Critical Paths under _RX_ISR in BANK30

    None.

Critical Paths under _DEFAULT_ISR in BANK30

    None.

Critical Paths under _TMR4_ISR in BANK30

    None.

Critical Paths under _stepper0ISR in BANK30

    None.

Critical Paths under _stepper1ISR in BANK30

    None.

Critical Paths under _stepper2ISR in BANK30

    None.

Critical Paths under _main in BANK31

    None.

Critical Paths under _TX_ISR in BANK31

    None.

Critical Paths under _RX_ISR in BANK31

    None.

Critical Paths under _DEFAULT_ISR in BANK31

    None.

Critical Paths under _TMR4_ISR in BANK31

    None.

Critical Paths under _stepper0ISR in BANK31

    None.

Critical Paths under _stepper1ISR in BANK31

    None.

Critical Paths under _stepper2ISR in BANK31

    None.

Call Graph Tables:

 ---------------------------------------------------------------------------------
 (Depth) Function   	        Calls       Base Space   Used Autos Params    Refs
 ---------------------------------------------------------------------------------
 (0) _main                                                75    75      0   44446
                                             79 BANK0      4     4      0
                                              0 BANK2     67    67      0
                      _IOExpUpdateIn
                     _IOExpUpdateOut
                           _SetupClk
                            _SysInit
                            _sprintf
                  _uart1_tx_str_crlf
                   _updateDispValHex
 ---------------------------------------------------------------------------------
 (1) _updateDispValHex                                    12     9      3    1269
                                             16 COMRAM    12     9      3
 ---------------------------------------------------------------------------------
 (1) _uart1_tx_str_crlf                                   67    65      2    3916
                                             34 COMRAM     2     0      2
                                              0 BANK0     65    65      0
                             _strcat
                             _strcpy
                             _strlen
                       _uart1_tx_str
 ---------------------------------------------------------------------------------
 (2) _uart1_tx_str                                         5     3      2     921
                                             20 COMRAM     5     3      2
                             _strlen
 ---------------------------------------------------------------------------------
 (2) _strcat                                               4     0      4    1357
                                             30 COMRAM     4     0      4
                             _strcpy
                             _strlen
 ---------------------------------------------------------------------------------
 (2) _strcpy                                              10     6      4     497
                                             20 COMRAM    10     6      4
                             _strlen (ARG)
 ---------------------------------------------------------------------------------
 (1) _sprintf                                             18    10      8   19390
                                             61 BANK0     18    10      8
                           _vfprintf
 ---------------------------------------------------------------------------------
 (2) _vfprintf                                             8     2      6   18520
                                             53 BANK0      8     2      6
                          _vfpfcnvrt
 ---------------------------------------------------------------------------------
 (3) _vfpfcnvrt                                           48    42      6   17954
                                             28 BANK0     25    19      6
                               _atoi
                              _fputc
                            _isdigit
                            _strncmp
                               _utoa
                               _xtoa
 ---------------------------------------------------------------------------------
 (4) _xtoa                                                39    28     11    6347
                                             43 COMRAM    11     0     11
                                              0 BANK0     28    28      0
                            _isalpha
                            _isupper
                                _pad
                            _toupper
 ---------------------------------------------------------------------------------
 (5) _toupper                                              8     6      2     512
                                             22 COMRAM     8     6      2
                            _islower
 ---------------------------------------------------------------------------------
 (6) _islower                                              6     4      2     191
                                             16 COMRAM     6     4      2
 ---------------------------------------------------------------------------------
 (5) _isupper                                              6     4      2     191
                                             16 COMRAM     6     4      2
 ---------------------------------------------------------------------------------
 (5) _isalpha                                              6     4      2     191
                                             16 COMRAM     6     4      2
 ---------------------------------------------------------------------------------
 (4) _utoa                                                32    22     10    5639
                                             43 COMRAM    18     8     10
                                              0 BANK0     14    14      0
                            ___lodiv
                            ___lomod
                                _pad
 ---------------------------------------------------------------------------------
 (5) _pad                                                 11     5      6    4047
                                             32 COMRAM    11     5      6
                              _fputc
                              _fputs
                             _strlen
 ---------------------------------------------------------------------------------
 (3) _strlen                                               4     2      2     580
                                             16 COMRAM     4     2      2
 ---------------------------------------------------------------------------------
 (6) _fputs                                                7     3      4    1537
                                             25 COMRAM     7     3      4
                              _fputc
 ---------------------------------------------------------------------------------
 (7) _fputc                                                9     5      4    1037
                                             16 COMRAM     9     5      4
                              _putch
 ---------------------------------------------------------------------------------
 (8) _putch                                                1     1      0       0
 ---------------------------------------------------------------------------------
 (5) ___lomod                                             17     1     16     412
                                             16 COMRAM    17     1     16
 ---------------------------------------------------------------------------------
 (5) ___lodiv                                             25     9     16     421
                                             16 COMRAM    25     9     16
 ---------------------------------------------------------------------------------
 (4) _strncmp                                             11     5      6    1135
                                             16 COMRAM    11     5      6
 ---------------------------------------------------------------------------------
 (4) _atoi                                                15    13      2    1665
                                             23 COMRAM    15    13      2
                             ___wmul
                            _isdigit
                            _isspace
 ---------------------------------------------------------------------------------
 (5) _isspace                                              7     5      2     259
                                             16 COMRAM     7     5      2
 ---------------------------------------------------------------------------------
 (4) _isdigit                                              6     4      2     281
                                             16 COMRAM     6     4      2
 ---------------------------------------------------------------------------------
 (5) ___wmul                                               6     2      4     562
                                             16 COMRAM     6     2      4
 ---------------------------------------------------------------------------------
 (1) _SysInit                                              0     0      0   15735
                         _IOExpSetup
                         _Tmr4Enable
                          _Tmr4Setup
                         _UART1Setup
                   _make_all_digital
                          _setupDisp
 ---------------------------------------------------------------------------------
 (2) _setupDisp                                            2     0      2    2884
                                             32 COMRAM     2     0      2
                      _updateDispVal
 ---------------------------------------------------------------------------------
 (3) _updateDispVal                                        9     6      3    2763
                                             23 COMRAM     9     6      3
                            ___lwdiv
                            ___lwmod
 ---------------------------------------------------------------------------------
 (4) ___lwmod                                              5     1      4     772
                                             16 COMRAM     5     1      4
 ---------------------------------------------------------------------------------
 (4) ___lwdiv                                              7     3      4     781
                                             16 COMRAM     7     3      4
 ---------------------------------------------------------------------------------
 (2) _make_all_digital                                     0     0      0       0
 ---------------------------------------------------------------------------------
 (2) _UART1Setup                                          17    11      6    2258
                                             29 COMRAM    17    11      6
                            ___lldiv
 ---------------------------------------------------------------------------------
 (2) _Tmr4Setup                                           14     9      5    1818
                                             29 COMRAM    14     9      5
                        _Tmr4Disable
                            ___lldiv
 ---------------------------------------------------------------------------------
 (3) _Tmr4Disable                                          0     0      0       0
 ---------------------------------------------------------------------------------
 (2) _Tmr4Enable                                           0     0      0       0
 ---------------------------------------------------------------------------------
 (2) _IOExpSetup                                          10     1      9    8775
                                             44 COMRAM    10     1      9
                         _I2C1Enable
                          _I2C1Setup
                     _IOExpUpdateAll
 ---------------------------------------------------------------------------------
 (3) _IOExpUpdateAll                                       2     0      2    5800
                                             28 COMRAM     2     0      2
                      _IOExpReadIVal
                      _IOExpWriteDir
                      _IOExpWriteInv
                      _IOExpWriteVal
 ---------------------------------------------------------------------------------
 (4) _IOExpWriteInv                                        7     4      3    1075
                                             19 COMRAM     7     4      3
                          _I2C1Write
 ---------------------------------------------------------------------------------
 (4) _IOExpWriteDir                                        7     4      3    1075
                                             19 COMRAM     7     4      3
                          _I2C1Write
 ---------------------------------------------------------------------------------
 (3) _I2C1Setup                                            1     1      0    2060
                                             43 COMRAM     1     1      0
                        _I2C1Disable
                         _Tmr6Enable
                          _Tmr6Setup
 ---------------------------------------------------------------------------------
 (4) _Tmr6Setup                                           14     9      5    1998
                                             29 COMRAM    14     9      5
                        _Tmr6Disable
                            ___lldiv
 ---------------------------------------------------------------------------------
 (3) ___lldiv                                             13     5      8    1341
                                             16 COMRAM    13     5      8
 ---------------------------------------------------------------------------------
 (4) _Tmr6Enable                                           0     0      0       0
 ---------------------------------------------------------------------------------
 (4) _I2C1Disable                                          0     0      0       0
                        _Tmr6Disable
 ---------------------------------------------------------------------------------
 (5) _Tmr6Disable                                          0     0      0       0
 ---------------------------------------------------------------------------------
 (3) _I2C1Enable                                           0     0      0       0
 ---------------------------------------------------------------------------------
 (1) _SetupClk                                             0     0      0       0
 ---------------------------------------------------------------------------------
 (1) _IOExpUpdateOut                                       4     0      4    1870
                                             26 COMRAM     4     0      4
                      _IOExpWriteVal
 ---------------------------------------------------------------------------------
 (4) _IOExpWriteVal                                        7     4      3    1535
                                             19 COMRAM     7     4      3
                          _I2C1Write
 ---------------------------------------------------------------------------------
 (5) _I2C1Write                                            3     2      1     465
                                             16 COMRAM     3     2      1
 ---------------------------------------------------------------------------------
 (1) _IOExpUpdateIn                                        2     0      2    2022
                                             28 COMRAM     2     0      2
                      _IOExpReadIVal
 ---------------------------------------------------------------------------------
 (4) _IOExpReadIVal                                        7     4      3    1901
                                             21 COMRAM     7     4      3
                           _I2C1WrRd
 ---------------------------------------------------------------------------------
 (5) _I2C1WrRd                                             5     3      2     959
                                             16 COMRAM     5     3      2
 ---------------------------------------------------------------------------------
 Estimated maximum stack depth 8
 ---------------------------------------------------------------------------------
 (Depth) Function   	        Calls       Base Space   Used Autos Params    Refs
 ---------------------------------------------------------------------------------
 (9) _TX_ISR                                               1     1      0       0
                                              9 COMRAM     1     1      0
 ---------------------------------------------------------------------------------
 Estimated maximum stack depth 9
 ---------------------------------------------------------------------------------
 (Depth) Function   	        Calls       Base Space   Used Autos Params    Refs
 ---------------------------------------------------------------------------------
 (9) _RX_ISR                                               6     6      0     317
                                             10 COMRAM     6     6      0
 ---------------------------------------------------------------------------------
 Estimated maximum stack depth 9
 ---------------------------------------------------------------------------------
 (Depth) Function   	        Calls       Base Space   Used Autos Params    Refs
 ---------------------------------------------------------------------------------
 (9) _DEFAULT_ISR                                          0     0      0       0
 ---------------------------------------------------------------------------------
 Estimated maximum stack depth 9
 ---------------------------------------------------------------------------------
 (Depth) Function   	        Calls       Base Space   Used Autos Params    Refs
 ---------------------------------------------------------------------------------
 (10) _TMR4_ISR                                            0     0      0     463
                            ___llmod
                         _updateDisp
 ---------------------------------------------------------------------------------
 (11) _updateDisp                                          2     2      0       0
                                              0 COMRAM     2     2      0
 ---------------------------------------------------------------------------------
 (11) ___llmod                                             9     1      8     463
                                              0 COMRAM     9     1      8
 ---------------------------------------------------------------------------------
 Estimated maximum stack depth 11
 ---------------------------------------------------------------------------------
 (Depth) Function   	        Calls       Base Space   Used Autos Params    Refs
 ---------------------------------------------------------------------------------
 (10) _stepper0ISR                                         0     0      0       0
 ---------------------------------------------------------------------------------
 Estimated maximum stack depth 10
 ---------------------------------------------------------------------------------
 (Depth) Function   	        Calls       Base Space   Used Autos Params    Refs
 ---------------------------------------------------------------------------------
 (10) _stepper1ISR                                         0     0      0       0
 ---------------------------------------------------------------------------------
 Estimated maximum stack depth 10
 ---------------------------------------------------------------------------------
 (Depth) Function   	        Calls       Base Space   Used Autos Params    Refs
 ---------------------------------------------------------------------------------
 (10) _stepper2ISR                                         0     0      0       0
 ---------------------------------------------------------------------------------
 Estimated maximum stack depth 10
 ---------------------------------------------------------------------------------

 Call Graph Graphs:

 _main (ROOT)
   _IOExpUpdateIn
     _IOExpReadIVal
       _I2C1WrRd
   _IOExpUpdateOut
     _IOExpWriteVal
       _I2C1Write
   _SetupClk
   _SysInit
     _IOExpSetup
       _I2C1Enable
       _I2C1Setup
         _I2C1Disable
           _Tmr6Disable
         _Tmr6Enable
         _Tmr6Setup
           _Tmr6Disable
           ___lldiv
       _IOExpUpdateAll
         _IOExpReadIVal
           _I2C1WrRd
         _IOExpWriteDir
           _I2C1Write
         _IOExpWriteInv
           _I2C1Write
         _IOExpWriteVal
           _I2C1Write
     _Tmr4Enable
     _Tmr4Setup
       _Tmr4Disable
       ___lldiv
     _UART1Setup
       ___lldiv
     _make_all_digital
     _setupDisp
       _updateDispVal
         ___lwdiv
         ___lwmod
   _sprintf
     _vfprintf
       _vfpfcnvrt
         _atoi
           ___wmul
           _isdigit
           _isspace
         _fputc
           _putch
         _isdigit
         _strncmp
         _utoa
           ___lodiv
           ___lomod
           _pad
             _fputc
               _putch
             _fputs
               _fputc
                 _putch
             _strlen
         _xtoa
           _isalpha
           _isupper
           _pad
             _fputc
               _putch
             _fputs
               _fputc
                 _putch
             _strlen
           _toupper
             _islower
   _uart1_tx_str_crlf
     _strcat
       _strcpy
         _strlen (ARG)
       _strlen
     _strcpy
       _strlen (ARG)
     _strlen
     _uart1_tx_str
       _strlen
   _updateDispValHex

 _TX_ISR (ROOT)

 _RX_ISR (ROOT)

 _DEFAULT_ISR (ROOT)

 _TMR4_ISR (ROOT)
   ___llmod
   _updateDisp

 _stepper0ISR (ROOT)

 _stepper1ISR (ROOT)

 _stepper2ISR (ROOT)

 Address spaces:
Name               Size   Autos  Total    Cost      Usage
BIGRAM            1FFF      0       0      69        0.0%
EEDATA             400      0       0       0        0.0%
BITBANK31          100      0       0      67        0.0%
BANK31             100      0       0      68        0.0%
BITBANK30          100      0       0      65        0.0%
BANK30             100      0       0      66        0.0%
BITBANK29          100      0       0      63        0.0%
BANK29             100      0       0      64        0.0%
BITBANK28          100      0       0      61        0.0%
BANK28             100      0       0      62        0.0%
BITBANK27          100      0       0      59        0.0%
BANK27             100      0       0      60        0.0%
BITBANK26          100      0       0      56        0.0%
BANK26             100      0       0      57        0.0%
BITBANK25          100      0       0      54        0.0%
BANK25             100      0       0      55        0.0%
BITBANK24          100      0       0      52        0.0%
BANK24             100      0       0      53        0.0%
BITBANK23          100      0       0      50        0.0%
BANK23             100      0       0      51        0.0%
BITBANK22          100      0       0      48        0.0%
BANK22             100      0       0      49        0.0%
BITBANK21          100      0       0      46        0.0%
BANK21             100      0       0      47        0.0%
BITBANK20          100      0       0      44        0.0%
BANK20             100      0       0      45        0.0%
BITBANK19          100      0       0      42        0.0%
BANK19             100      0       0      43        0.0%
BITBANK18          100      0       0      40        0.0%
BANK18             100      0       0      41        0.0%
BITBANK17          100      0       0      38        0.0%
BANK17             100      0       0      39        0.0%
BITBANK16          100      0       0      36        0.0%
BANK16             100      0       0      37        0.0%
BITBANK15          100      0       0      34        0.0%
BANK15             100      0       0      35        0.0%
BITBANK14          100      0       0      32        0.0%
BANK14             100      0       0      33        0.0%
BITBANK13          100      0       0      30        0.0%
BANK13             100      0       0      31        0.0%
BITBANK12          100      0       0      28        0.0%
BANK12             100      0       0      29        0.0%
BITBANK11          100      0       0      26        0.0%
BANK11             100      0       0      27        0.0%
BITBANK10          100      0       0      24        0.0%
BANK10             100      0       0      25        0.0%
BITBANK9           100      0       0      22        0.0%
BANK9              100      0       0      23        0.0%
BITBANK8           100      0       0      20        0.0%
BANK8              100      0       0      21        0.0%
BITBANK7           100      0       0      18        0.0%
BANK7              100      0       0      19        0.0%
BITBANK6           100      0       0      16        0.0%
BANK6              100      0       0      17        0.0%
BITBANK5           100      0       0      14        0.0%
BANK5              100      0       0      15        0.0%
BITBANK4           100      0       0      12        0.0%
BANK4              100      0       0      13        0.0%
BITBANK3           100      0       0      10        0.0%
BANK3              100      0     100      11      100.0%
BITBANK2           100      0       0       8        0.0%
BANK2              100     43      C3       9       76.2%
BITBANK1           100      0       0       6        0.0%
BANK1              100      0      DB       7       85.5%
BITBANK0            A0      0       0       4        0.0%
BANK0               A0     53      67       5       64.4%
BITCOMRAM           5F      0       0       0        0.0%
COMRAM              5F     3D      4F       1       83.2%
BITSFR_8             0      0       0     200        0.0%
SFR_8                0      0       0     200        0.0%
BITSFR_7             0      0       0     200        0.0%
SFR_7                0      0       0     200        0.0%
BITSFR_6             0      0       0     200        0.0%
SFR_6                0      0       0     200        0.0%
BITSFR_5             0      0       0     200        0.0%
SFR_5                0      0       0     200        0.0%
BITSFR_4             0      0       0     200        0.0%
SFR_4                0      0       0     200        0.0%
BITSFR_3             0      0       0     200        0.0%
SFR_3                0      0       0     200        0.0%
BITSFR_2             0      0       0     200        0.0%
SFR_2                0      0       0     200        0.0%
BITSFR_1             0      0       0     200        0.0%
SFR_1                0      0       0     200        0.0%
BITSFR               0      0       0     200        0.0%
SFR                  0      0       0     200        0.0%
STACK                0      0       0       2        0.0%
NULL                 0      0       0       0        0.0%
ABS                  0      0     354      58        0.0%
DATA                 0      0     354       3        0.0%
CODE                 0      0       0       0        0.0%


Microchip Technology PIC18 Macro Assembler V2.30 build 20200825195618 
Symbol Table                                                                                   Mon Oct 19 13:20:22 2020

         RX_ISR@rx_or_error 000D                 _stepOutVal0 00C0                 _stepOutVal1 00BB  
               _stepOutVal2 01A0     IOExpWriteVal@ioexp_inst 0014        IOExpWriteVal@portSel 0016  
 __size_of_make_all_digital 0018                          l97 4E72         ___wmul@multiplicand 0013  
                       l102 4E8E                         l112 4F40                         l109 3D1C  
                       l186 3816                         l611 2B6A                         l187 3702  
                       l540 328C                         l604 2AB4                         l453 4F7C  
                       l470 4F84                         l462 3FA4                         l630 2CF6  
                       l551 3356                         l543 337C                         l456 4F78  
                       l448 3ECC                         l554 3376                         l618 2C1E  
                       l642 2DFA                         l467 4F80                         l547 32F0  
                       l627 2CD2                         l635 2D54                         l572 392A  
                       l568 3934                         l576 49A6                         l656 2F50  
                       l649 2EA8                         l659 2F74                         l950 4290  
                       l951 42B6                         l599 4E08                         l961 4E3C  
                       l970 4F52                         l955 4750                         l994 44D2  
                       l978 441E                         l986 436A                         _GIE 01FE97  
                       _pad 413A                 _stepper0ISR 4EB8                 _stepper1ISR 4EE0  
               _stepper2ISR 4F08            setupDisp@initVal 0021                         wreg 003FE8  
               _totalSteps0 0188                 _totalSteps1 0184                 _totalSteps2 0180  
      __size_of_DEFAULT_ISR 0002               _stepOutShift0 00BF               _stepOutShift1 00BA  
             _stepOutShift2 019F           _uart1_rx_buff_idx 004B           _uart1_rx_buff_isr 0140  
         _uart1_rx_buff_use 0240                        l1110 4F74                        l1024 3AB2  
                      l1104 457E                        l1025 3B3E                        l1121 4B0C  
                      l1113 4F6E                        l1116 4AD6                        l2012 4CF2  
                      l1125 4B30                        l1142 4078                        l2006 352C  
                      l2102 4D64                        l2032 4D9C                        l1153 40DE  
                      l2009 3534                        l1162 4138                        l2018 4DD4  
                      l2026 4C2A                        l1149 40BC                        l1165 4E66  
                      l1158 4102                        l2047 3DF4                        l2055 4CB6  
                      l2071 4A10                        l1192 4612                        l2081 3A46  
                      l2065 4EB4                        l1610 3C2E                        l2058 4F86  
                      l1603 3C0E                        l2091 4ACA                        l1620 4074  
                      l1613 4054                        l2077 4D2C                        l1199 4622  
                      l2096 4AD2                        l1663 48C4                        l1656 48BC  
                      l1912 279A                        l6001 44F4                        l1673 4A74  
                      l1921 283C        IOExpSetup@ioexp_inst 002D                        l1666 4A6C  
                      l1914 27A2                        l1850 4BD8                        l6011 450A  
                      l6003 44FA                        l1907 317C                        l5301 4AD6  
                      l6013 451A                        l6021 4550                        l6005 44FE  
                      l6101 219A                        l5311 4AF4                        l5303 4AE6  
                      l6015 4542                        l6007 4502                        l1935 29DE  
                      l6111 2232                        l6103 219C                        l1951 218C  
                      l5313 4AFC                        l5305 4AE6                        l6033 4F70  
                      l6017 454A                        l6009 4506                        l6041 46E2  
                      l6201 3DF6                        l5401 3B94                        l1937 2A42  
                      l6113 225A                        l6121 22D2                        l6105 21CC  
                      l1890 41C0                        l5331 409C                        l5323 4078  
                      l5315 4B1A                        l5307 4AEC                        l6035 46BC  
                      l6211 3E16                        l6203 3DFA                        l5411 3C08  
                      l5403 3BA6                        l6131 23D6                        l6123 2302  
                      l6115 226C                        l6107 2216                        l1892 41FA  
                      l1964 2760                        l5341 40CC                        l5333 40A2  
                      l5325 4088                        l5317 4B1C                        l5309 4AF2  
                      l5501 3F62                        l6029 457C                        l6053 472A  
                      l6037 46DC                        l6213 3E4E                        l6221 3E90  
                      l6205 3DFE                        l6301 3328                        l5405 3BD4  
                      l5421 3FEE                        l5413 3FA6                        l6141 24AC  
                      l6125 2360                        l6109 2224            __end_of_I2C1WrRd 413A  
                      ?_pad 0021                        l5351 40FA                        l5343 40EC  
                      l5335 40A4                        l5327 4096                        l5319 4B2E  
                      l5511 3F9C                        l6047 4706                        l6223 3EA6  
                      l6215 3E7A                        l6207 3E02                        l6303 332A  
                      l6311 3352                        l5407 3BF4                        l5423 401C  
                      l5415 3FC4                        l5271 3D6A                        l5263 3D1E  
                      l1887 417E                        l5431 4148                        l6143 24D0  
                      l6151 256C                        l6119 22C0                        l6071 20D0  
                      l6063 207A                        l5353 4110                        l5345 40EC  
                      l5337 40AC                        l5329 4096                        l5513 3FA2  
                      l5505 3F68                        l5601 43CE                        l5521 42C0  
                      l6321 420E                        l6233 4F7A                        l6225 3EB4  
                      l6217 3E8A                        l6209 3E06                        l6313 3366  
                      l6305 333A                        l6241 4E06                        l5409 3BF6  
                      l5425 403C                        l5417 3FCC                        l5273 3DA0  
                      l5265 3D30                        l5281 4D04                        l5441 419E  
                      l5433 415C                        l1897 2FAE                        l6153 25AA  
                      l6145 24E2                        l6137 244C                        l6129 2398  
                      l6081 20FC                        l6073 20DE                        l6065 20AA  
                      l1977 492E                        l1978 4936                        l5355 4122  
                      l5347 40F2                        l5339 40CA                        l6403 4E6E  
                      l5371 4590                        l5507 3F7E                        l5611 43F0  
                      l5603 43D2                        l5531 4308                        l5523 42D0  
                      l6059 474E                        l6331 4264                        l6323 4220  
                      l6227 3EC4                        l6315 337A                        l6307 3348  
                      l6251 318C                        l6235 4DD6                        l6411 3C34  
                      l5363 4E3E                        l5427 404E                        l5419 3FE0  
                      l5267 3D42                        l5291 4C92                        l5283 4D20  
                      l5443 41A2                        l5435 416A                        l1899 2FB6  
                      l5451 4D66                        l6171 26EC                        l6155 25E8  
                      l6147 2530                        l6139 247C                        l6075 20E0  
                      l6067 20BC                        l5357 4124                        l5349 40F8  
                      l5621 3A48                        l5517 4F7E                        l5381 45D2  
                      l5373 45A6                        l5509 3F8C                        l5613 4416  
                      l5605 43D6                        l5541 4338                        l5533 431A  
                      l5525 42E0                        l6341 42A4                        l6333 4274  
                      l6325 4232                        l6229 3ECA                        l6309 334C  
                      l6261 31F8                        l6253 3190                        l6245 317E  
                      l6237 4DE8                        l6421 3C52                        l6413 3C36  
                      l5365 4E5E                        l5269 3D4C                        l5293 4C96  
                      l5277 4CF4                        l5445 41CE                        l5437 4176  
                      l5429 413A                        l5701 2F84                        l6157 2622  
                      l6165 2696                        l6093 210E                        l6085 2102  
                      l6077 20F6                        l6069 20CC                        l6181 271A  
                      l6501 2D56                        l5359 4136                        l5631 3A7E  
                      l5623 3A50                        l6407 4E80                        l5383 45F0  
                      l5375 45AE                        l5607 43DA                        l5543 433C  
                      l5535 431E                        l5527 42F0                        l5519 42B8  
                      l6343 42A8                        l6335 428A                        l6327 4244  
                      l6319 41FC                        l6263 320C                        l6255 3192  
                      l6247 3184                        l6239 4DF6                        l6431 3C8A  
                      l6423 3C56                        l6415 3C38                        l5391 3B40  
                      l5287 4C74                        l5279 4D00                        l5447 41E2  
                      l5439 418A                        l5711 2FF2                        l5703 2F86  
                      l5455 4CB8                        l5295 4D2E                        l5463 4AAC  
                      l6183 274A                        l6167 26C6                        l6175 26FA  
                      l6159 2636                        l6351 3822                        l6511 2DA2  
                      l6503 2D66                        l5641 3ACA                        l5633 3A82  
                      l5625 3A60                        l5561 4458                        l5553 4420  
                      l5385 4600                        l5377 45BA                        l5369 4580  
                      l5617 441C                        l5609 43EC                        l5545 4362  
                      l5537 4322                        l5529 42F4                        l6345 42AA  
                      l6329 4254                        l6281 32C0                        l6273 329C  
                      l6265 3214                        l6257 31AC                        l6249 318A  
                      l6441 3D12                        l6433 3CA6                        l6425 3C7E  
                      l6417 3C4A                        l6409 3C30                        l5481 4C24  
                      l5473 4BDA                        l5801 337E                        l5393 3B4C  
                      l5289 4C80                        l5713 2FF8                        l5721 30E0  
                      l5705 2FA0                        l5465 4ABE                        l6177 270C  
                      l6169 26D8                        l6097 211A                        l6089 2108  
                      l6361 3896                        l6353 3834                        l6513 2DB4  
                      l6505 2D78                        l6601 36DA                        l5651 3B3C  
                      l5643 3AE0                        l5635 3AAC                        l5627 3A68  
                      l5571 448A                        l5563 445C                        l5555 4428  
                      l5299 4F82                        l5387 4602                        l5379 45C8  
                      l5491 3EDA                        l5539 4326                        l6339 4294  
                      l6291 3300                        l6283 32D0                        l6275 32AC  
                      l6267 327E                        l6259 31E0                        l6443 3D16  
                      l6435 3CAA                        l6427 3C82                        l6419 3C4E  
                      l5475 4BDE                        l5811 33FC                        l5803 3392  
                      l5395 3B6A                        l5723 30F4                        l5731 3154  
                      l5715 306E                        l5707 2FDE                        l5459 4A76  
                      l6099 217A                        l6451 4B88                        l6371 38E8  
                      l6363 389E                        l6355 3844                        l6531 2E0C  
                      l6523 2DE4                        l6515 2DC4                        l6507 2D7A  
                      l6611 3748                        l6603 36F6                        l5645 3AF0  
                      l5629 3A7A                        l5573 448E                        l5565 4470  
                      l5557 4438                        l5389 460C                        l5493 3EDE  
                      l5485 3ECE                        l5549 4368                        l6293 3304  
                      l6285 32D4                        l6269 3286                        l6197 4F2A  
                      l5661 4852                        l5901 2B3C                        l6445 3D18  
                      l6437 3CD6                        l6429 3C86                        l5469 4D9E  
                      l5477 4BF2                        l5821 3424                        l5813 3400  
                      l5805 3396                        l5397 3B72                        l5725 3112  
                      l5717 3076                        l5709 2FE8                        l5741 278C  
                      l6453 4B9A                        l6381 391A                        l6373 38FA  
                      l6365 38BC                        l6357 3874                        l6349 381A  
                      l6541 2E64                        l6533 2E1E                        l6517 2DCC  
                      l6509 2D9C                        l6621 37A8                        l6613 375C  
                      l6605 3704                        l5647 3B06                        l5639 3ABA  
                      l5583 44D0                        l5575 44A0                        l5567 4482  
                      l5559 4448                        l5655 4F66                        l5495 3EEE  
                      l5487 3ED2                        l5591 4384                        l6287 32E4  
                      l5671 488A                        l5663 485A                        l5903 2B4C  
                      l6447 3D1A                        l6439 3CDA                        l5479 4C20  
                      l5823 342C                        l5807 339A                        l5399 3B86  
                      l5727 312C                        l5719 307C                        l5751 27F6  
                      l5743 27B8                        l5735 2762                        l6391 48C6  
                      l6455 4BA2                        l6383 3932                        l6367 38BE  
                      l6359 3886                        l6375 3902                        l6463 4938  
                      l6551 2E94                        l6543 2E74                        l6535 2E20  
                      l6519 2DDC                        l6631 3800                        l6623 37AC  
                      l6615 3768                        l6607 3716                        l5649 3B18  
                      l5577 44A4                        l5569 4486                        l5657 4F6A  
                      l5497 3F26                        l5489 3ED6                        l5593 4394  
                      l6289 32EC                        l5681 48B6                        l5673 4890  
                      l5665 486C                        l5921 2BAC                        l5913 2B6C  
                      l5833 34EC                        l5825 3468                        l5817 3406  
                      l5809 33BE                        l5729 3146                        l5753 27FC  
                      l5745 27C2                        l5737 2770                        l6393 48CE  
                      l6457 4BAA                        l6369 38C0                        l6473 499A  
                      l6465 4938                        l6561 2ECA                        l6545 2E7C  
                      l6537 2E32                        l6529 2DFC                        l6633 380C  
                      l6625 37BC                        l6617 378A                        l6609 371A  
                      l6483 4F42                        l5579 44CA                        l5499 3F52  
                      l5595 43A4                        l5587 436C                        l6299 3308  
                      l5675 48A6                        l5667 4874                        l5691 4A42  
                      l5683 4A12                        l5931 2C02                        l5923 2BC8  
                      l5915 2B7C                        l5907 2B54                        l5835 34FE  
                      l5819 341C                        l5851 397A                        l5843 3936  
                      l5771 28CE                        l5763 2870                        l5755 2804  
                      l5747 27E2                        l5739 2772                        l6395 48DC  
                      l6459 4BC6                        l6387 4E90                        l6379 3908  
                      l6467 4962                        l6571 2F1C                        l6563 2ECC  
                      l6547 2E8C                        l6539 2E52                        l6491 2D22  
                      l6627 37E2                        l6619 3796                        l6477 4E0A  
                      l5597 43A8                        l5589 4374                        l5677 48AE  
                      l5669 487C                        l5693 4A58                        l5685 4A24  
                      l5941 2C20                        l5925 2BDA                        l5917 2B8E  
                      l5837 3510                        l5829 34A6                        l5853 399E  
                      l5845 3960                        l5765 2882                        l5773 28E2  
                      l5757 2820                        l5781 2960                        l5749 27EC  
                      l6397 490A                        l6469 498A                        l6573 2F24  
                      l6565 2EF2                        l6557 2EAA                        l6493 2D32  
                      l6629 37EE                        l6479 4E2C                        l6399 4E68  
                      l5599 43BC                        l5863 4F76                        l5679 48B0  
                      l5695 4A60                        l5687 4A2C                        l5951 2C66  
                      l5943 2C30                        l5935 2C0A                        l5927 2BEA  
                      l5919 2B90                        l5871 2A54                        l5855 39C2  
                      l5791 29EC                        l5783 297E                        l5775 28F6  
                      l5759 2830                        l6575 2F34                        l6567 2EFA  
                      l6559 2EBA                        l6495 2D3A                        l6487 2CF8  
                      l5697 4A66                        l5689 4A34                        l5953 2C78  
                      l5945 2C40                        l5929 2BF2                        l5881 2AAC  
                      l5873 2A70                        l5857 39D4                        l5849 396C  
                      l5793 29F2                        l5785 299C                        l5777 28FC  
                      l5769 28BC                        l5865 49A8                        l6585 2F52  
                      l6569 2F0C                        l6497 2D4C                        l6489 2D10  
                      l6593 36BE                        l5963 2CA8                        l5955 2C88  
                      l5947 2C42                        l5891 2ADA                        l5875 2A82  
                      l5859 3A10                        l5699 2F76                        l5795 2A04  
                      l5787 29B6                        l5779 2902                        l5867 49B8  
                      l6587 2F62                        l6579 2F3C                        l6595 36C2  
                      l5957 2C90                        l5949 2C5E                        l5893 2AF6  
                      l5885 2AB6                        l5877 2A92                        l5869 2A44  
                      l5797 2A1A                        l5789 29D0                        l6589 2F72  
                      l5991 44E8                        l5983 44D6                        l5959 2CA0  
                      l5975 2CD4                        l5895 2B12                        l5887 2AC6  
                      l5879 2A9A                        l6695 214C                        l6599 36DA  
                      l5993 44EC                        l5985 44DA                        l5977 2CE4  
                      l5969 2CBC                        l5897 2B24                        l5889 2AD8  
                      l6697 3452                        l5995 44EE                        l5987 44E0  
                      l5979 2CF4                        l5899 2B34                        l5997 44F0  
                      l5989 44E4                        l5999 44F2                        STR_1 2001  
                      STR_2 203D                        STR_3 205E                        STR_4 2075  
                      STR_7 206C                        _LATC 003FBC                        _LATD 003FBD  
                      u5000 3F62                        u5001 3F5E                        u5010 3F7E  
                      u5011 3F7A                        u5100 44CA                        u5020 3F9C  
                      u5101 44C6                        u5021 3F98              ?_updateDispVal 0018  
                      u5110 43A4                        u5030 42F0                        u5111 43A0  
                      u5031 42EC                        u5200 3B18                        u5120 43CE  
                      u5040 431A                        u6000 2302                        u5201 3B14  
                      u5121 43CA                        u5041 4316                        u6001 22FE  
                      u5130 43EC                        u5050 4338                        u5210 486C  
                      u6010 23D6                        _T4PR 003F9F                        u5131 43E8  
                      u5051 4334                        u5211 4868                        u6011 23D2  
                      u5140 4416                        u5060 4362                        u6100 320C  
                      u5220 488A                        u5300 3112                        u6020 247C  
                      u5141 4412                        u5061 435E                        u6101 3208  
                      u5221 4886                        u5301 310E                        u6021 2478  
                      u5150 3A60                        u5070 4458                        u6110 323C  
                      u5230 48A6                        u5310 312C                        u6030 24AC  
                      u5151 3A5C                        u5071 4454                        u5231 48A2  
                      u5311 3128                        u6031 24A8                        u5160 3A7A  
                      u5080 4482                        u6120 327E                        u5240 4A24  
                      u4600 3DA0                        u5320 3146                        u5400 2882  
                      u6040 25AA                        u6200 3834                        u5161 3A76  
                      u5081 447E                        u6121 327A                        u5241 4A20  
                      u4601 3D9C                        u5321 3142                        u5401 287E  
                      u6041 25A6                        u6201 3830                        u5170 3AAC  
                      u5090 44A0                        u6130 32AC                        u5250 4A42  
                      u4610 4D20                        u5330 3154                        u5410 28B6  
                      u6050 25E8                        u6210 3844                        _T6PR 003F93  
                      u5171 3AA8                        u5091 449C                        u6131 32A8  
                      u6115 3232                        u5251 4A3E                        u4611 4D1C  
                      u5331 3150                        u5411 28B0                        u6051 25E4  
                      u6211 3840                        u4700 40CA                        u5180 3ACA  
                      u6300 4E80                        u6140 32E4                        u5260 4A58  
                      u4620 4CB6                        u5500 29EC                        u5420 28B8  
                      u5340 2770                        u6060 26C6                        u6220 3874  
                      u4701 40C6                        u5181 3AC6                        u6301 4E7C  
                      u6141 32E0                        u5261 4A54                        u4621 4CB2  
                      u5501 29E8                        u5341 276C                        u6061 26C2  
                      u6221 3870                        u4710 40DE                        u5190 3AF0  
                      u6310 4E8E                        u6070 3E8A                        u6150 3300  
                      u5510 33BE                        u5270 2F84                        u4630 4D5E  
                      u5430 28CE                        u5350 278C                        u6230 3886  
                      u4711 40DA                        u5191 3AEC                        u6311 4E8A  
                      u6071 3E86                        u6151 32FC                        u5511 33BA  
                      u5271 2F80                        u4631 4D58                        u5431 28CA  
                      u5351 2788                        u6231 3882                        u4720 40EC  
                      u6080 3EA6                        u6160 333A                        u6320 3C7E  
                      u5520 33FC                        u5600 39C2                        u4800 3B94  
                      u5280 2FA0                        u4640 4D60                        u5440 293A  
                      u5360 27B8                        u6240 3896                        u6400 2D78  
                      u4721 40E8                        u6081 3EA2                        u6161 3336  
                      u6321 3C7A                        u5521 33F8                        u5601 39BE  
                      u4801 3B90                        u5281 2F9C                        u5361 27B4  
                      u6241 3892                        u6401 2D74                        u4730 4110  
                      u4650 4AE6                        u6090 3EC4                        u6170 3366  
                      u6330 3CA6                        u5530 3418                        u5610 39D4  
                      u4810 3BD4                        u4570 3D30                        u5290 30F4  
                      u5450 297E                        u5370 2820                        u6250 38E8  
                      u4731 410C                        u4651 4AE2                        u6091 3EC0  
                      u6171 3362                        u6331 3CA2                        u5531 3414  
                      u5611 39D0                        u4811 3BD0                        u4571 3D2C  
                      u5291 30F0                        u5451 297A                        u5371 281C  
                      u6251 38E4                        u4740 4136                        u4660 4B1A  
                      u6180 3376                        u5700 2B4C                        u6340 3CD6  
                      u5540 34E6                        u5620 3A10                        u4820 3FC4  
                      u4580 3D42                        u4900 4D98                        u5460 299C  
                      u5380 286A                        u6260 38FA                        u6500 2EA4  
                      u6420 2DB4                        u4741 4132                        u4661 4B16  
                      u6181 3372                        u5701 2B48                        u6341 3CD2  
                      u5541 34E0                        u5621 3A0C                        u4821 3FC0  
                      u4581 3D3E                        u5461 2998                        u5445 2928  
                      u5381 2864                        u6261 38F6                        u6501 2EA0  
                      u6421 2DB0                        u4670 4B2E                        u4750 45A6  
                      u6190 428A                        u5710 2B66                        u6350 3D12  
                      u5550 34E8                        u4830 3FEE                        u4590 3D6A  
                      u4910 4CEC                        u5470 29B6                        u5390 286C  
                      u5630 49FE                        u6270 391A                        u6510 2EBA  
                      u6430 2DDC                        u4671 4B2A                        u4751 45A2  
                      u6191 4286                        u5711 2B62                        u6351 3D0E  
                      u4831 3FEA                        u4591 3D66                        u4911 4CE6  
                      u5471 29B2                        u6271 3916                        u6511 2EB6  
                      u6431 2DD8                        u6415 2D84                        u4680 4088  
                      u4760 45C8                        u5800 2CA0                        u5720 2B7C  
                      u5560 34FE                        u4840 401C                        u4920 4CEE  
                      u5480 29D0                        u5640 4A10                        u6280 392A  
                      u6360 4962                        u6520 2ECA                        u6440 2DF6  
                      u6600 37A8                        u4681 4084                        u4761 45C4  
                      u5801 2C9C                        u5721 2B78                        u5561 34FA  
                      u4841 4018                        u5481 29CC                        u5641 4A0C  
                      u6281 3926                        u6361 495E                        u6521 2EC6  
                      u6441 2DF2                        u6601 37A4                        u4690 4096  
                      u4770 45F0                        u5810 2CB8                        u5730 2B8E  
                      u5650 2A82                        u5570 3510                        u4850 4148  
                      u4930 4AA6                        u5490 29DE                        u6290 492E  
                      u6530 2F0C                        u6450 2E0C                        u6370 2D22  
                      u6610 3800                        u4691 4092                        u4771 45EC  
                      u5811 2CB4                        u5731 2B8A                        u5651 2A7E  
                      u5571 350C                        u4851 4144                        u4931 4AA0  
                      u5491 29DA                        u6291 492A                        u6531 2F08  
                      u6451 2E08                        u6371 2D1E                        u6611 37FC  
                      u5900 4726                        u5820 2CCE                        u5740 2BDA  
                      u5660 2AAC                        u5580 3960                        u4860 416A  
                      u4940 4AA8                        u6540 2F34                        u6460 2E1E  
                      u6380 2D4C                        u5901 4722                        u5821 2CCA  
                      u5741 2BD6                        u5661 2AA8                        u5581 395C  
                      u4781 3B46                        u4861 4166                        u5637 49F0  
                      u6541 2F30                        u6461 2E1A                        u6381 2D48  
                      u5910 474A                        u5830 2CE4                        u5750 2C02  
                      u5670 2AC6                        u5590 399E                        u4790 3B6A  
                      u4870 41C0                        u4950 4ABE                        u6550 2F4C  
                      u6390 2D66                        u5911 4746                        u5831 2CE0  
                      u5751 2BFE                        u5671 2AC2                        u5591 399A  
                      u4791 3B66                        u4871 41BC                        u4951 4ABA  
                      u6551 2F48                        u6391 2D62                        u5840 2CF4  
                      u5760 2C1A                        u5680 2AD8                        u4960 4DCE  
                      u4880 41CE                        u5920 20AA                        u6560 2F62  
                      u6480 2E64                        u5841 2CF0                        u5761 2C16  
                      u5681 2AD4                        u4961 4DC8                        u4881 41CA  
                      u5921 20A6                        u6561 2F5E                        u6481 2E60  
                      u5850 451A                        u5770 2C30                        u5690 2B24  
                      u4970 4DD0                        u4890 4D96                        u5930 218C  
                      u6570 2F72                        u6490 2E8C                        u5851 4516  
                      u6627 429A                        u5771 2C2C                        u5691 2B20  
                      u4891 4D90                        u5931 2188                        u6571 2F6E  
                      u6491 2E88                        u6475 2E3E                        u5860 4542  
                      u5780 2C40                        u4980 4BF2                        u5940 219A  
                      u6580 36D6                        u5861 453E                        u5781 2C3C  
                      u4981 4BEE                        u5941 2196                        u6581 36D2  
                      u5870 4578                        u5790 2C78                        u4990 4C20  
                      u5950 21CC                        u6590 3716                        u5871 4574  
                      u5791 2C74                        u4991 4C1C                        u5951 21C8  
                      u6591 3712                        u5880 46DC                        u5960 2224  
                      u5881 46D8                        u5961 2220                        u5890 4702  
                      u5970 22BA                        u5891 46FE                        u5971 22B4  
                      u5980 22BC                        u5990 22D2                        u5991 22CE  
     __end_of_IOExpReadIVal 3B40                        _dbuf 01A1                        _atoi 337E  
                      _main 36BE                        _prec 0044                        _nout 018C  
                      pad@i 0028                        pad@p 0025                        fsr1h 003FE2  
                      fsr2h 003FDA                        indf1 003FE7                        indf2 003FDF  
                      fsr1l 003FE1                        pad@w 002A                        fsr2l 003FD9  
                      _utoa 2F76                        _xtoa 2762                        prodh 003FF4  
                      prodl 003FF3                        start 00AE                ___param_bank 000000  
     __end_of_IOExpUpdateIn 4F54                 ?_UART1Setup 001E            Tmr6Setup@use_int 0022  
               ?_IOExpSetup 002D                       ??_pad 0027       __end_of_IOExpWriteDir 4420  
     __end_of_IOExpWriteInv 436C       __end_of_IOExpWriteVal 44D4                       ?_atoi 0018  
                     ?_main 0001           __end_of_I2C1Setup 4580                       STR_10 2072  
                     STR_12 2072             __end_of_SysInit 3D1E                       STR_14 206F  
                     STR_16 206F                main@newIOVal 02C1           __end_of_I2C1Write 4B32  
           __end_of___lldiv 4624                       ?_utoa 002C             __end_of___lodiv 3C30  
                     ?_xtoa 002C             __end_of___llmod 47DA              _IOExpUpdateAll 46BC  
                     _T4CON 003FA0             __end_of___lomod 4076                       _T6CON 003F94  
                     _T4HLT 003FA1             __end_of___lwdiv 48C6                       _T6HLT 003F95  
                     i1l302 4F88                       _U1RXB 003DE8             __end_of___lwmod 4A76  
                     _U1TXB 003DEA                       i1l284 3574                       i1l286 36B6  
                     i1l278 4B80              _IOExpUpdateOut 4E0A                       i1l297 36B6  
  __end_of_updateDispValHex 2F76                       i2l271 46BA                       i2l663 4C72  
                     i2l816 4EFE                       i2l817 4F04                       i2l767 4ED6  
                     i2l768 4EDC                       i2l865 4F24                       i2l866 4F28  
              vfpfcnvrt@fmt 007E                vfpfcnvrt@llu 008D                       _TRISD 003FC5  
          __end_of_TMR4_ISR 46BC                main@msg_buff 0280                       _flags 0046  
                     _fputc 3D1E             __end_of_isalpha 4CF4                       _fputs 4C74  
           __end_of_isdigit 4DD6                       atoi@n 0025                       pad@fp 0021  
                     atoi@s 0018                       _width 0042                       _putch 4F86  
           __end_of_islower 4D66             __end_of_isspace 4C2C             __end_of_isupper 4D9E  
                     tablat 003FF5           _uart1_tx_str_crlf 4938                       utoa@d 002E  
                     utoa@i 006C                       utoa@n 0064                       utoa@p 0060  
                     utoa@w 0062                       status 003FD8             __end_of_sprintf 4BDA  
                     xtoa@c 007A                       xtoa@d 002E                       xtoa@i 0078  
                     xtoa@n 0070                       xtoa@p 006C                       xtoa@w 006E  
                     xtoa@x 0036                ??_I2C1Enable 0011             __end_of_strncmp 3A48  
           __end_of_toupper 4AD4            ___lodiv@dividend 0011          ?_uart1_tx_str_crlf 0023  
              _toupper$3686 001D             __initialization 47DA               ??_Tmr4Disable 0011  
              __end_of_atoi 3536                __end_of_main 381A               ??_Tmr6Disable 0011  
       ??_uart1_tx_str_crlf 0025                __end_of_utoa 317E                __end_of_xtoa 2A44  
    __end_of_IOExpUpdateAll 4752           Tmr6Setup@tmr_freq 001E          _uart1_tx_buff_head 004E  
    __end_of_IOExpUpdateOut 4E3E          _uart1_tx_buff_full 004D          _uart1_tx_buff_tail 004F  
                    ??_atoi 001A                      ??_main 00AF                      ??_utoa 0036  
                    ??_xtoa 0060               __activetblptr 000003            ___lodiv@quotient 0021  
          __end_of_SetupClk 4E90          __end_of_I2C1Enable 4F76                  _Tmr4Enable 4F7A  
                _Tmr6Enable 4F7E             ??_updateDispVal 001B                      ?_fputc 0011  
          ___llmod@dividend 0001   __end_of_uart1_tx_str_crlf 49A8                      ?_fputs 001A  
                    _ANSELA 003A40                      ?_putch 0001                      _ANSELB 003A50  
                    _ANSELC 003A60                      _ANSELD 003A70                      _ANSELE 003A80  
                    _U1CON2 003DF4                      _U1BRGH 003DF6                      _U1BRGL 003DF5  
       __size_of_UART1Setup 0200                      _RB4PPS 003A0C                      _RB5PPS 003A0D  
                    _RC6PPS 003A16                      i1l5111 4B60                      i1l5121 3542  
                    i1l5113 4B68                      i1l5105 4B3A                      i1l5131 3570  
                    i1l5123 354A                      i1l5115 4B7A                      i1l5107 4B3E  
                    i1l5141 35AA                      i1l5133 3572                      i1l5125 355A  
                    i1l5117 4B7C                      i1l5109 4B50                      i1l5143 35BC  
                    i1l5151 35F6                      i1l5135 3584                      i1l5127 355E  
                    i1l5119 353E                      i1l5161 363E                      i1l5153 3606  
                    i1l5145 35CE                      i1l5137 358A                      i1l5129 356C  
                    i1l5163 3650                      i1l5155 360E                      i1l5147 35DE  
                    i1l5171 3672                      i1l5139 359A                      i1l5181 3698  
                    i1l5165 3660                      i1l5157 362C                      i1l5149 35F0  
                    i1l5183 36A8                      i1l5167 3664                      i1l5159 363C  
                    i1l5177 3676                      i1l5169 366A                      i1l5179 3696  
                    _U1RXIE 01CC9B                      _U1RXIF 01CD1B                      i2l5021 4C2C  
                    i2l5101 467A                      i2l5023 4C4C                      i2l5103 46B4  
                    i2l1592 47D8                      i2l5201 4F20                      i2l5041 478A  
                    i2l1585 47C8                      i2l5033 4752                      i2l5025 4C5C  
                    i2l5043 47A8                      i2l5035 4768                      i2l5027 4C5E  
       __size_of_IOExpSetup 00BC                      i2l5045 47B8                      i2l5037 4770  
                    i2l5029 4C6E                      i2l5047 47C2                      i2l5039 477C  
                    _U1TXIE 01CC9C                      _U1TXEN 01EF95                      _U1TXIF 01CD1C  
                    i2l5091 4624                      i2l5093 4628                      i2l5191 4EE0  
                    i2l5095 4636                      i2l5193 4EE4                      i2l5185 4EB8  
                    i2l5097 463A                      i2l5195 4EF8                      i2l5187 4EBC  
                    i2l5099 4674                      i2l5197 4F08                      i2l5189 4ED0  
                    i2l5199 4F0C                      _OSCFRQ 0039DF               vfpfcnvrt@done 0088  
                    _TMR1IF 01CD20                      _TMR3IF 01CD36                      _TMR4IE 01CCB8  
                    _TMR4IF 01CD38                      _TMR5IF 01CD46                      _TMR6IE 01CCC8  
                    _TMR6IF 01CD48                      _TMR4IP 01CC38                      _RX_ISR 3538  
                    _TX_ISR 4B34         I2C1Setup@high_speed 002C                vfprintf@cfmt 009B  
                    ___wmul 4E3E                   ??_SysInit 0037          __size_of_Tmr4Setup 00D8  
                 ??___lldiv 0019          __size_of_Tmr6Setup 00D8                   ??___lodiv 0021  
                 ??___llmod 0009                   ??___lomod 0021                   ??___lwdiv 0015  
                 ??___lwmod 0015            _make_all_digital 4F2A                      _ioexp1 01C1  
                    clear_0 4804                      clear_1 4816                      clear_2 4822  
                    clear_3 482E                      clear_4 483A             ?_IOExpUpdateAll 001D  
                 ?_I2C1WrRd 0011    IOExpUpdateAll@ioexp_inst 001D             ?_IOExpUpdateOut 001B  
                    pad@buf 0023         __end_of_Tmr4Disable 4F7A                      _strcat 4E90  
                    _strcpy 49A8                      _strlen 4CF4         __end_of_Tmr6Disable 4F86  
                    fputc@c 0011                      fputs@c 001E                      fputs@i 001F  
                    fputs@s 001A                   ??_isalpha 0013                   ??_isdigit 0013  
                 ??_islower 0013                __mediumconst 0000                   ??_isspace 0013  
                    tblptrh 003FF7                   ??_isupper 0013                      tblptrl 003FF6  
                    tblptru 003FF8                      putch@c 0001            I2C1Write@devAddr 0011  
          __end_of_vfprintf 4938                      utoa@fp 002C                   ??_sprintf 003E  
                    xtoa@fp 002C                   ??_strncmp 0017                   ??_toupper 0019  
             ??_I2C1Disable 0011            I2C1Write@byteCnt 0012                  __accesstop 0060  
   __end_of__initialization 484C     IOExpReadIVal@ioexp_inst 0016               ___rparam_used 000001  
      I2C1Write@write_count 0013              __pcstackCOMRAM 0001          IOExpSetup@set_addr 002F  
              __pidataBANK1 4F54          IOExpSetup@set_oval 0034                   ?_TMR4_ISR 0001  
            ivt0x8_undefint 00AC               __end_of_fputc 3DF6               __end_of_fputs 4CB8  
     Tmr6Setup@prescalarVal 0027               __end_of_putch 4F88                  ??_I2C1WrRd 0013  
      uart1_tx_str@in_bytes 0015                ?_stepper0ISR 0001                ?_stepper1ISR 0001  
              ?_stepper2ISR 0001                 ?_Tmr4Enable 0001                 ?_Tmr6Enable 0001  
                   ??_fputc 0015  __size_of_uart1_tx_str_crlf 0070                     ??_fputs 001E  
         __end_of_Tmr4Setup 3ECE                _dig_disp_val 003E                     ??_putch 0011  
         __end_of_Tmr6Setup 3FA6                  __pbssBANK0 00B3                  __pbssBANK1 0100  
                __pbssBANK2 0200                  __pbssBANK3 0300      _uart1_rx_buff_load_cnt 004A  
   IOExpWriteDir@ioexp_inst 0014                     ?_RX_ISR 0001                     ?_TX_ISR 0001  
                   IVTBASEH 003FD6                     IVTBASEL 003FD5                     IVTBASEU 003FD7  
       __end_of_I2C1Disable 4F70                 UART1Setup@i 0028                   ?_SetupClk 0001  
               _Tmr4Disable 4F76                     _I2C1CLK 003D7B                     _I2C1CNT 003D6C  
                   ?___wmul 0011                ??_UART1Setup 0024                     _I2C1RXB 003D6A  
                   _I2C1TXB 003D6B                  ??_TMR4_ISR 000A                ??_IOExpSetup 0036  
               _Tmr6Disable 4F82                  _allowStep0 00BC                  _allowStep1 00B7  
                _allowStep2 019C         _uart1_rx_sys_active 0049               ?_uart1_tx_str 0015  
                   ?_strcat 001F                     ?_strcpy 0015                     ?_strlen 0011  
             ??_DEFAULT_ISR 0011                     RX_ISR@i 000F           ?_updateDispValHex 0011  
        __size_of_setupDisp 0034                     _U1RXPPS 003AE5                     _OSCCON1 0039D9  
                 _I2C1Setup 44D4          __size_of_vfpfcnvrt 06E8                   _I2C1Write 4AD4  
        ??_updateDispValHex 0014                     _TMR1Val 019A                     _TMR3Val 0198  
                   _TMR5Val 0196            ___lomod@dividend 0011          __end_of_UART1Setup 337E  
        __end_of_IOExpSetup 42B8             __size_of_RX_ISR 0186             __size_of_TX_ISR 0054  
           Tmr4Setup@regVal 0028                     __Hparam 0000                     __Lparam 0000  
       IOExpWriteDir@wrtCnt 001A                  ??_SetupClk 0011         __size_of_Tmr4Enable 0004  
                   _SysInit 3C30         __size_of_Tmr6Enable 0004                     ___lldiv 4580  
           __size_of___wmul 002A                     ___lodiv 3B40                     ___llmod 4752  
                   ___lomod 3FA6                     ___lwdiv 4852                     ___lwmod 4A12  
                 ?_vfprintf 0095              ??_uart1_tx_str 0017                __psmallconst 2000  
                   __pcinit 47DA                     _dig_idx 0048                     __ramtop 2000  
                   __ptext0 36BE                     __ptext1 2CF8                     __ptext2 4938  
                   __ptext3 381A                     __ptext4 4E90                     __ptext5 49A8  
                   __ptext6 4B88                     __ptext7 48C6                     __ptext8 207A  
                   __ptext9 2762      __size_of_IOExpReadIVal 00F8             __size_of_strcat 0026  
           __size_of_strcpy 006A             __size_of_strlen 003A                __size_of_pad 00C2  
                   _isalpha 4CB8                     _isdigit 4D9E                   _T4CONbits 003FA0  
                   _islower 4D2E                     _isspace 4BDA                  ?_I2C1Setup 0001  
                   _isupper 4D66                  ?_I2C1Write 0011                   _T6CONbits 003F94  
                   atoi@neg 001E                     _sprintf 4B88                     _strncmp 3936  
                   _toupper 4A76         __end_of_DEFAULT_ISR 4F8A        end_of_initialization 484C  
  __end_of_make_all_digital 4F42      __size_of_IOExpUpdateIn 0012                 _I2C1Disable 4F66  
                   fputc@fp 0013                     fputs@fp 001C      __size_of_IOExpWriteDir 00B4  
    __size_of_IOExpWriteInv 00B4      __size_of_IOExpWriteVal 00B4          UART1Setup@set_baud 001E  
           ___lldiv@divisor 0015           __end_of_setupDisp 4E0A             ___lldiv@counter 001D  
             _pendingSteps0 0192               _pendingSteps1 0190               _pendingSteps2 018E  
          ??_IOExpUpdateAll 001F     IOExpWriteInv@ioexp_inst 0014           __end_of_vfpfcnvrt 2762  
          ??_IOExpUpdateOut 001F                RX_ISR@rx_val 000E                     postdec1 003FE5  
                   postdec2 003FDD                     postinc0 003FEE                     postinc1 003FE6  
                   postinc2 003FDE         IOExpWriteInv@wrtCnt 001A                  ??_vfprintf 003E  
                   strcpy@d 001D                     strlen@a 0013                     strcpy@s 001B  
                   strlen@s 0011         _uart1_tx_sys_active 004C    updateDispValHex@dig_0_on 0017  
  updateDispValHex@dig_1_on 0019    updateDispValHex@dig_2_on 001A    updateDispValHex@dig_3_on 0018  
        updateDispVal@newDP 001A           __size_of_I2C1WrRd 00C4                  _updateDisp 4C2C  
                 _TRISBbits 003FC3                   _TRISCbits 003FC4         _update_disp_trigger 00C5  
      __size_of_stepper0ISR 0026        __size_of_stepper1ISR 0026        __size_of_stepper2ISR 0022  
                _stepState0 00BE                  _stepState1 00B9                  _stepState2 019E  
       IOExpWriteVal@wrtCnt 001A        _uart1_rx_msg_present 00C6      IOExpUpdateOut@set_oval 001D  
     __end_of_updateDispVal 2CF8               _IOExpReadIVal 3A48              __end_of_RX_ISR 36BE  
            __end_of_TX_ISR 4B88             Tmr6Setup@regVal 0028               uart1_tx_str@i 0019  
       I2C1WrRd@write_count 0014               _IOExpUpdateIn 4F42                 vfpfcnvrt@ap 0080  
               vfpfcnvrt@fp 007C              __end_of___wmul 4E68           __size_of_TMR4_ISR 0098  
          _twoSecondTrigger 00C1               _IOExpWriteDir 436C               _IOExpWriteInv 42B8  
             _IOExpWriteVal 4420              __end_of_strcat 4EB6                 _DEFAULT_ISR 4F88  
            __end_of_strcpy 4A12              __end_of_strlen 4D2E         start_initialization 47DA  
           ___lodiv@divisor 0019             ___lodiv@counter 0029                 ??_I2C1Setup 002C  
              ??_Tmr4Enable 0011                 ??_I2C1Write 0012                 __end_of_pad 41FC  
              ??_Tmr6Enable 0011                  ivt0x8_base 0008        __end_of_uart1_tx_str 3936  
            ?_IOExpReadIVal 0016             ___llmod@divisor 0005                   _Tmr4Setup 3DF6  
                 _Tmr6Setup 3ECE                    ??_RX_ISR 000B             ___llmod@counter 0009  
                  ??_TX_ISR 000A            UART1Setup@i_1058 002A                 vfprintf@fmt 0097  
              ?_Tmr4Disable 0001                    ??___wmul 0015           Tmr4Setup@tmr_freq 001E  
              ?_Tmr6Disable 0001              ?_IOExpUpdateIn 001D          __end_of_Tmr4Enable 4F7E  
     Tmr4Setup@prescalarVal 0027                 __pdataBANK1 01CA          __end_of_Tmr6Enable 4F82  
          UART1Setup@regVal 002B           __size_of_SetupClk 0028            UART1Setup@use_rx 0023  
          UART1Setup@use_tx 0022              ?_IOExpWriteDir 0014              ?_IOExpWriteInv 0014  
            ?_IOExpWriteVal 0014                    ??_strcat 0023                    ??_strcpy 0019  
                  ??_strlen 0013                 __pbssCOMRAM 003E               _uart1_tx_buff 0300  
               ?_updateDisp 0001               __pcstackBANK0 0060               __pcstackBANK2 0280  
         IOExpSetup@set_dir 0030           IOExpSetup@set_inv 0032          I2C1WrRd@read_count 0015  
         _halfSecondTrigger 00C2        IOExpReadIVal@intAddr 0019                  ?_Tmr4Setup 001E  
                ?_Tmr6Setup 001E                   _atoi$3584 0020                   _atoi$3585 0024  
                 _atoi$3586 0022   __size_of_updateDispValHex 027E          _I2C1_use_highspeed 00C4  
          ___lwdiv@dividend 0011        IOExpReadIVal@outVals 001B        IOExpReadIVal@portSel 0018  
                  ?_SysInit 0001                    ?___lldiv 0011                    ?___lodiv 0011  
                  ?___llmod 0001                    _I2C1ADB1 003D6E                   _dispChars 01CA  
                  ?___lomod 0011                    ?___lwdiv 0011                    ?___lwmod 0011  
                  _I2C1CON0 003D73                    _I2C1CON1 003D74                    _I2C1CON2 003D75  
                  _I2C1WrRd 4076           __size_of_vfprintf 0072             ___lomod@divisor 0019  
               __smallconst 2000             ___lomod@counter 0021                    ?_isalpha 0011  
                  ?_isdigit 0011                    ?_islower 0011                    ?_isspace 0011  
                  ?_isupper 0011            ___lwdiv@quotient 0016                    ?_sprintf 009D  
            __size_of_fputc 00D8              __size_of_fputs 0044                    ?_strncmp 0011  
           ??_IOExpReadIVal 0019                    ?_toupper 0017                 _U1ERRIRbits 003DF9  
                  _T4CLKCON 003FA2              __size_of_putch 0002                ?_I2C1Disable 0001  
                  _T6CLKCON 003F96                  _I2C1SDAPPS 003AE2                  _I2C1SCLPPS 003AE1  
         ?_make_all_digital 0001              ___wmul@product 0015                    _LATBbits 003FBB  
                  _LATCbits 003FBC          ??_make_all_digital 0011                  _I2C1Enable 4F70  
               RX_ISR@i_639 0010                    i1u441_20 4B50                    i1u441_21 4B4C  
                  i1u450_20 35DE                    i1u442_20 4B60                    i1u450_21 35DA  
                  i1u442_21 4B5C                    i1u451_20 3606                    i1u443_20 355A  
                  i1u451_21 3602                    i1u443_21 3556                    i1u452_20 3650  
                  i1u444_20 356C                    i1u452_21 364C                    i1u444_21 3568  
                  i1u453_20 36A8                    i1u445_20 3584                    i1u453_21 36A4  
                  i1u445_21 3580                    i1u446_20 359A                    i1u446_21 3596  
                  i1u447_20 35AA                    i1u447_21 35A6                    i1u448_20 35BC  
                  i1u448_21 35B8                    i1u449_20 35CE                    i1u449_21 35CA  
             _I2C1STAT0bits 003D77                    i2u430_44 4C42                    i2u430_45 4C3E  
                  i2u431_40 4C6E                    i2u431_41 4C6A               _I2C1STAT1bits 003D78  
                  i2u432_40 4768                    i2u440_40 46B4                    i2u432_41 4764  
                  i2u440_41 46B0                    i2u433_40 478A                    i2u433_41 4786  
                  i2u434_40 47A8                    i2u434_41 47A4                    i2u454_40 4ED0  
                  i2u454_41 4ECC                    i2u455_40 4EF8                    i2u439_40 4674  
                  i2u455_41 4EF4                    i2u439_41 4670                    i2u456_40 4F20  
                  i2u456_41 4F1C             ??_IOExpUpdateIn 001F         __size_of_updateDisp 0048  
                  _TMR4_ISR 4624                   _setupDisp 4DD6             ??_IOExpWriteDir 0017  
           ??_IOExpWriteInv 0017             ??_IOExpWriteVal 0017                   _vfpfcnvrt 207A  
                 _xtoa$3536 0068                   _xtoa$3537 006A           ___wmul@multiplier 0011  
 uart1_tx_str_crlf@in_bytes 0023   uart1_tx_str_crlf@new_buff 0060       __size_of_uart1_tx_str 011C  
              _isspace$3611 0017                  vfpfcnvrt@c 008C                 _INTCON0bits 003FD2  
                 copy_data0 47EE        IOExpWriteDir@datVals 0018        IOExpWriteDir@intAddr 0017  
               ??_Tmr4Setup 0023                 ??_Tmr6Setup 0023                    __Hrparam 0000  
      IOExpWriteDir@portSel 0016                  vfprintf@ap 0099                    __Lrparam 0000  
                vfprintf@fp 0095                    _SetupClk 4E68            Tmr4Setup@use_int 0022  
                ?_setupDisp 0021            __size_of_SysInit 00EE        __size_of_Tmr4Disable 0004  
          __size_of___lldiv 00A4            __size_of___lodiv 00F0            __size_of___llmod 0088  
          __size_of___lomod 00D0                  ?_vfpfcnvrt 007C            __size_of___lwdiv 0074  
          __size_of___lwmod 0064                _uart1_tx_str 381A             I2C1WrRd@devAddr 0012  
      __size_of_Tmr6Disable 0004               ??_stepper0ISR 000A               ??_stepper1ISR 000A  
             ??_stepper2ISR 000A                ?_DEFAULT_ISR 0001                  sprintf@fmt 009F  
                strcat@dest 001F                _I2C1CON0bits 003D73            __size_of_isalpha 003C  
          __size_of_isdigit 0038                    __pivt0x8 0008             ___lwdiv@divisor 0013  
          __size_of_islower 0038            __size_of_isspace 0052             ___lwdiv@counter 0015  
   IOExpUpdateIn@ioexp_inst 001D                    __ptext10 4A76                    __ptext11 4D2E  
                  __ptext20 3FA6                    __ptext12 4D66                    __ptext21 3B40  
                  __ptext13 4CB8                    __ptext30 4A12                    __ptext22 3936  
                  __ptext14 2F76                    __ptext31 4852                    __ptext23 337E  
                  __ptext15 413A                    __ptext40 436C                    __ptext32 4F2A  
                  __ptext24 4BDA                    __ptext16 4CF4                    __ptext41 44D4  
                  __ptext33 317E                    __ptext25 4D9E                    __ptext17 4C74  
                  __ptext50 4420                    __ptext42 3ECE                    __ptext34 3DF6  
                  __ptext26 4E3E                    __ptext18 3D1E                    __ptext51 4AD4  
                  __ptext43 4580                    __ptext35 4F76                    __ptext27 3C30  
                  __ptext19 4F86                    __ptext60 4752                    __ptext52 4F42  
                  __ptext44 4F7E                    __ptext36 4F7A                    __ptext28 4DD6  
                  __ptext61 4EB8                    __ptext53 3A48                    __ptext45 4F66  
                  __ptext37 41FC                    __ptext29 2A44                    __ptext62 4EE0  
                  __ptext54 4076                    __ptext46 4F82                    __ptext38 46BC  
                  __ptext63 4F08                    __ptext55 4B34                    __ptext47 4F70  
                  __ptext39 42B8                    __ptext56 3538                    __ptext48 4E68  
                  __ptext57 4F88                    __ptext49 4E0A                    __ptext58 4624  
                  __ptext59 4C2C            __size_of_isupper 0038                  _U1CON0bits 003DF2  
                _U1CON1bits 003DF3            __size_of_sprintf 0052                  strcpy@dest 0015  
          __size_of_strncmp 0112            __size_of_toupper 005E               __size_of_atoi 01B8  
             __size_of_main 015C               __size_of_utoa 0208                 ?_I2C1Enable 0001  
             __size_of_xtoa 02E2            _updateDispValHex 2CF8                  _ODCONBbits 003A52  
                  _vfprintf 48C6      updateDispValHex@newVal 0011      __size_of_updateDispVal 02B4  
    updateDispValHex@tmpVal 001B                 _OSCSTATbits 0039DC                    _sys_time 00B3  
                  _sys_stat 00C3               _I2C1_buff_idx 0194               _I2C1_buff_out 0100  
   __size_of_IOExpUpdateAll 0096     __size_of_IOExpUpdateOut 0034              _vfpfcnvrt$3551 008A  
              ??_updateDisp 0001       updateDispVal@dig_0_on 001B       updateDispVal@dig_1_on 001D  
     updateDispVal@dig_2_on 001E       updateDispVal@dig_3_on 001C                    isalpha@c 0011  
                  isdigit@c 0011         __end_of_stepper0ISR 4EDE         __end_of_stepper1ISR 4F06  
       __end_of_stepper2ISR 4F2A                    intlevel1 0000                    intlevel2 0000  
        IOExpReadIVal@rdCnt 001A                   sprintf@ap 00A7                   strcat@src 0021  
                  islower@c 0011            ___lwmod@dividend 0011                    isspace@c 0011  
      IOExpWriteInv@datVals 0018            ___lldiv@dividend 0011        __size_of_I2C1Disable 000A  
                 strcpy@src 0017                    isupper@c 0011                   strncmp@_l 0011  
                 strncmp@_r 0013        IOExpWriteInv@intAddr 0017       updateDispValHex@newDP 0013  
        __end_of_updateDisp 4C74                 ??_setupDisp 0023                  _UART1Setup 317E  
      IOExpWriteInv@portSel 0016                  _IOExpSetup 41FC                _I2C1_buff_in 0200  
               ??_vfpfcnvrt 0082              _stepDirection0 00BD              _stepDirection1 00B8  
            _stepDirection2 019D               I2C1WrRd@rdCnt 0011                    sprintf@f 00A9  
                  sprintf@s 009D               I2C1WrRd@wrCnt 0013            ___lldiv@quotient 0019  
       __size_of_I2C1Enable 0006             ___lwmod@divisor 0013             ___lwmod@counter 0015  
                  strncmp@l 0018                    strncmp@n 0015                    strncmp@r 001A  
                  toupper@c 0017         updateDispVal@newVal 0018               _updateDispVal 2A44  
        __size_of_I2C1Setup 00AC          RX_ISR@rx_frm_error 000C         updateDispVal@tmpVal 001F  
        __size_of_I2C1Write 005E        IOExpWriteVal@datVals 0018    IOExpUpdateOut@ioexp_inst 001B  
      IOExpWriteVal@intAddr 0017  
